
MinIMU9AHRS.elf:     file format elf32-avr

Sections:
Idx Name          Size      VMA       LMA       File off  Algn
  0 .data         000000e4  00800100  00005e3e  00005ed2  2**0
                  CONTENTS, ALLOC, LOAD, DATA
  1 .text         00005e3e  00000000  00000000  00000094  2**1
                  CONTENTS, ALLOC, LOAD, READONLY, CODE
  2 .bss          000002b1  008001e4  008001e4  00005fb6  2**0
                  ALLOC
  3 .stab         0000ff24  00000000  00000000  00005fb8  2**2
                  CONTENTS, READONLY, DEBUGGING
  4 .stabstr      0000677d  00000000  00000000  00015edc  2**0
                  CONTENTS, READONLY, DEBUGGING

Disassembly of section .text:

00000000 <__vectors>:
       0:	0c 94 a8 00 	jmp	0x150	; 0x150 <__ctors_end>
       4:	0c 94 d0 00 	jmp	0x1a0	; 0x1a0 <__bad_interrupt>
       8:	0c 94 d0 00 	jmp	0x1a0	; 0x1a0 <__bad_interrupt>
       c:	0c 94 d0 00 	jmp	0x1a0	; 0x1a0 <__bad_interrupt>
      10:	0c 94 d0 00 	jmp	0x1a0	; 0x1a0 <__bad_interrupt>
      14:	0c 94 d0 00 	jmp	0x1a0	; 0x1a0 <__bad_interrupt>
      18:	0c 94 d0 00 	jmp	0x1a0	; 0x1a0 <__bad_interrupt>
      1c:	0c 94 d0 00 	jmp	0x1a0	; 0x1a0 <__bad_interrupt>
      20:	0c 94 d0 00 	jmp	0x1a0	; 0x1a0 <__bad_interrupt>
      24:	0c 94 d0 00 	jmp	0x1a0	; 0x1a0 <__bad_interrupt>
      28:	0c 94 d0 00 	jmp	0x1a0	; 0x1a0 <__bad_interrupt>
      2c:	0c 94 d0 00 	jmp	0x1a0	; 0x1a0 <__bad_interrupt>
      30:	0c 94 d0 00 	jmp	0x1a0	; 0x1a0 <__bad_interrupt>
      34:	0c 94 d0 00 	jmp	0x1a0	; 0x1a0 <__bad_interrupt>
      38:	0c 94 d0 00 	jmp	0x1a0	; 0x1a0 <__bad_interrupt>
      3c:	0c 94 d0 00 	jmp	0x1a0	; 0x1a0 <__bad_interrupt>
      40:	0c 94 4e 1a 	jmp	0x349c	; 0x349c <__vector_16>
      44:	0c 94 47 1e 	jmp	0x3c8e	; 0x3c8e <__vector_17>
      48:	0c 94 61 0c 	jmp	0x18c2	; 0x18c2 <__vector_18>
      4c:	0c 94 99 0c 	jmp	0x1932	; 0x1932 <__vector_19>
      50:	0c 94 d0 00 	jmp	0x1a0	; 0x1a0 <__bad_interrupt>
      54:	0c 94 d0 00 	jmp	0x1a0	; 0x1a0 <__bad_interrupt>
      58:	0c 94 d0 00 	jmp	0x1a0	; 0x1a0 <__bad_interrupt>
      5c:	0c 94 d0 00 	jmp	0x1a0	; 0x1a0 <__bad_interrupt>
      60:	0c 94 d0 00 	jmp	0x1a0	; 0x1a0 <__bad_interrupt>
      64:	0c 94 d0 00 	jmp	0x1a0	; 0x1a0 <__bad_interrupt>
      68:	03 6e       	ori	r16, 0xE3	; 227
      6a:	db 36       	cpi	r29, 0x6B	; 107
      6c:	3d 9a       	sbi	0x07, 5	; 7
      6e:	99 99       	sbic	0x13, 1	; 19
      70:	99 3d       	cpi	r25, 0xD9	; 217
      72:	ab aa       	std	Y+51, r10	; 0x33
      74:	aa 2a       	or	r10, r26
      76:	3e 00       	.word	0x003e	; ????
      78:	00 00       	nop
      7a:	80 3f       	cpi	r24, 0xF0	; 240
      7c:	08 4a       	sbci	r16, 0xA8	; 168
      7e:	d7 3b       	cpi	r29, 0xB7	; 183
      80:	3b ce       	rjmp	.-906    	; 0xfffffcf8 <__eeprom_end+0xff7efcf8>
      82:	01 6e       	ori	r16, 0xE1	; 225
      84:	84 bc       	out	0x24, r8	; 36
      86:	bf fd       	.word	0xfdbf	; ????
      88:	c1 2f       	mov	r28, r17
      8a:	3d 6c       	ori	r19, 0xCD	; 205
      8c:	74 31       	cpi	r23, 0x14	; 20
      8e:	9a bd       	out	0x2a, r25	; 42
      90:	56 83       	std	Z+6, r21	; 0x06
      92:	3d da       	rcall	.-2950   	; 0xfffff50e <__eeprom_end+0xff7ef50e>
      94:	3d 00       	.word	0x003d	; ????
      96:	c7 7f       	andi	r28, 0xF7	; 247
      98:	11 be       	out	0x31, r1	; 49
      9a:	d9 e4       	ldi	r29, 0x49	; 73
      9c:	bb 4c       	sbci	r27, 0xCB	; 203
      9e:	3e 91       	ld	r19, -X
      a0:	6b aa       	std	Y+51, r6	; 0x33
      a2:	aa be       	out	0x3a, r10	; 58
      a4:	00 00       	nop
      a6:	00 80       	ld	r0, Z
      a8:	3f 07       	cpc	r19, r31
      aa:	2c 7a       	andi	r18, 0xAC	; 172
      ac:	a5 ba       	out	0x15, r10	; 21
      ae:	6c c5       	rjmp	.+2776   	; 0xb88 <_Z9Normalizev+0x11a>
      b0:	90 da       	rcall	.-2784   	; 0xfffff5d2 <__eeprom_end+0xff7ef5d2>
      b2:	3b 93       	.word	0x933b	; ????
      b4:	65 fc       	sbrc	r6, 5
      b6:	8b bc       	out	0x2b, r8	; 43
      b8:	53 f8       	bld	r5, 3
      ba:	10 fd       	sbrc	r17, 0
      bc:	3c 56       	subi	r19, 0x6C	; 108
      be:	92 83       	std	Z+2, r25	; 0x02
      c0:	4d bd       	out	0x2d, r20	; 45
      c2:	87 9d       	mul	r24, r7
      c4:	3a b6       	in	r3, 0x3a	; 58
      c6:	3d cb       	rjmp	.-2438   	; 0xfffff742 <__eeprom_end+0xff7ef742>
      c8:	c9 bf       	out	0x39, r28	; 57
      ca:	5b be       	out	0x3b, r5	; 59
      cc:	73 da       	rcall	.-2842   	; 0xfffff5b4 <__eeprom_end+0xff7ef5b4>
      ce:	0f c9       	rjmp	.-3554   	; 0xfffff2ee <__eeprom_end+0xff7ef2ee>
      d0:	3f 05       	cpc	r19, r15
      d2:	a8 4c       	sbci	r26, 0xC8	; 200
      d4:	cd b2       	in	r12, 0x1d	; 29
      d6:	d4 4e       	sbci	r29, 0xE4	; 228
      d8:	b9 38       	cpi	r27, 0x89	; 137
      da:	36 a9       	ldd	r19, Z+54	; 0x36
      dc:	02 0c       	add	r0, r2
      de:	50 b9       	out	0x00, r21	; 0
      e0:	91 86       	std	Z+9, r9	; 0x09
      e2:	88 08       	sbc	r8, r8
      e4:	3c a6       	std	Y+44, r3	; 0x2c
      e6:	aa aa       	std	Y+50, r10	; 0x32
      e8:	2a be       	out	0x3a, r2	; 58
      ea:	00 00       	nop
      ec:	00 80       	ld	r0, Z
      ee:	3f 00       	.word	0x003f	; ????

000000ef <port_to_mode_PGM>:
      ef:	00 00 00 00 24 00 27 00 2a 00                       ....$.'.*.

000000f9 <port_to_output_PGM>:
      f9:	00 00 00 00 25 00 28 00 2b 00                       ....%.(.+.

00000103 <port_to_input_PGM>:
     103:	00 00 00 00 23 00 26 00 29 00                       ....#.&.).

0000010d <digital_pin_to_port_PGM>:
     10d:	04 04 04 04 04 04 04 04 02 02 02 02 02 02 03 03     ................
     11d:	03 03 03 03                                         ....

00000121 <digital_pin_to_bit_mask_PGM>:
     121:	01 02 04 08 10 20 40 80 01 02 04 08 10 20 01 02     ..... @...... ..
     131:	04 08 10 20                                         ... 

00000135 <digital_pin_to_timer_PGM>:
     135:	00 00 00 07 00 02 01 00 00 03 04 06 00 00 00 00     ................
     145:	00 00 00 00 00                                      .....

0000014a <__ctors_start>:
     14a:	a9 0b       	sbc	r26, r25
     14c:	74 0e       	add	r7, r20
     14e:	46 1d       	adc	r20, r6

00000150 <__ctors_end>:
     150:	11 24       	eor	r1, r1
     152:	1f be       	out	0x3f, r1	; 63
     154:	cf ef       	ldi	r28, 0xFF	; 255
     156:	d8 e0       	ldi	r29, 0x08	; 8
     158:	de bf       	out	0x3e, r29	; 62
     15a:	cd bf       	out	0x3d, r28	; 61

0000015c <__do_copy_data>:
     15c:	11 e0       	ldi	r17, 0x01	; 1
     15e:	a0 e0       	ldi	r26, 0x00	; 0
     160:	b1 e0       	ldi	r27, 0x01	; 1
     162:	ee e3       	ldi	r30, 0x3E	; 62
     164:	fe e5       	ldi	r31, 0x5E	; 94
     166:	02 c0       	rjmp	.+4      	; 0x16c <__do_copy_data+0x10>
     168:	05 90       	lpm	r0, Z+
     16a:	0d 92       	st	X+, r0
     16c:	a4 3e       	cpi	r26, 0xE4	; 228
     16e:	b1 07       	cpc	r27, r17
     170:	d9 f7       	brne	.-10     	; 0x168 <__do_copy_data+0xc>

00000172 <__do_clear_bss>:
     172:	14 e0       	ldi	r17, 0x04	; 4
     174:	a4 ee       	ldi	r26, 0xE4	; 228
     176:	b1 e0       	ldi	r27, 0x01	; 1
     178:	01 c0       	rjmp	.+2      	; 0x17c <.do_clear_bss_start>

0000017a <.do_clear_bss_loop>:
     17a:	1d 92       	st	X+, r1

0000017c <.do_clear_bss_start>:
     17c:	a5 39       	cpi	r26, 0x95	; 149
     17e:	b1 07       	cpc	r27, r17
     180:	e1 f7       	brne	.-8      	; 0x17a <.do_clear_bss_loop>

00000182 <__do_global_ctors>:
     182:	11 e0       	ldi	r17, 0x01	; 1
     184:	c0 e5       	ldi	r28, 0x50	; 80
     186:	d1 e0       	ldi	r29, 0x01	; 1
     188:	04 c0       	rjmp	.+8      	; 0x192 <__do_global_ctors+0x10>
     18a:	22 97       	sbiw	r28, 0x02	; 2
     18c:	fe 01       	movw	r30, r28
     18e:	0e 94 75 2b 	call	0x56ea	; 0x56ea <__tablejump__>
     192:	ca 34       	cpi	r28, 0x4A	; 74
     194:	d1 07       	cpc	r29, r17
     196:	c9 f7       	brne	.-14     	; 0x18a <__do_global_ctors+0x8>
     198:	0e 94 29 1a 	call	0x3452	; 0x3452 <main>
     19c:	0c 94 1d 2f 	jmp	0x5e3a	; 0x5e3a <_exit>

000001a0 <__bad_interrupt>:
     1a0:	0c 94 00 00 	jmp	0	; 0x0 <__vectors>

000001a4 <_Z14convert_to_decf>:
     1a4:	20 e8       	ldi	r18, 0x80	; 128
     1a6:	36 e9       	ldi	r19, 0x96	; 150
     1a8:	48 e1       	ldi	r20, 0x18	; 24
     1aa:	5b e4       	ldi	r21, 0x4B	; 75
     1ac:	0e 94 63 2a 	call	0x54c6	; 0x54c6 <__mulsf3>
     1b0:	0e 94 eb 28 	call	0x51d6	; 0x51d6 <__fixsfsi>
     1b4:	08 95       	ret

000001b6 <_Z9printdatav>:
{
	return x*10000000;
}

void printdata(void)
{
     1b6:	0f 93       	push	r16
     1b8:	1f 93       	push	r17
     1ba:	cf 93       	push	r28
     1bc:	df 93       	push	r29
	Serial.print("!");
     1be:	c1 ea       	ldi	r28, 0xA1	; 161
     1c0:	d3 e0       	ldi	r29, 0x03	; 3
     1c2:	ce 01       	movw	r24, r28
     1c4:	60 e0       	ldi	r22, 0x00	; 0
     1c6:	71 e0       	ldi	r23, 0x01	; 1
     1c8:	0e 94 4e 0f 	call	0x1e9c	; 0x1e9c <_ZN5Print5printEPKc>

#if PRINT_EULER == 1
	Serial.print("ANG:");
     1cc:	ce 01       	movw	r24, r28
     1ce:	62 e0       	ldi	r22, 0x02	; 2
     1d0:	71 e0       	ldi	r23, 0x01	; 1
     1d2:	0e 94 4e 0f 	call	0x1e9c	; 0x1e9c <_ZN5Print5printEPKc>
	Serial.print(ToDeg(roll));
     1d6:	60 91 72 02 	lds	r22, 0x0272
     1da:	70 91 73 02 	lds	r23, 0x0273
     1de:	80 91 74 02 	lds	r24, 0x0274
     1e2:	90 91 75 02 	lds	r25, 0x0275
     1e6:	21 ee       	ldi	r18, 0xE1	; 225
     1e8:	3e e2       	ldi	r19, 0x2E	; 46
     1ea:	45 e6       	ldi	r20, 0x65	; 101
     1ec:	52 e4       	ldi	r21, 0x42	; 66
     1ee:	0e 94 63 2a 	call	0x54c6	; 0x54c6 <__mulsf3>
     1f2:	ab 01       	movw	r20, r22
     1f4:	bc 01       	movw	r22, r24
     1f6:	ce 01       	movw	r24, r28
     1f8:	22 e0       	ldi	r18, 0x02	; 2
     1fa:	30 e0       	ldi	r19, 0x00	; 0
     1fc:	0e 94 01 12 	call	0x2402	; 0x2402 <_ZN5Print5printEdi>
	Serial.print(",");
     200:	07 e0       	ldi	r16, 0x07	; 7
     202:	11 e0       	ldi	r17, 0x01	; 1
     204:	ce 01       	movw	r24, r28
     206:	b8 01       	movw	r22, r16
     208:	0e 94 4e 0f 	call	0x1e9c	; 0x1e9c <_ZN5Print5printEPKc>
	Serial.print(ToDeg(pitch));
     20c:	60 91 76 02 	lds	r22, 0x0276
     210:	70 91 77 02 	lds	r23, 0x0277
     214:	80 91 78 02 	lds	r24, 0x0278
     218:	90 91 79 02 	lds	r25, 0x0279
     21c:	21 ee       	ldi	r18, 0xE1	; 225
     21e:	3e e2       	ldi	r19, 0x2E	; 46
     220:	45 e6       	ldi	r20, 0x65	; 101
     222:	52 e4       	ldi	r21, 0x42	; 66
     224:	0e 94 63 2a 	call	0x54c6	; 0x54c6 <__mulsf3>
     228:	ab 01       	movw	r20, r22
     22a:	bc 01       	movw	r22, r24
     22c:	ce 01       	movw	r24, r28
     22e:	22 e0       	ldi	r18, 0x02	; 2
     230:	30 e0       	ldi	r19, 0x00	; 0
     232:	0e 94 01 12 	call	0x2402	; 0x2402 <_ZN5Print5printEdi>
	Serial.print(",");
     236:	ce 01       	movw	r24, r28
     238:	b8 01       	movw	r22, r16
     23a:	0e 94 4e 0f 	call	0x1e9c	; 0x1e9c <_ZN5Print5printEPKc>
	Serial.print(ToDeg(yaw));
     23e:	60 91 7a 02 	lds	r22, 0x027A
     242:	70 91 7b 02 	lds	r23, 0x027B
     246:	80 91 7c 02 	lds	r24, 0x027C
     24a:	90 91 7d 02 	lds	r25, 0x027D
     24e:	21 ee       	ldi	r18, 0xE1	; 225
     250:	3e e2       	ldi	r19, 0x2E	; 46
     252:	45 e6       	ldi	r20, 0x65	; 101
     254:	52 e4       	ldi	r21, 0x42	; 66
     256:	0e 94 63 2a 	call	0x54c6	; 0x54c6 <__mulsf3>
     25a:	ab 01       	movw	r20, r22
     25c:	bc 01       	movw	r22, r24
     25e:	ce 01       	movw	r24, r28
     260:	22 e0       	ldi	r18, 0x02	; 2
     262:	30 e0       	ldi	r19, 0x00	; 0
     264:	0e 94 01 12 	call	0x2402	; 0x2402 <_ZN5Print5printEdi>
      Serial.print (",");
      Serial.print(convert_to_dec(DCM_Matrix[2][1]));
      Serial.print (",");
      Serial.print(convert_to_dec(DCM_Matrix[2][2]));
      #endif*/
	Serial.println();
     268:	ce 01       	movw	r24, r28
     26a:	0e 94 64 0f 	call	0x1ec8	; 0x1ec8 <_ZN5Print7printlnEv>

}
     26e:	df 91       	pop	r29
     270:	cf 91       	pop	r28
     272:	1f 91       	pop	r17
     274:	0f 91       	pop	r16
     276:	08 95       	ret

00000278 <_Z15Matrix_MultiplyPA3_fS0_S0_>:
 */

/**************************************************/
//Multiply two 3x3 matrixs. This function developed by Jordi can be easily adapted to multiple n*n matrix's. (Pero me da flojera!).
void Matrix_Multiply(float a[3][3], float b[3][3],float mat[3][3])
{
     278:	2f 92       	push	r2
     27a:	3f 92       	push	r3
     27c:	4f 92       	push	r4
     27e:	5f 92       	push	r5
     280:	6f 92       	push	r6
     282:	7f 92       	push	r7
     284:	8f 92       	push	r8
     286:	9f 92       	push	r9
     288:	af 92       	push	r10
     28a:	bf 92       	push	r11
     28c:	cf 92       	push	r12
     28e:	df 92       	push	r13
     290:	ef 92       	push	r14
     292:	ff 92       	push	r15
     294:	0f 93       	push	r16
     296:	1f 93       	push	r17
     298:	df 93       	push	r29
     29a:	cf 93       	push	r28
     29c:	cd b7       	in	r28, 0x3d	; 61
     29e:	de b7       	in	r29, 0x3e	; 62
     2a0:	2e 97       	sbiw	r28, 0x0e	; 14
     2a2:	0f b6       	in	r0, 0x3f	; 63
     2a4:	f8 94       	cli
     2a6:	de bf       	out	0x3e, r29	; 62
     2a8:	0f be       	out	0x3f, r0	; 63
     2aa:	cd bf       	out	0x3d, r28	; 61
     2ac:	6d 87       	std	Y+13, r22	; 0x0d
     2ae:	7e 87       	std	Y+14, r23	; 0x0e

 */

/**************************************************/
//Multiply two 3x3 matrixs. This function developed by Jordi can be easily adapted to multiple n*n matrix's. (Pero me da flojera!).
void Matrix_Multiply(float a[3][3], float b[3][3],float mat[3][3])
     2b0:	c4 2e       	mov	r12, r20
     2b2:	d5 2e       	mov	r13, r21
     2b4:	e8 2e       	mov	r14, r24
     2b6:	f9 2e       	mov	r15, r25
     2b8:	94 e2       	ldi	r25, 0x24	; 36
     2ba:	29 2e       	mov	r2, r25
     2bc:	31 2c       	mov	r3, r1
     2be:	2c 0c       	add	r2, r12
     2c0:	3d 1c       	adc	r3, r13
     2c2:	50 c0       	rjmp	.+160    	; 0x364 <_Z15Matrix_MultiplyPA3_fS0_S0_+0xec>
	{
		for(int y=0; y<3; y++)
		{
			for(int w=0; w<3; w++)
			{
				op[w]=a[x][w]*b[w][y];
     2c4:	f8 01       	movw	r30, r16
     2c6:	21 91       	ld	r18, Z+
     2c8:	31 91       	ld	r19, Z+
     2ca:	41 91       	ld	r20, Z+
     2cc:	51 91       	ld	r21, Z+
     2ce:	8f 01       	movw	r16, r30
     2d0:	f7 01       	movw	r30, r14
     2d2:	60 81       	ld	r22, Z
     2d4:	71 81       	ldd	r23, Z+1	; 0x01
     2d6:	82 81       	ldd	r24, Z+2	; 0x02
     2d8:	93 81       	ldd	r25, Z+3	; 0x03
     2da:	0e 94 63 2a 	call	0x54c6	; 0x54c6 <__mulsf3>
     2de:	4b 01       	movw	r8, r22
     2e0:	5c 01       	movw	r10, r24
     2e2:	69 83       	std	Y+1, r22	; 0x01
     2e4:	7a 83       	std	Y+2, r23	; 0x02
     2e6:	8b 83       	std	Y+3, r24	; 0x03
     2e8:	9c 83       	std	Y+4, r25	; 0x04
     2ea:	f7 01       	movw	r30, r14
     2ec:	64 81       	ldd	r22, Z+4	; 0x04
     2ee:	75 81       	ldd	r23, Z+5	; 0x05
     2f0:	86 81       	ldd	r24, Z+6	; 0x06
     2f2:	97 81       	ldd	r25, Z+7	; 0x07
     2f4:	f8 01       	movw	r30, r16
     2f6:	20 85       	ldd	r18, Z+8	; 0x08
     2f8:	31 85       	ldd	r19, Z+9	; 0x09
     2fa:	42 85       	ldd	r20, Z+10	; 0x0a
     2fc:	53 85       	ldd	r21, Z+11	; 0x0b
     2fe:	0e 94 63 2a 	call	0x54c6	; 0x54c6 <__mulsf3>
     302:	9b 01       	movw	r18, r22
     304:	ac 01       	movw	r20, r24
     306:	6d 83       	std	Y+5, r22	; 0x05
     308:	7e 83       	std	Y+6, r23	; 0x06
     30a:	8f 83       	std	Y+7, r24	; 0x07
     30c:	98 87       	std	Y+8, r25	; 0x08
			}
			mat[x][y]=0;
			mat[x][y]=op[0]+op[1]+op[2];
     30e:	c5 01       	movw	r24, r10
     310:	b4 01       	movw	r22, r8
     312:	0e 94 9f 27 	call	0x4f3e	; 0x4f3e <__addsf3>
     316:	4b 01       	movw	r8, r22
     318:	5c 01       	movw	r10, r24
	{
		for(int y=0; y<3; y++)
		{
			for(int w=0; w<3; w++)
			{
				op[w]=a[x][w]*b[w][y];
     31a:	f7 01       	movw	r30, r14
     31c:	60 85       	ldd	r22, Z+8	; 0x08
     31e:	71 85       	ldd	r23, Z+9	; 0x09
     320:	82 85       	ldd	r24, Z+10	; 0x0a
     322:	93 85       	ldd	r25, Z+11	; 0x0b
     324:	f8 01       	movw	r30, r16
     326:	24 89       	ldd	r18, Z+20	; 0x14
     328:	35 89       	ldd	r19, Z+21	; 0x15
     32a:	46 89       	ldd	r20, Z+22	; 0x16
     32c:	57 89       	ldd	r21, Z+23	; 0x17
     32e:	0e 94 63 2a 	call	0x54c6	; 0x54c6 <__mulsf3>
     332:	9b 01       	movw	r18, r22
     334:	ac 01       	movw	r20, r24
			}
			mat[x][y]=0;
			mat[x][y]=op[0]+op[1]+op[2];
     336:	c5 01       	movw	r24, r10
     338:	b4 01       	movw	r22, r8
     33a:	0e 94 9f 27 	call	0x4f3e	; 0x4f3e <__addsf3>
     33e:	f3 01       	movw	r30, r6
     340:	61 93       	st	Z+, r22
     342:	71 93       	st	Z+, r23
     344:	81 93       	st	Z+, r24
     346:	91 93       	st	Z+, r25
     348:	3f 01       	movw	r6, r30
void Matrix_Multiply(float a[3][3], float b[3][3],float mat[3][3])
{
	float op[3];
	for(int x=0; x<3; x++)
	{
		for(int y=0; y<3; y++)
     34a:	04 15       	cp	r16, r4
     34c:	15 05       	cpc	r17, r5
     34e:	09 f0       	breq	.+2      	; 0x352 <_Z15Matrix_MultiplyPA3_fS0_S0_+0xda>
     350:	b9 cf       	rjmp	.-142    	; 0x2c4 <_Z15Matrix_MultiplyPA3_fS0_S0_+0x4c>
     352:	8c e0       	ldi	r24, 0x0C	; 12
     354:	90 e0       	ldi	r25, 0x00	; 0
     356:	c8 0e       	add	r12, r24
     358:	d9 1e       	adc	r13, r25
     35a:	e8 0e       	add	r14, r24
     35c:	f9 1e       	adc	r15, r25
/**************************************************/
//Multiply two 3x3 matrixs. This function developed by Jordi can be easily adapted to multiple n*n matrix's. (Pero me da flojera!).
void Matrix_Multiply(float a[3][3], float b[3][3],float mat[3][3])
{
	float op[3];
	for(int x=0; x<3; x++)
     35e:	c2 14       	cp	r12, r2
     360:	d3 04       	cpc	r13, r3
     362:	59 f0       	breq	.+22     	; 0x37a <_Z15Matrix_MultiplyPA3_fS0_S0_+0x102>
     364:	9d 85       	ldd	r25, Y+13	; 0x0d
     366:	8e 85       	ldd	r24, Y+14	; 0x0e
     368:	09 2f       	mov	r16, r25
     36a:	18 2f       	mov	r17, r24

 */

/**************************************************/
//Multiply two 3x3 matrixs. This function developed by Jordi can be easily adapted to multiple n*n matrix's. (Pero me da flojera!).
void Matrix_Multiply(float a[3][3], float b[3][3],float mat[3][3])
     36c:	8c e0       	ldi	r24, 0x0C	; 12
     36e:	48 2e       	mov	r4, r24
     370:	51 2c       	mov	r5, r1
     372:	40 0e       	add	r4, r16
     374:	51 1e       	adc	r5, r17
     376:	36 01       	movw	r6, r12
     378:	a5 cf       	rjmp	.-182    	; 0x2c4 <_Z15Matrix_MultiplyPA3_fS0_S0_+0x4c>
			mat[x][y]=op[0]+op[1]+op[2];

			float test=mat[x][y];
		}
	}
}
     37a:	2e 96       	adiw	r28, 0x0e	; 14
     37c:	0f b6       	in	r0, 0x3f	; 63
     37e:	f8 94       	cli
     380:	de bf       	out	0x3e, r29	; 62
     382:	0f be       	out	0x3f, r0	; 63
     384:	cd bf       	out	0x3d, r28	; 61
     386:	cf 91       	pop	r28
     388:	df 91       	pop	r29
     38a:	1f 91       	pop	r17
     38c:	0f 91       	pop	r16
     38e:	ff 90       	pop	r15
     390:	ef 90       	pop	r14
     392:	df 90       	pop	r13
     394:	cf 90       	pop	r12
     396:	bf 90       	pop	r11
     398:	af 90       	pop	r10
     39a:	9f 90       	pop	r9
     39c:	8f 90       	pop	r8
     39e:	7f 90       	pop	r7
     3a0:	6f 90       	pop	r6
     3a2:	5f 90       	pop	r5
     3a4:	4f 90       	pop	r4
     3a6:	3f 90       	pop	r3
     3a8:	2f 90       	pop	r2
     3aa:	08 95       	ret

000003ac <_Z8I2C_Initv>:
L3G gyro;
LSM303 compass;

void I2C_Init()
{
	Wire.begin();
     3ac:	87 e1       	ldi	r24, 0x17	; 23
     3ae:	94 e0       	ldi	r25, 0x04	; 4
     3b0:	0e 94 de 1c 	call	0x39bc	; 0x39bc <_ZN7TwoWire5beginEv>
}
     3b4:	08 95       	ret

000003b6 <_Z9Gyro_Initv>:

void Gyro_Init()
{
     3b6:	cf 93       	push	r28
     3b8:	df 93       	push	r29
	gyro.init();
     3ba:	cd eb       	ldi	r28, 0xBD	; 189
     3bc:	d2 e0       	ldi	r29, 0x02	; 2
     3be:	ce 01       	movw	r24, r28
     3c0:	60 e0       	ldi	r22, 0x00	; 0
     3c2:	42 e0       	ldi	r20, 0x02	; 2
     3c4:	0e 94 d1 21 	call	0x43a2	; 0x43a2 <_ZN3L3G4initEhh>
	gyro.writeReg(L3G_CTRL_REG1, 0x0F); // normal power mode, all axes enabled, 100 Hz
     3c8:	ce 01       	movw	r24, r28
     3ca:	60 e2       	ldi	r22, 0x20	; 32
     3cc:	4f e0       	ldi	r20, 0x0F	; 15
     3ce:	0e 94 a7 1f 	call	0x3f4e	; 0x3f4e <_ZN3L3G8writeRegEhh>
	gyro.writeReg(L3G_CTRL_REG4, 0x20); // 2000 dps full scale
     3d2:	ce 01       	movw	r24, r28
     3d4:	63 e2       	ldi	r22, 0x23	; 35
     3d6:	40 e2       	ldi	r20, 0x20	; 32
     3d8:	0e 94 a7 1f 	call	0x3f4e	; 0x3f4e <_ZN3L3G8writeRegEhh>
}
     3dc:	df 91       	pop	r29
     3de:	cf 91       	pop	r28
     3e0:	08 95       	ret

000003e2 <_Z9Read_Gyrov>:

void Read_Gyro()
{
     3e2:	0f 93       	push	r16
     3e4:	1f 93       	push	r17
     3e6:	cf 93       	push	r28
     3e8:	df 93       	push	r29
	gyro.read();
     3ea:	8d eb       	ldi	r24, 0xBD	; 189
     3ec:	92 e0       	ldi	r25, 0x02	; 2
     3ee:	0e 94 fb 1f 	call	0x3ff6	; 0x3ff6 <_ZN3L3G4readEv>

	AN[0] = gyro.g.x;
     3f2:	60 91 bd 02 	lds	r22, 0x02BD
     3f6:	70 91 be 02 	lds	r23, 0x02BE
     3fa:	80 91 bf 02 	lds	r24, 0x02BF
     3fe:	90 91 c0 02 	lds	r25, 0x02C0
     402:	0e 94 eb 28 	call	0x51d6	; 0x51d6 <__fixsfsi>
     406:	eb 01       	movw	r28, r22
     408:	70 93 f1 01 	sts	0x01F1, r23
     40c:	60 93 f0 01 	sts	0x01F0, r22
	AN[1] = gyro.g.y;
     410:	60 91 c1 02 	lds	r22, 0x02C1
     414:	70 91 c2 02 	lds	r23, 0x02C2
     418:	80 91 c3 02 	lds	r24, 0x02C3
     41c:	90 91 c4 02 	lds	r25, 0x02C4
     420:	0e 94 eb 28 	call	0x51d6	; 0x51d6 <__fixsfsi>
     424:	8b 01       	movw	r16, r22
     426:	70 93 f3 01 	sts	0x01F3, r23
     42a:	60 93 f2 01 	sts	0x01F2, r22
	AN[2] = gyro.g.z;
     42e:	60 91 c5 02 	lds	r22, 0x02C5
     432:	70 91 c6 02 	lds	r23, 0x02C6
     436:	80 91 c7 02 	lds	r24, 0x02C7
     43a:	90 91 c8 02 	lds	r25, 0x02C8
     43e:	0e 94 eb 28 	call	0x51d6	; 0x51d6 <__fixsfsi>
     442:	9b 01       	movw	r18, r22
     444:	70 93 f5 01 	sts	0x01F5, r23
     448:	60 93 f4 01 	sts	0x01F4, r22
	gyro_x = SENSOR_SIGN[0] * (AN[0] - AN_OFFSET[0]);
     44c:	80 91 fc 01 	lds	r24, 0x01FC
     450:	90 91 fd 01 	lds	r25, 0x01FD
     454:	c8 1b       	sub	r28, r24
     456:	d9 0b       	sbc	r29, r25
     458:	40 91 3d 01 	lds	r20, 0x013D
     45c:	50 91 3e 01 	lds	r21, 0x013E
     460:	c4 9f       	mul	r28, r20
     462:	c0 01       	movw	r24, r0
     464:	c5 9f       	mul	r28, r21
     466:	90 0d       	add	r25, r0
     468:	d4 9f       	mul	r29, r20
     46a:	90 0d       	add	r25, r0
     46c:	11 24       	eor	r1, r1
     46e:	90 93 09 02 	sts	0x0209, r25
     472:	80 93 08 02 	sts	0x0208, r24
	gyro_y = SENSOR_SIGN[1] * (AN[1] - AN_OFFSET[1]);
     476:	80 91 fe 01 	lds	r24, 0x01FE
     47a:	90 91 ff 01 	lds	r25, 0x01FF
     47e:	08 1b       	sub	r16, r24
     480:	19 0b       	sbc	r17, r25
     482:	40 91 3f 01 	lds	r20, 0x013F
     486:	50 91 40 01 	lds	r21, 0x0140
     48a:	04 9f       	mul	r16, r20
     48c:	c0 01       	movw	r24, r0
     48e:	05 9f       	mul	r16, r21
     490:	90 0d       	add	r25, r0
     492:	14 9f       	mul	r17, r20
     494:	90 0d       	add	r25, r0
     496:	11 24       	eor	r1, r1
     498:	90 93 0b 02 	sts	0x020B, r25
     49c:	80 93 0a 02 	sts	0x020A, r24
	gyro_z = SENSOR_SIGN[2] * (AN[2] - AN_OFFSET[2]);
     4a0:	80 91 00 02 	lds	r24, 0x0200
     4a4:	90 91 01 02 	lds	r25, 0x0201
     4a8:	28 1b       	sub	r18, r24
     4aa:	39 0b       	sbc	r19, r25
     4ac:	40 91 41 01 	lds	r20, 0x0141
     4b0:	50 91 42 01 	lds	r21, 0x0142
     4b4:	24 9f       	mul	r18, r20
     4b6:	c0 01       	movw	r24, r0
     4b8:	25 9f       	mul	r18, r21
     4ba:	90 0d       	add	r25, r0
     4bc:	34 9f       	mul	r19, r20
     4be:	90 0d       	add	r25, r0
     4c0:	11 24       	eor	r1, r1
     4c2:	90 93 0d 02 	sts	0x020D, r25
     4c6:	80 93 0c 02 	sts	0x020C, r24
}
     4ca:	df 91       	pop	r29
     4cc:	cf 91       	pop	r28
     4ce:	1f 91       	pop	r17
     4d0:	0f 91       	pop	r16
     4d2:	08 95       	ret

000004d4 <_Z10Accel_Initv>:

void Accel_Init()
{
	compass.init();
     4d4:	8b ec       	ldi	r24, 0xCB	; 203
     4d6:	92 e0       	ldi	r25, 0x02	; 2
     4d8:	63 e0       	ldi	r22, 0x03	; 3
     4da:	42 e0       	ldi	r20, 0x02	; 2
     4dc:	0e 94 70 27 	call	0x4ee0	; 0x4ee0 <_ZN6LSM3034initEhh>
	if (compass.getDeviceType() == LSM303DLHC_DEVICE)
     4e0:	80 91 fc 02 	lds	r24, 0x02FC
     4e4:	82 30       	cpi	r24, 0x02	; 2
     4e6:	89 f4       	brne	.+34     	; 0x50a <_Z10Accel_Initv+0x36>
	{
		compass.writeAccReg(LSM303_CTRL_REG1_A, 0x47); // normal power mode, all axes enabled, 50 Hz
     4e8:	8b ec       	ldi	r24, 0xCB	; 203
     4ea:	92 e0       	ldi	r25, 0x02	; 2
     4ec:	60 e2       	ldi	r22, 0x20	; 32
     4ee:	47 e4       	ldi	r20, 0x47	; 71
     4f0:	0e 94 3d 22 	call	0x447a	; 0x447a <_ZN6LSM30311writeAccRegEhh>
		compass.writeAccReg(LSM303_CTRL_REG4_A, 0x08); // high resolution output mode
     4f4:	8b ec       	ldi	r24, 0xCB	; 203
     4f6:	92 e0       	ldi	r25, 0x02	; 2
     4f8:	63 e2       	ldi	r22, 0x23	; 35
     4fa:	48 e0       	ldi	r20, 0x08	; 8
     4fc:	0e 94 3d 22 	call	0x447a	; 0x447a <_ZN6LSM30311writeAccRegEhh>
		compass.writeAccReg(LSM303_CTRL_REG4_A, 0x20); // 8 g full scale: FS = 10 on DLHC
     500:	8b ec       	ldi	r24, 0xCB	; 203
     502:	92 e0       	ldi	r25, 0x02	; 2
     504:	63 e2       	ldi	r22, 0x23	; 35
     506:	40 e2       	ldi	r20, 0x20	; 32
     508:	0a c0       	rjmp	.+20     	; 0x51e <_Z10Accel_Initv+0x4a>
	}
	else
	{
		compass.writeAccReg(LSM303_CTRL_REG1_A, 0x27); // normal power mode, all axes enabled, 50 Hz
     50a:	8b ec       	ldi	r24, 0xCB	; 203
     50c:	92 e0       	ldi	r25, 0x02	; 2
     50e:	60 e2       	ldi	r22, 0x20	; 32
     510:	47 e2       	ldi	r20, 0x27	; 39
     512:	0e 94 3d 22 	call	0x447a	; 0x447a <_ZN6LSM30311writeAccRegEhh>
		compass.writeAccReg(LSM303_CTRL_REG4_A, 0x30); // 8 g full scale: FS = 11 on DLH, DLM
     516:	8b ec       	ldi	r24, 0xCB	; 203
     518:	92 e0       	ldi	r25, 0x02	; 2
     51a:	63 e2       	ldi	r22, 0x23	; 35
     51c:	40 e3       	ldi	r20, 0x30	; 48
     51e:	0e 94 3d 22 	call	0x447a	; 0x447a <_ZN6LSM30311writeAccRegEhh>
     522:	08 95       	ret

00000524 <_Z10Read_Accelv>:
	}
}

// Reads x,y and z accelerometer registers
void Read_Accel()
{
     524:	0f 93       	push	r16
     526:	1f 93       	push	r17
     528:	cf 93       	push	r28
     52a:	df 93       	push	r29
	compass.readAcc();
     52c:	8b ec       	ldi	r24, 0xCB	; 203
     52e:	92 e0       	ldi	r25, 0x02	; 2
     530:	0e 94 4d 23 	call	0x469a	; 0x469a <_ZN6LSM3037readAccEv>

	AN[3] = compass.a.x;
     534:	60 91 cb 02 	lds	r22, 0x02CB
     538:	70 91 cc 02 	lds	r23, 0x02CC
     53c:	80 91 cd 02 	lds	r24, 0x02CD
     540:	90 91 ce 02 	lds	r25, 0x02CE
     544:	0e 94 eb 28 	call	0x51d6	; 0x51d6 <__fixsfsi>
     548:	eb 01       	movw	r28, r22
     54a:	70 93 f7 01 	sts	0x01F7, r23
     54e:	60 93 f6 01 	sts	0x01F6, r22
	AN[4] = compass.a.y;
     552:	60 91 cf 02 	lds	r22, 0x02CF
     556:	70 91 d0 02 	lds	r23, 0x02D0
     55a:	80 91 d1 02 	lds	r24, 0x02D1
     55e:	90 91 d2 02 	lds	r25, 0x02D2
     562:	0e 94 eb 28 	call	0x51d6	; 0x51d6 <__fixsfsi>
     566:	8b 01       	movw	r16, r22
     568:	70 93 f9 01 	sts	0x01F9, r23
     56c:	60 93 f8 01 	sts	0x01F8, r22
	AN[5] = compass.a.z;
     570:	60 91 d3 02 	lds	r22, 0x02D3
     574:	70 91 d4 02 	lds	r23, 0x02D4
     578:	80 91 d5 02 	lds	r24, 0x02D5
     57c:	90 91 d6 02 	lds	r25, 0x02D6
     580:	0e 94 eb 28 	call	0x51d6	; 0x51d6 <__fixsfsi>
     584:	9b 01       	movw	r18, r22
     586:	70 93 fb 01 	sts	0x01FB, r23
     58a:	60 93 fa 01 	sts	0x01FA, r22
	accel_x = SENSOR_SIGN[3] * (AN[3] - AN_OFFSET[3]);
     58e:	80 91 02 02 	lds	r24, 0x0202
     592:	90 91 03 02 	lds	r25, 0x0203
     596:	c8 1b       	sub	r28, r24
     598:	d9 0b       	sbc	r29, r25
     59a:	40 91 43 01 	lds	r20, 0x0143
     59e:	50 91 44 01 	lds	r21, 0x0144
     5a2:	c4 9f       	mul	r28, r20
     5a4:	c0 01       	movw	r24, r0
     5a6:	c5 9f       	mul	r28, r21
     5a8:	90 0d       	add	r25, r0
     5aa:	d4 9f       	mul	r29, r20
     5ac:	90 0d       	add	r25, r0
     5ae:	11 24       	eor	r1, r1
     5b0:	90 93 0f 02 	sts	0x020F, r25
     5b4:	80 93 0e 02 	sts	0x020E, r24
	accel_y = SENSOR_SIGN[4] * (AN[4] - AN_OFFSET[4]);
     5b8:	80 91 04 02 	lds	r24, 0x0204
     5bc:	90 91 05 02 	lds	r25, 0x0205
     5c0:	08 1b       	sub	r16, r24
     5c2:	19 0b       	sbc	r17, r25
     5c4:	40 91 45 01 	lds	r20, 0x0145
     5c8:	50 91 46 01 	lds	r21, 0x0146
     5cc:	04 9f       	mul	r16, r20
     5ce:	c0 01       	movw	r24, r0
     5d0:	05 9f       	mul	r16, r21
     5d2:	90 0d       	add	r25, r0
     5d4:	14 9f       	mul	r17, r20
     5d6:	90 0d       	add	r25, r0
     5d8:	11 24       	eor	r1, r1
     5da:	90 93 11 02 	sts	0x0211, r25
     5de:	80 93 10 02 	sts	0x0210, r24
	accel_z = SENSOR_SIGN[5] * (AN[5] - AN_OFFSET[5]);
     5e2:	80 91 06 02 	lds	r24, 0x0206
     5e6:	90 91 07 02 	lds	r25, 0x0207
     5ea:	28 1b       	sub	r18, r24
     5ec:	39 0b       	sbc	r19, r25
     5ee:	40 91 47 01 	lds	r20, 0x0147
     5f2:	50 91 48 01 	lds	r21, 0x0148
     5f6:	24 9f       	mul	r18, r20
     5f8:	c0 01       	movw	r24, r0
     5fa:	25 9f       	mul	r18, r21
     5fc:	90 0d       	add	r25, r0
     5fe:	34 9f       	mul	r19, r20
     600:	90 0d       	add	r25, r0
     602:	11 24       	eor	r1, r1
     604:	90 93 13 02 	sts	0x0213, r25
     608:	80 93 12 02 	sts	0x0212, r24
}
     60c:	df 91       	pop	r29
     60e:	cf 91       	pop	r28
     610:	1f 91       	pop	r17
     612:	0f 91       	pop	r16
     614:	08 95       	ret

00000616 <_Z12Compass_Initv>:

void Compass_Init()
{
	compass.writeMagReg(LSM303_MR_REG_M, 0x00); // continuous conversion mode
     616:	8b ec       	ldi	r24, 0xCB	; 203
     618:	92 e0       	ldi	r25, 0x02	; 2
     61a:	62 e0       	ldi	r22, 0x02	; 2
     61c:	40 e0       	ldi	r20, 0x00	; 0
     61e:	0e 94 92 22 	call	0x4524	; 0x4524 <_ZN6LSM30311writeMagRegEhh>
	// 15 Hz default
}
     622:	08 95       	ret

00000624 <setup>:
void Normalize();
void Drift_correction();
void Euler_angles();

void setup()
{
     624:	0f 93       	push	r16
     626:	1f 93       	push	r17
     628:	cf 93       	push	r28
     62a:	df 93       	push	r29
	Serial.begin(115200);
     62c:	81 ea       	ldi	r24, 0xA1	; 161
     62e:	93 e0       	ldi	r25, 0x03	; 3
     630:	40 e0       	ldi	r20, 0x00	; 0
     632:	52 ec       	ldi	r21, 0xC2	; 194
     634:	61 e0       	ldi	r22, 0x01	; 1
     636:	70 e0       	ldi	r23, 0x00	; 0
     638:	0e 94 18 0d 	call	0x1a30	; 0x1a30 <_ZN14HardwareSerial5beginEm>
	pinMode (STATUS_LED,OUTPUT);  // Status LED
     63c:	8d e0       	ldi	r24, 0x0D	; 13
     63e:	61 e0       	ldi	r22, 0x01	; 1
     640:	0e 94 63 1b 	call	0x36c6	; 0x36c6 <pinMode>

	I2C_Init();
     644:	0e 94 d6 01 	call	0x3ac	; 0x3ac <_Z8I2C_Initv>

	Serial.println("Pololu MinIMU-9 + Arduino AHRS");
     648:	81 ea       	ldi	r24, 0xA1	; 161
     64a:	93 e0       	ldi	r25, 0x03	; 3
     64c:	69 e0       	ldi	r22, 0x09	; 9
     64e:	71 e0       	ldi	r23, 0x01	; 1
     650:	0e 94 9f 0f 	call	0x1f3e	; 0x1f3e <_ZN5Print7printlnEPKc>

	digitalWrite(STATUS_LED,LOW);
     654:	8d e0       	ldi	r24, 0x0D	; 13
     656:	60 e0       	ldi	r22, 0x00	; 0
     658:	0e 94 a8 1b 	call	0x3750	; 0x3750 <digitalWrite>
	delay(1500);
     65c:	6c ed       	ldi	r22, 0xDC	; 220
     65e:	75 e0       	ldi	r23, 0x05	; 5
     660:	80 e0       	ldi	r24, 0x00	; 0
     662:	90 e0       	ldi	r25, 0x00	; 0
     664:	0e 94 ca 1a 	call	0x3594	; 0x3594 <delay>

	Accel_Init();
     668:	0e 94 6a 02 	call	0x4d4	; 0x4d4 <_Z10Accel_Initv>
	Compass_Init();
     66c:	0e 94 0b 03 	call	0x616	; 0x616 <_Z12Compass_Initv>
	Gyro_Init();
     670:	0e 94 db 01 	call	0x3b6	; 0x3b6 <_Z9Gyro_Initv>

	delay(20);
     674:	64 e1       	ldi	r22, 0x14	; 20
     676:	70 e0       	ldi	r23, 0x00	; 0
     678:	80 e0       	ldi	r24, 0x00	; 0
     67a:	90 e0       	ldi	r25, 0x00	; 0
     67c:	0e 94 ca 1a 	call	0x3594	; 0x3594 <delay>
     680:	00 e2       	ldi	r16, 0x20	; 32
     682:	10 e0       	ldi	r17, 0x00	; 0

	for(int i=0;i<32;i++)    // We take some readings...
	{
		Read_Gyro();
     684:	0e 94 f1 01 	call	0x3e2	; 0x3e2 <_Z9Read_Gyrov>
		Read_Accel();
     688:	0e 94 92 02 	call	0x524	; 0x524 <_Z10Read_Accelv>
     68c:	a0 ef       	ldi	r26, 0xF0	; 240
     68e:	b1 e0       	ldi	r27, 0x01	; 1
     690:	cc ef       	ldi	r28, 0xFC	; 252
     692:	d1 e0       	ldi	r29, 0x01	; 1
void Matrix_update();
void Normalize();
void Drift_correction();
void Euler_angles();

void setup()
     694:	fe 01       	movw	r30, r28
	for(int i=0;i<32;i++)    // We take some readings...
	{
		Read_Gyro();
		Read_Accel();
		for(int y=0; y<6; y++)   // Cumulate values
			AN_OFFSET[y] += AN[y];
     696:	2d 91       	ld	r18, X+
     698:	3d 91       	ld	r19, X+
     69a:	80 81       	ld	r24, Z
     69c:	91 81       	ldd	r25, Z+1	; 0x01
     69e:	82 0f       	add	r24, r18
     6a0:	93 1f       	adc	r25, r19
     6a2:	81 93       	st	Z+, r24
     6a4:	91 93       	st	Z+, r25

	for(int i=0;i<32;i++)    // We take some readings...
	{
		Read_Gyro();
		Read_Accel();
		for(int y=0; y<6; y++)   // Cumulate values
     6a6:	81 e0       	ldi	r24, 0x01	; 1
     6a8:	ac 3f       	cpi	r26, 0xFC	; 252
     6aa:	b8 07       	cpc	r27, r24
     6ac:	a1 f7       	brne	.-24     	; 0x696 <setup+0x72>
			AN_OFFSET[y] += AN[y];
		delay(20);
     6ae:	64 e1       	ldi	r22, 0x14	; 20
     6b0:	70 e0       	ldi	r23, 0x00	; 0
     6b2:	80 e0       	ldi	r24, 0x00	; 0
     6b4:	90 e0       	ldi	r25, 0x00	; 0
     6b6:	0e 94 ca 1a 	call	0x3594	; 0x3594 <delay>
     6ba:	01 50       	subi	r16, 0x01	; 1
     6bc:	10 40       	sbci	r17, 0x00	; 0
	Compass_Init();
	Gyro_Init();

	delay(20);

	for(int i=0;i<32;i++)    // We take some readings...
     6be:	11 f7       	brne	.-60     	; 0x684 <setup+0x60>
void Matrix_update();
void Normalize();
void Drift_correction();
void Euler_angles();

void setup()
     6c0:	ec ef       	ldi	r30, 0xFC	; 252
     6c2:	f1 e0       	ldi	r31, 0x01	; 1
			AN_OFFSET[y] += AN[y];
		delay(20);
	}

	for(int y=0; y<6; y++)
		AN_OFFSET[y] = AN_OFFSET[y]/32;
     6c4:	20 e2       	ldi	r18, 0x20	; 32
     6c6:	30 e0       	ldi	r19, 0x00	; 0
     6c8:	80 81       	ld	r24, Z
     6ca:	91 81       	ldd	r25, Z+1	; 0x01
     6cc:	b9 01       	movw	r22, r18
     6ce:	0e 94 2a 2b 	call	0x5654	; 0x5654 <__divmodhi4>
     6d2:	61 93       	st	Z+, r22
     6d4:	71 93       	st	Z+, r23
		for(int y=0; y<6; y++)   // Cumulate values
			AN_OFFSET[y] += AN[y];
		delay(20);
	}

	for(int y=0; y<6; y++)
     6d6:	82 e0       	ldi	r24, 0x02	; 2
     6d8:	e8 30       	cpi	r30, 0x08	; 8
     6da:	f8 07       	cpc	r31, r24
     6dc:	a9 f7       	brne	.-22     	; 0x6c8 <setup+0xa4>
		AN_OFFSET[y] = AN_OFFSET[y]/32;

	AN_OFFSET[5]-=GRAVITY*SENSOR_SIGN[5];
     6de:	40 91 47 01 	lds	r20, 0x0147
     6e2:	50 91 48 01 	lds	r21, 0x0148
     6e6:	20 e0       	ldi	r18, 0x00	; 0
     6e8:	3f ef       	ldi	r19, 0xFF	; 255
     6ea:	42 9f       	mul	r20, r18
     6ec:	c0 01       	movw	r24, r0
     6ee:	43 9f       	mul	r20, r19
     6f0:	90 0d       	add	r25, r0
     6f2:	52 9f       	mul	r21, r18
     6f4:	90 0d       	add	r25, r0
     6f6:	11 24       	eor	r1, r1
     6f8:	20 91 06 02 	lds	r18, 0x0206
     6fc:	30 91 07 02 	lds	r19, 0x0207
     700:	82 0f       	add	r24, r18
     702:	93 1f       	adc	r25, r19
     704:	90 93 07 02 	sts	0x0207, r25
     708:	80 93 06 02 	sts	0x0206, r24

	//Serial.println("Offset:");
	for(int y=0; y<6; y++)
		Serial.println(AN_OFFSET[y]);
     70c:	69 91       	ld	r22, Y+
     70e:	79 91       	ld	r23, Y+
     710:	81 ea       	ldi	r24, 0xA1	; 161
     712:	93 e0       	ldi	r25, 0x03	; 3
     714:	4a e0       	ldi	r20, 0x0A	; 10
     716:	50 e0       	ldi	r21, 0x00	; 0
     718:	0e 94 ea 10 	call	0x21d4	; 0x21d4 <_ZN5Print7printlnEii>
		AN_OFFSET[y] = AN_OFFSET[y]/32;

	AN_OFFSET[5]-=GRAVITY*SENSOR_SIGN[5];

	//Serial.println("Offset:");
	for(int y=0; y<6; y++)
     71c:	82 e0       	ldi	r24, 0x02	; 2
     71e:	c8 30       	cpi	r28, 0x08	; 8
     720:	d8 07       	cpc	r29, r24
     722:	a1 f7       	brne	.-24     	; 0x70c <setup+0xe8>
		Serial.println(AN_OFFSET[y]);

	delay(2000);
     724:	60 ed       	ldi	r22, 0xD0	; 208
     726:	77 e0       	ldi	r23, 0x07	; 7
     728:	80 e0       	ldi	r24, 0x00	; 0
     72a:	90 e0       	ldi	r25, 0x00	; 0
     72c:	0e 94 ca 1a 	call	0x3594	; 0x3594 <delay>
	digitalWrite(STATUS_LED,HIGH);
     730:	8d e0       	ldi	r24, 0x0D	; 13
     732:	61 e0       	ldi	r22, 0x01	; 1
     734:	0e 94 a8 1b 	call	0x3750	; 0x3750 <digitalWrite>

	timer=millis();
     738:	0e 94 96 1a 	call	0x352c	; 0x352c <millis>
     73c:	60 93 e4 01 	sts	0x01E4, r22
     740:	70 93 e5 01 	sts	0x01E5, r23
     744:	80 93 e6 01 	sts	0x01E6, r24
     748:	90 93 e7 01 	sts	0x01E7, r25
	delay(20);
     74c:	64 e1       	ldi	r22, 0x14	; 20
     74e:	70 e0       	ldi	r23, 0x00	; 0
     750:	80 e0       	ldi	r24, 0x00	; 0
     752:	90 e0       	ldi	r25, 0x00	; 0
     754:	0e 94 ca 1a 	call	0x3594	; 0x3594 <delay>
	counter=0;
     758:	10 92 97 02 	sts	0x0297, r1
     75c:	10 92 96 02 	sts	0x0296, r1
}
     760:	df 91       	pop	r29
     762:	cf 91       	pop	r28
     764:	1f 91       	pop	r17
     766:	0f 91       	pop	r16
     768:	08 95       	ret

0000076a <_Z12Read_Compassv>:
	// 15 Hz default
}

void Read_Compass()
{
	compass.readMag();
     76a:	8b ec       	ldi	r24, 0xCB	; 203
     76c:	92 e0       	ldi	r25, 0x02	; 2
     76e:	0e 94 ee 23 	call	0x47dc	; 0x47dc <_ZN6LSM3037readMagEv>

	magnetom_x = SENSOR_SIGN[6] * compass.m.x;
     772:	60 91 49 01 	lds	r22, 0x0149
     776:	70 91 4a 01 	lds	r23, 0x014A
     77a:	88 27       	eor	r24, r24
     77c:	77 fd       	sbrc	r23, 7
     77e:	80 95       	com	r24
     780:	98 2f       	mov	r25, r24
     782:	0e 94 1e 29 	call	0x523c	; 0x523c <__floatsisf>
     786:	20 91 d7 02 	lds	r18, 0x02D7
     78a:	30 91 d8 02 	lds	r19, 0x02D8
     78e:	40 91 d9 02 	lds	r20, 0x02D9
     792:	50 91 da 02 	lds	r21, 0x02DA
     796:	0e 94 63 2a 	call	0x54c6	; 0x54c6 <__mulsf3>
     79a:	0e 94 eb 28 	call	0x51d6	; 0x51d6 <__fixsfsi>
     79e:	70 93 15 02 	sts	0x0215, r23
     7a2:	60 93 14 02 	sts	0x0214, r22
	magnetom_y = SENSOR_SIGN[7] * compass.m.y;
     7a6:	60 91 4b 01 	lds	r22, 0x014B
     7aa:	70 91 4c 01 	lds	r23, 0x014C
     7ae:	88 27       	eor	r24, r24
     7b0:	77 fd       	sbrc	r23, 7
     7b2:	80 95       	com	r24
     7b4:	98 2f       	mov	r25, r24
     7b6:	0e 94 1e 29 	call	0x523c	; 0x523c <__floatsisf>
     7ba:	20 91 db 02 	lds	r18, 0x02DB
     7be:	30 91 dc 02 	lds	r19, 0x02DC
     7c2:	40 91 dd 02 	lds	r20, 0x02DD
     7c6:	50 91 de 02 	lds	r21, 0x02DE
     7ca:	0e 94 63 2a 	call	0x54c6	; 0x54c6 <__mulsf3>
     7ce:	0e 94 eb 28 	call	0x51d6	; 0x51d6 <__fixsfsi>
     7d2:	70 93 17 02 	sts	0x0217, r23
     7d6:	60 93 16 02 	sts	0x0216, r22
	magnetom_z = SENSOR_SIGN[8] * compass.m.z;
     7da:	60 91 4d 01 	lds	r22, 0x014D
     7de:	70 91 4e 01 	lds	r23, 0x014E
     7e2:	88 27       	eor	r24, r24
     7e4:	77 fd       	sbrc	r23, 7
     7e6:	80 95       	com	r24
     7e8:	98 2f       	mov	r25, r24
     7ea:	0e 94 1e 29 	call	0x523c	; 0x523c <__floatsisf>
     7ee:	20 91 df 02 	lds	r18, 0x02DF
     7f2:	30 91 e0 02 	lds	r19, 0x02E0
     7f6:	40 91 e1 02 	lds	r20, 0x02E1
     7fa:	50 91 e2 02 	lds	r21, 0x02E2
     7fe:	0e 94 63 2a 	call	0x54c6	; 0x54c6 <__mulsf3>
     802:	0e 94 eb 28 	call	0x51d6	; 0x51d6 <__fixsfsi>
     806:	70 93 19 02 	sts	0x0219, r23
     80a:	60 93 18 02 	sts	0x0218, r22
}
     80e:	08 95       	ret

00000810 <_Z18Vector_Dot_ProductPfS_>:

 */

//Computes the dot product of two vectors
float Vector_Dot_Product(float vector1[3],float vector2[3])
{
     810:	af 92       	push	r10
     812:	bf 92       	push	r11
     814:	cf 92       	push	r12
     816:	df 92       	push	r13
     818:	ef 92       	push	r14
     81a:	ff 92       	push	r15
     81c:	0f 93       	push	r16
     81e:	1f 93       	push	r17
     820:	cf 93       	push	r28
     822:	df 93       	push	r29
	float op=0;
     824:	c8 2e       	mov	r12, r24
     826:	d9 2e       	mov	r13, r25
     828:	a6 2e       	mov	r10, r22
     82a:	b7 2e       	mov	r11, r23

 */

//Computes the dot product of two vectors
float Vector_Dot_Product(float vector1[3],float vector2[3])
{
     82c:	c3 e0       	ldi	r28, 0x03	; 3
     82e:	d0 e0       	ldi	r29, 0x00	; 0
	float op=0;
     830:	10 e0       	ldi	r17, 0x00	; 0
     832:	00 e0       	ldi	r16, 0x00	; 0
     834:	ff 24       	eor	r15, r15
     836:	ee 24       	eor	r14, r14

	for(int c=0; c<3; c++)
	{
		op+=vector1[c]*vector2[c];
     838:	f6 01       	movw	r30, r12
     83a:	61 91       	ld	r22, Z+
     83c:	71 91       	ld	r23, Z+
     83e:	81 91       	ld	r24, Z+
     840:	91 91       	ld	r25, Z+
     842:	6f 01       	movw	r12, r30
     844:	f5 01       	movw	r30, r10
     846:	21 91       	ld	r18, Z+
     848:	31 91       	ld	r19, Z+
     84a:	41 91       	ld	r20, Z+
     84c:	51 91       	ld	r21, Z+
     84e:	5f 01       	movw	r10, r30
     850:	0e 94 63 2a 	call	0x54c6	; 0x54c6 <__mulsf3>
     854:	9b 01       	movw	r18, r22
     856:	ac 01       	movw	r20, r24
     858:	d8 01       	movw	r26, r16
     85a:	f7 01       	movw	r30, r14
     85c:	6b 2f       	mov	r22, r27
     85e:	70 2f       	mov	r23, r16
     860:	8f 2f       	mov	r24, r31
     862:	9e 2d       	mov	r25, r14
     864:	0e 94 9f 27 	call	0x4f3e	; 0x4f3e <__addsf3>
     868:	16 2f       	mov	r17, r22
     86a:	07 2f       	mov	r16, r23
     86c:	f8 2e       	mov	r15, r24
     86e:	e9 2e       	mov	r14, r25
     870:	21 97       	sbiw	r28, 0x01	; 1
//Computes the dot product of two vectors
float Vector_Dot_Product(float vector1[3],float vector2[3])
{
	float op=0;

	for(int c=0; c<3; c++)
     872:	11 f7       	brne	.-60     	; 0x838 <_Z18Vector_Dot_ProductPfS_+0x28>
	{
		op+=vector1[c]*vector2[c];
	}

	return op;
}
     874:	a8 01       	movw	r20, r16
     876:	97 01       	movw	r18, r14
     878:	65 2f       	mov	r22, r21
     87a:	74 2f       	mov	r23, r20
     87c:	83 2f       	mov	r24, r19
     87e:	92 2f       	mov	r25, r18
     880:	df 91       	pop	r29
     882:	cf 91       	pop	r28
     884:	1f 91       	pop	r17
     886:	0f 91       	pop	r16
     888:	ff 90       	pop	r15
     88a:	ef 90       	pop	r14
     88c:	df 90       	pop	r13
     88e:	cf 90       	pop	r12
     890:	bf 90       	pop	r11
     892:	af 90       	pop	r10
     894:	08 95       	ret

00000896 <_Z20Vector_Cross_ProductPfS_S_>:

//Computes the cross product of two vectors
void Vector_Cross_Product(float vectorOut[3], float v1[3],float v2[3])
{
     896:	af 92       	push	r10
     898:	bf 92       	push	r11
     89a:	cf 92       	push	r12
     89c:	df 92       	push	r13
     89e:	ef 92       	push	r14
     8a0:	ff 92       	push	r15
     8a2:	0f 93       	push	r16
     8a4:	1f 93       	push	r17
     8a6:	cf 93       	push	r28
     8a8:	df 93       	push	r29
     8aa:	7c 01       	movw	r14, r24
     8ac:	eb 01       	movw	r28, r22
     8ae:	8a 01       	movw	r16, r20
	vectorOut[0]= (v1[1]*v2[2]) - (v1[2]*v2[1]);
     8b0:	6c 81       	ldd	r22, Y+4	; 0x04
     8b2:	7d 81       	ldd	r23, Y+5	; 0x05
     8b4:	8e 81       	ldd	r24, Y+6	; 0x06
     8b6:	9f 81       	ldd	r25, Y+7	; 0x07
     8b8:	fa 01       	movw	r30, r20
     8ba:	20 85       	ldd	r18, Z+8	; 0x08
     8bc:	31 85       	ldd	r19, Z+9	; 0x09
     8be:	42 85       	ldd	r20, Z+10	; 0x0a
     8c0:	53 85       	ldd	r21, Z+11	; 0x0b
     8c2:	0e 94 63 2a 	call	0x54c6	; 0x54c6 <__mulsf3>
     8c6:	5b 01       	movw	r10, r22
     8c8:	6c 01       	movw	r12, r24
     8ca:	68 85       	ldd	r22, Y+8	; 0x08
     8cc:	79 85       	ldd	r23, Y+9	; 0x09
     8ce:	8a 85       	ldd	r24, Y+10	; 0x0a
     8d0:	9b 85       	ldd	r25, Y+11	; 0x0b
     8d2:	f8 01       	movw	r30, r16
     8d4:	24 81       	ldd	r18, Z+4	; 0x04
     8d6:	35 81       	ldd	r19, Z+5	; 0x05
     8d8:	46 81       	ldd	r20, Z+6	; 0x06
     8da:	57 81       	ldd	r21, Z+7	; 0x07
     8dc:	0e 94 63 2a 	call	0x54c6	; 0x54c6 <__mulsf3>
     8e0:	9b 01       	movw	r18, r22
     8e2:	ac 01       	movw	r20, r24
     8e4:	c6 01       	movw	r24, r12
     8e6:	b5 01       	movw	r22, r10
     8e8:	0e 94 9e 27 	call	0x4f3c	; 0x4f3c <__subsf3>
     8ec:	f7 01       	movw	r30, r14
     8ee:	60 83       	st	Z, r22
     8f0:	71 83       	std	Z+1, r23	; 0x01
     8f2:	82 83       	std	Z+2, r24	; 0x02
     8f4:	93 83       	std	Z+3, r25	; 0x03
	vectorOut[1]= (v1[2]*v2[0]) - (v1[0]*v2[2]);
     8f6:	68 85       	ldd	r22, Y+8	; 0x08
     8f8:	79 85       	ldd	r23, Y+9	; 0x09
     8fa:	8a 85       	ldd	r24, Y+10	; 0x0a
     8fc:	9b 85       	ldd	r25, Y+11	; 0x0b
     8fe:	f8 01       	movw	r30, r16
     900:	20 81       	ld	r18, Z
     902:	31 81       	ldd	r19, Z+1	; 0x01
     904:	42 81       	ldd	r20, Z+2	; 0x02
     906:	53 81       	ldd	r21, Z+3	; 0x03
     908:	0e 94 63 2a 	call	0x54c6	; 0x54c6 <__mulsf3>
     90c:	5b 01       	movw	r10, r22
     90e:	6c 01       	movw	r12, r24
     910:	68 81       	ld	r22, Y
     912:	79 81       	ldd	r23, Y+1	; 0x01
     914:	8a 81       	ldd	r24, Y+2	; 0x02
     916:	9b 81       	ldd	r25, Y+3	; 0x03
     918:	f8 01       	movw	r30, r16
     91a:	20 85       	ldd	r18, Z+8	; 0x08
     91c:	31 85       	ldd	r19, Z+9	; 0x09
     91e:	42 85       	ldd	r20, Z+10	; 0x0a
     920:	53 85       	ldd	r21, Z+11	; 0x0b
     922:	0e 94 63 2a 	call	0x54c6	; 0x54c6 <__mulsf3>
     926:	9b 01       	movw	r18, r22
     928:	ac 01       	movw	r20, r24
     92a:	c6 01       	movw	r24, r12
     92c:	b5 01       	movw	r22, r10
     92e:	0e 94 9e 27 	call	0x4f3c	; 0x4f3c <__subsf3>
     932:	f7 01       	movw	r30, r14
     934:	64 83       	std	Z+4, r22	; 0x04
     936:	75 83       	std	Z+5, r23	; 0x05
     938:	86 83       	std	Z+6, r24	; 0x06
     93a:	97 83       	std	Z+7, r25	; 0x07
	vectorOut[2]= (v1[0]*v2[1]) - (v1[1]*v2[0]);
     93c:	68 81       	ld	r22, Y
     93e:	79 81       	ldd	r23, Y+1	; 0x01
     940:	8a 81       	ldd	r24, Y+2	; 0x02
     942:	9b 81       	ldd	r25, Y+3	; 0x03
     944:	f8 01       	movw	r30, r16
     946:	24 81       	ldd	r18, Z+4	; 0x04
     948:	35 81       	ldd	r19, Z+5	; 0x05
     94a:	46 81       	ldd	r20, Z+6	; 0x06
     94c:	57 81       	ldd	r21, Z+7	; 0x07
     94e:	0e 94 63 2a 	call	0x54c6	; 0x54c6 <__mulsf3>
     952:	5b 01       	movw	r10, r22
     954:	6c 01       	movw	r12, r24
     956:	6c 81       	ldd	r22, Y+4	; 0x04
     958:	7d 81       	ldd	r23, Y+5	; 0x05
     95a:	8e 81       	ldd	r24, Y+6	; 0x06
     95c:	9f 81       	ldd	r25, Y+7	; 0x07
     95e:	f8 01       	movw	r30, r16
     960:	20 81       	ld	r18, Z
     962:	31 81       	ldd	r19, Z+1	; 0x01
     964:	42 81       	ldd	r20, Z+2	; 0x02
     966:	53 81       	ldd	r21, Z+3	; 0x03
     968:	0e 94 63 2a 	call	0x54c6	; 0x54c6 <__mulsf3>
     96c:	9b 01       	movw	r18, r22
     96e:	ac 01       	movw	r20, r24
     970:	c6 01       	movw	r24, r12
     972:	b5 01       	movw	r22, r10
     974:	0e 94 9e 27 	call	0x4f3c	; 0x4f3c <__subsf3>
     978:	f7 01       	movw	r30, r14
     97a:	60 87       	std	Z+8, r22	; 0x08
     97c:	71 87       	std	Z+9, r23	; 0x09
     97e:	82 87       	std	Z+10, r24	; 0x0a
     980:	93 87       	std	Z+11, r25	; 0x0b
}
     982:	df 91       	pop	r29
     984:	cf 91       	pop	r28
     986:	1f 91       	pop	r17
     988:	0f 91       	pop	r16
     98a:	ff 90       	pop	r15
     98c:	ef 90       	pop	r14
     98e:	df 90       	pop	r13
     990:	cf 90       	pop	r12
     992:	bf 90       	pop	r11
     994:	af 90       	pop	r10
     996:	08 95       	ret

00000998 <_Z12Vector_ScalePfS_f>:

//Multiply the vector by a scalar.
void Vector_Scale(float vectorOut[3],float vectorIn[3], float scale2)
{
     998:	cf 92       	push	r12
     99a:	df 92       	push	r13
     99c:	ef 92       	push	r14
     99e:	ff 92       	push	r15
     9a0:	0f 93       	push	r16
     9a2:	1f 93       	push	r17
     9a4:	cf 93       	push	r28
     9a6:	df 93       	push	r29
     9a8:	6c 01       	movw	r12, r24
     9aa:	eb 01       	movw	r28, r22
     9ac:	79 01       	movw	r14, r18
     9ae:	8a 01       	movw	r16, r20
	for(int c=0; c<3; c++)
	{
		vectorOut[c]=vectorIn[c]*scale2;
     9b0:	68 81       	ld	r22, Y
     9b2:	79 81       	ldd	r23, Y+1	; 0x01
     9b4:	8a 81       	ldd	r24, Y+2	; 0x02
     9b6:	9b 81       	ldd	r25, Y+3	; 0x03
     9b8:	0e 94 63 2a 	call	0x54c6	; 0x54c6 <__mulsf3>
     9bc:	f6 01       	movw	r30, r12
     9be:	60 83       	st	Z, r22
     9c0:	71 83       	std	Z+1, r23	; 0x01
     9c2:	82 83       	std	Z+2, r24	; 0x02
     9c4:	93 83       	std	Z+3, r25	; 0x03
     9c6:	6c 81       	ldd	r22, Y+4	; 0x04
     9c8:	7d 81       	ldd	r23, Y+5	; 0x05
     9ca:	8e 81       	ldd	r24, Y+6	; 0x06
     9cc:	9f 81       	ldd	r25, Y+7	; 0x07
     9ce:	a8 01       	movw	r20, r16
     9d0:	97 01       	movw	r18, r14
     9d2:	0e 94 63 2a 	call	0x54c6	; 0x54c6 <__mulsf3>
     9d6:	f6 01       	movw	r30, r12
     9d8:	64 83       	std	Z+4, r22	; 0x04
     9da:	75 83       	std	Z+5, r23	; 0x05
     9dc:	86 83       	std	Z+6, r24	; 0x06
     9de:	97 83       	std	Z+7, r25	; 0x07
     9e0:	68 85       	ldd	r22, Y+8	; 0x08
     9e2:	79 85       	ldd	r23, Y+9	; 0x09
     9e4:	8a 85       	ldd	r24, Y+10	; 0x0a
     9e6:	9b 85       	ldd	r25, Y+11	; 0x0b
     9e8:	a8 01       	movw	r20, r16
     9ea:	97 01       	movw	r18, r14
     9ec:	0e 94 63 2a 	call	0x54c6	; 0x54c6 <__mulsf3>
     9f0:	f6 01       	movw	r30, r12
     9f2:	60 87       	std	Z+8, r22	; 0x08
     9f4:	71 87       	std	Z+9, r23	; 0x09
     9f6:	82 87       	std	Z+10, r24	; 0x0a
     9f8:	93 87       	std	Z+11, r25	; 0x0b
	}
}
     9fa:	df 91       	pop	r29
     9fc:	cf 91       	pop	r28
     9fe:	1f 91       	pop	r17
     a00:	0f 91       	pop	r16
     a02:	ff 90       	pop	r15
     a04:	ef 90       	pop	r14
     a06:	df 90       	pop	r13
     a08:	cf 90       	pop	r12
     a0a:	08 95       	ret

00000a0c <_Z10Vector_AddPfS_S_>:

void Vector_Add(float vectorOut[3],float vectorIn1[3], float vectorIn2[3])
{
     a0c:	cf 92       	push	r12
     a0e:	df 92       	push	r13
     a10:	ef 92       	push	r14
     a12:	ff 92       	push	r15
     a14:	0f 93       	push	r16
     a16:	1f 93       	push	r17
     a18:	cf 93       	push	r28
     a1a:	df 93       	push	r29
	for(int c=0; c<3; c++)
     a1c:	06 2f       	mov	r16, r22
     a1e:	17 2f       	mov	r17, r23
     a20:	e4 2e       	mov	r14, r20
     a22:	f5 2e       	mov	r15, r21
     a24:	c8 2e       	mov	r12, r24
     a26:	d9 2e       	mov	r13, r25
     a28:	c0 e0       	ldi	r28, 0x00	; 0
     a2a:	d0 e0       	ldi	r29, 0x00	; 0
	{
		vectorOut[c]=vectorIn1[c]+vectorIn2[c];
     a2c:	f8 01       	movw	r30, r16
     a2e:	61 91       	ld	r22, Z+
     a30:	71 91       	ld	r23, Z+
     a32:	81 91       	ld	r24, Z+
     a34:	91 91       	ld	r25, Z+
     a36:	8f 01       	movw	r16, r30
     a38:	f7 01       	movw	r30, r14
     a3a:	21 91       	ld	r18, Z+
     a3c:	31 91       	ld	r19, Z+
     a3e:	41 91       	ld	r20, Z+
     a40:	51 91       	ld	r21, Z+
     a42:	7f 01       	movw	r14, r30
     a44:	0e 94 9f 27 	call	0x4f3e	; 0x4f3e <__addsf3>
     a48:	f6 01       	movw	r30, r12
     a4a:	61 93       	st	Z+, r22
     a4c:	71 93       	st	Z+, r23
     a4e:	81 93       	st	Z+, r24
     a50:	91 93       	st	Z+, r25
     a52:	6f 01       	movw	r12, r30
	}
}

void Vector_Add(float vectorOut[3],float vectorIn1[3], float vectorIn2[3])
{
	for(int c=0; c<3; c++)
     a54:	21 96       	adiw	r28, 0x01	; 1
     a56:	c3 30       	cpi	r28, 0x03	; 3
     a58:	d1 05       	cpc	r29, r1
     a5a:	41 f7       	brne	.-48     	; 0xa2c <_Z10Vector_AddPfS_S_+0x20>
	{
		vectorOut[c]=vectorIn1[c]+vectorIn2[c];
	}
}
     a5c:	df 91       	pop	r29
     a5e:	cf 91       	pop	r28
     a60:	1f 91       	pop	r17
     a62:	0f 91       	pop	r16
     a64:	ff 90       	pop	r15
     a66:	ef 90       	pop	r14
     a68:	df 90       	pop	r13
     a6a:	cf 90       	pop	r12
     a6c:	08 95       	ret

00000a6e <_Z9Normalizev>:

 */

/**************************************************/
void Normalize(void)
{
     a6e:	6f 92       	push	r6
     a70:	7f 92       	push	r7
     a72:	8f 92       	push	r8
     a74:	9f 92       	push	r9
     a76:	af 92       	push	r10
     a78:	bf 92       	push	r11
     a7a:	cf 92       	push	r12
     a7c:	df 92       	push	r13
     a7e:	ef 92       	push	r14
     a80:	ff 92       	push	r15
     a82:	0f 93       	push	r16
     a84:	1f 93       	push	r17
     a86:	df 93       	push	r29
     a88:	cf 93       	push	r28
     a8a:	cd b7       	in	r28, 0x3d	; 61
     a8c:	de b7       	in	r29, 0x3e	; 62
     a8e:	a4 97       	sbiw	r28, 0x24	; 36
     a90:	0f b6       	in	r0, 0x3f	; 63
     a92:	f8 94       	cli
     a94:	de bf       	out	0x3e, r29	; 62
     a96:	0f be       	out	0x3f, r0	; 63
     a98:	cd bf       	out	0x3d, r28	; 61
	float error=0;
	float temporary[3][3];
	float renorm=0;

	error= -Vector_Dot_Product(&DCM_Matrix[0][0],&DCM_Matrix[1][0])*.5; //eq.19
     a9a:	53 e5       	ldi	r21, 0x53	; 83
     a9c:	c5 2e       	mov	r12, r21
     a9e:	51 e0       	ldi	r21, 0x01	; 1
     aa0:	d5 2e       	mov	r13, r21
     aa2:	4c e0       	ldi	r20, 0x0C	; 12
     aa4:	64 2e       	mov	r6, r20
     aa6:	71 2c       	mov	r7, r1
     aa8:	6c 0c       	add	r6, r12
     aaa:	7d 1c       	adc	r7, r13
     aac:	c6 01       	movw	r24, r12
     aae:	b3 01       	movw	r22, r6
     ab0:	0e 94 08 04 	call	0x810	; 0x810 <_Z18Vector_Dot_ProductPfS_>
     ab4:	90 58       	subi	r25, 0x80	; 128
     ab6:	20 e0       	ldi	r18, 0x00	; 0
     ab8:	30 e0       	ldi	r19, 0x00	; 0
     aba:	40 e0       	ldi	r20, 0x00	; 0
     abc:	5f e3       	ldi	r21, 0x3F	; 63
     abe:	0e 94 63 2a 	call	0x54c6	; 0x54c6 <__mulsf3>
     ac2:	5b 01       	movw	r10, r22
     ac4:	98 2e       	mov	r9, r24
     ac6:	89 2e       	mov	r8, r25

	Vector_Scale(&temporary[0][0], &DCM_Matrix[1][0], error); //eq.19
     ac8:	8e 01       	movw	r16, r28
     aca:	0f 5f       	subi	r16, 0xFF	; 255
     acc:	1f 4f       	sbci	r17, 0xFF	; 255
     ace:	c8 01       	movw	r24, r16
     ad0:	b3 01       	movw	r22, r6
     ad2:	f4 01       	movw	r30, r8
     ad4:	2a 2d       	mov	r18, r10
     ad6:	3b 2d       	mov	r19, r11
     ad8:	4f 2f       	mov	r20, r31
     ada:	5e 2f       	mov	r21, r30
     adc:	0e 94 cc 04 	call	0x998	; 0x998 <_Z12Vector_ScalePfS_f>
	Vector_Scale(&temporary[1][0], &DCM_Matrix[0][0], error); //eq.19
     ae0:	3d e0       	ldi	r19, 0x0D	; 13
     ae2:	e3 2e       	mov	r14, r19
     ae4:	f1 2c       	mov	r15, r1
     ae6:	ec 0e       	add	r14, r28
     ae8:	fd 1e       	adc	r15, r29
     aea:	c7 01       	movw	r24, r14
     aec:	b6 01       	movw	r22, r12
     aee:	f4 01       	movw	r30, r8
     af0:	2a 2d       	mov	r18, r10
     af2:	3b 2d       	mov	r19, r11
     af4:	4f 2f       	mov	r20, r31
     af6:	5e 2f       	mov	r21, r30
     af8:	0e 94 cc 04 	call	0x998	; 0x998 <_Z12Vector_ScalePfS_f>

	Vector_Add(&temporary[0][0], &temporary[0][0], &DCM_Matrix[0][0]);//eq.19
     afc:	c8 01       	movw	r24, r16
     afe:	b8 01       	movw	r22, r16
     b00:	a6 01       	movw	r20, r12
     b02:	0e 94 06 05 	call	0xa0c	; 0xa0c <_Z10Vector_AddPfS_S_>
	Vector_Add(&temporary[1][0], &temporary[1][0], &DCM_Matrix[1][0]);//eq.19
     b06:	c7 01       	movw	r24, r14
     b08:	b7 01       	movw	r22, r14
     b0a:	a3 01       	movw	r20, r6
     b0c:	0e 94 06 05 	call	0xa0c	; 0xa0c <_Z10Vector_AddPfS_S_>

	Vector_Cross_Product(&temporary[2][0],&temporary[0][0],&temporary[1][0]); // c= a x b //eq.20
     b10:	29 e1       	ldi	r18, 0x19	; 25
     b12:	a2 2e       	mov	r10, r18
     b14:	b1 2c       	mov	r11, r1
     b16:	ac 0e       	add	r10, r28
     b18:	bd 1e       	adc	r11, r29
     b1a:	c5 01       	movw	r24, r10
     b1c:	b8 01       	movw	r22, r16
     b1e:	a7 01       	movw	r20, r14
     b20:	0e 94 4b 04 	call	0x896	; 0x896 <_Z20Vector_Cross_ProductPfS_S_>

	renorm= .5 *(3 - Vector_Dot_Product(&temporary[0][0],&temporary[0][0])); //eq.21
     b24:	c8 01       	movw	r24, r16
     b26:	b8 01       	movw	r22, r16
     b28:	0e 94 08 04 	call	0x810	; 0x810 <_Z18Vector_Dot_ProductPfS_>
     b2c:	9b 01       	movw	r18, r22
     b2e:	ac 01       	movw	r20, r24
     b30:	60 e0       	ldi	r22, 0x00	; 0
     b32:	70 e0       	ldi	r23, 0x00	; 0
     b34:	80 e4       	ldi	r24, 0x40	; 64
     b36:	90 e4       	ldi	r25, 0x40	; 64
     b38:	0e 94 9e 27 	call	0x4f3c	; 0x4f3c <__subsf3>
     b3c:	20 e0       	ldi	r18, 0x00	; 0
     b3e:	30 e0       	ldi	r19, 0x00	; 0
     b40:	40 e0       	ldi	r20, 0x00	; 0
     b42:	5f e3       	ldi	r21, 0x3F	; 63
     b44:	0e 94 63 2a 	call	0x54c6	; 0x54c6 <__mulsf3>
     b48:	9b 01       	movw	r18, r22
     b4a:	ac 01       	movw	r20, r24
	Vector_Scale(&DCM_Matrix[0][0], &temporary[0][0], renorm);
     b4c:	c6 01       	movw	r24, r12
     b4e:	b8 01       	movw	r22, r16
     b50:	0e 94 cc 04 	call	0x998	; 0x998 <_Z12Vector_ScalePfS_f>

	renorm= .5 *(3 - Vector_Dot_Product(&temporary[1][0],&temporary[1][0])); //eq.21
     b54:	c7 01       	movw	r24, r14
     b56:	b7 01       	movw	r22, r14
     b58:	0e 94 08 04 	call	0x810	; 0x810 <_Z18Vector_Dot_ProductPfS_>
     b5c:	9b 01       	movw	r18, r22
     b5e:	ac 01       	movw	r20, r24
     b60:	60 e0       	ldi	r22, 0x00	; 0
     b62:	70 e0       	ldi	r23, 0x00	; 0
     b64:	80 e4       	ldi	r24, 0x40	; 64
     b66:	90 e4       	ldi	r25, 0x40	; 64
     b68:	0e 94 9e 27 	call	0x4f3c	; 0x4f3c <__subsf3>
     b6c:	20 e0       	ldi	r18, 0x00	; 0
     b6e:	30 e0       	ldi	r19, 0x00	; 0
     b70:	40 e0       	ldi	r20, 0x00	; 0
     b72:	5f e3       	ldi	r21, 0x3F	; 63
     b74:	0e 94 63 2a 	call	0x54c6	; 0x54c6 <__mulsf3>
     b78:	9b 01       	movw	r18, r22
     b7a:	ac 01       	movw	r20, r24
	Vector_Scale(&DCM_Matrix[1][0], &temporary[1][0], renorm);
     b7c:	c3 01       	movw	r24, r6
     b7e:	b7 01       	movw	r22, r14
     b80:	0e 94 cc 04 	call	0x998	; 0x998 <_Z12Vector_ScalePfS_f>

	renorm= .5 *(3 - Vector_Dot_Product(&temporary[2][0],&temporary[2][0])); //eq.21
     b84:	c5 01       	movw	r24, r10
     b86:	b5 01       	movw	r22, r10
     b88:	0e 94 08 04 	call	0x810	; 0x810 <_Z18Vector_Dot_ProductPfS_>
     b8c:	9b 01       	movw	r18, r22
     b8e:	ac 01       	movw	r20, r24
     b90:	60 e0       	ldi	r22, 0x00	; 0
     b92:	70 e0       	ldi	r23, 0x00	; 0
     b94:	80 e4       	ldi	r24, 0x40	; 64
     b96:	90 e4       	ldi	r25, 0x40	; 64
     b98:	0e 94 9e 27 	call	0x4f3c	; 0x4f3c <__subsf3>
     b9c:	20 e0       	ldi	r18, 0x00	; 0
     b9e:	30 e0       	ldi	r19, 0x00	; 0
     ba0:	40 e0       	ldi	r20, 0x00	; 0
     ba2:	5f e3       	ldi	r21, 0x3F	; 63
     ba4:	0e 94 63 2a 	call	0x54c6	; 0x54c6 <__mulsf3>
     ba8:	9b 01       	movw	r18, r22
     baa:	ac 01       	movw	r20, r24
	Vector_Scale(&DCM_Matrix[2][0], &temporary[2][0], renorm);
     bac:	8b e6       	ldi	r24, 0x6B	; 107
     bae:	91 e0       	ldi	r25, 0x01	; 1
     bb0:	b5 01       	movw	r22, r10
     bb2:	0e 94 cc 04 	call	0x998	; 0x998 <_Z12Vector_ScalePfS_f>
}
     bb6:	a4 96       	adiw	r28, 0x24	; 36
     bb8:	0f b6       	in	r0, 0x3f	; 63
     bba:	f8 94       	cli
     bbc:	de bf       	out	0x3e, r29	; 62
     bbe:	0f be       	out	0x3f, r0	; 63
     bc0:	cd bf       	out	0x3d, r28	; 61
     bc2:	cf 91       	pop	r28
     bc4:	df 91       	pop	r29
     bc6:	1f 91       	pop	r17
     bc8:	0f 91       	pop	r16
     bca:	ff 90       	pop	r15
     bcc:	ef 90       	pop	r14
     bce:	df 90       	pop	r13
     bd0:	cf 90       	pop	r12
     bd2:	bf 90       	pop	r11
     bd4:	af 90       	pop	r10
     bd6:	9f 90       	pop	r9
     bd8:	8f 90       	pop	r8
     bda:	7f 90       	pop	r7
     bdc:	6f 90       	pop	r6
     bde:	08 95       	ret

00000be0 <_Z16Drift_correctionv>:

/**************************************************/
void Drift_correction(void)
{
     be0:	6f 92       	push	r6
     be2:	7f 92       	push	r7
     be4:	8f 92       	push	r8
     be6:	9f 92       	push	r9
     be8:	af 92       	push	r10
     bea:	bf 92       	push	r11
     bec:	cf 92       	push	r12
     bee:	df 92       	push	r13
     bf0:	ef 92       	push	r14
     bf2:	ff 92       	push	r15
     bf4:	0f 93       	push	r16
     bf6:	1f 93       	push	r17


	//*****Roll and Pitch***************

	// Calculate the magnitude of the accelerometer vector
	Accel_magnitude = sqrt(Accel_Vector[0]*Accel_Vector[0] + Accel_Vector[1]*Accel_Vector[1] + Accel_Vector[2]*Accel_Vector[2]);
     bf8:	20 91 2a 02 	lds	r18, 0x022A
     bfc:	30 91 2b 02 	lds	r19, 0x022B
     c00:	40 91 2c 02 	lds	r20, 0x022C
     c04:	50 91 2d 02 	lds	r21, 0x022D
     c08:	e0 90 2e 02 	lds	r14, 0x022E
     c0c:	f0 90 2f 02 	lds	r15, 0x022F
     c10:	00 91 30 02 	lds	r16, 0x0230
     c14:	10 91 31 02 	lds	r17, 0x0231
     c18:	a0 90 32 02 	lds	r10, 0x0232
     c1c:	b0 90 33 02 	lds	r11, 0x0233
     c20:	c0 90 34 02 	lds	r12, 0x0234
     c24:	d0 90 35 02 	lds	r13, 0x0235
     c28:	ca 01       	movw	r24, r20
     c2a:	b9 01       	movw	r22, r18
     c2c:	0e 94 63 2a 	call	0x54c6	; 0x54c6 <__mulsf3>
     c30:	3b 01       	movw	r6, r22
     c32:	4c 01       	movw	r8, r24
     c34:	c8 01       	movw	r24, r16
     c36:	b7 01       	movw	r22, r14
     c38:	a8 01       	movw	r20, r16
     c3a:	97 01       	movw	r18, r14
     c3c:	0e 94 63 2a 	call	0x54c6	; 0x54c6 <__mulsf3>
     c40:	9b 01       	movw	r18, r22
     c42:	ac 01       	movw	r20, r24
     c44:	c4 01       	movw	r24, r8
     c46:	b3 01       	movw	r22, r6
     c48:	0e 94 9f 27 	call	0x4f3e	; 0x4f3e <__addsf3>
     c4c:	7b 01       	movw	r14, r22
     c4e:	8c 01       	movw	r16, r24
     c50:	c6 01       	movw	r24, r12
     c52:	b5 01       	movw	r22, r10
     c54:	a6 01       	movw	r20, r12
     c56:	95 01       	movw	r18, r10
     c58:	0e 94 63 2a 	call	0x54c6	; 0x54c6 <__mulsf3>
     c5c:	9b 01       	movw	r18, r22
     c5e:	ac 01       	movw	r20, r24
     c60:	c8 01       	movw	r24, r16
     c62:	b7 01       	movw	r22, r14
     c64:	0e 94 9f 27 	call	0x4f3e	; 0x4f3e <__addsf3>
     c68:	0e 94 d0 2a 	call	0x55a0	; 0x55a0 <sqrt>
	Accel_magnitude = Accel_magnitude / GRAVITY; // Scale to gravity.
     c6c:	20 e0       	ldi	r18, 0x00	; 0
     c6e:	30 e0       	ldi	r19, 0x00	; 0
     c70:	40 e8       	ldi	r20, 0x80	; 128
     c72:	5b e3       	ldi	r21, 0x3B	; 59
     c74:	0e 94 63 2a 	call	0x54c6	; 0x54c6 <__mulsf3>
     c78:	9b 01       	movw	r18, r22
     c7a:	ac 01       	movw	r20, r24
	// Dynamic weighting of accelerometer info (reliability filter)
	// Weight for accelerometer info (<0.5G = 0.0, 1G = 1.0 , >1.5G = 0.0)
	Accel_weight = constrain(1 - 2*abs(1 - Accel_magnitude),0,1);  //
     c7c:	60 e0       	ldi	r22, 0x00	; 0
     c7e:	70 e0       	ldi	r23, 0x00	; 0
     c80:	80 e8       	ldi	r24, 0x80	; 128
     c82:	9f e3       	ldi	r25, 0x3F	; 63
     c84:	0e 94 9e 27 	call	0x4f3c	; 0x4f3c <__subsf3>
     c88:	f6 2e       	mov	r15, r22
     c8a:	07 2f       	mov	r16, r23
     c8c:	18 2f       	mov	r17, r24
     c8e:	e9 2e       	mov	r14, r25
     c90:	20 e0       	ldi	r18, 0x00	; 0
     c92:	30 e0       	ldi	r19, 0x00	; 0
     c94:	a9 01       	movw	r20, r18
     c96:	0e 94 58 2a 	call	0x54b0	; 0x54b0 <__gesf2>
     c9a:	18 16       	cp	r1, r24
     c9c:	d4 f4       	brge	.+52     	; 0xcd2 <_Z16Drift_correctionv+0xf2>
     c9e:	6f 2d       	mov	r22, r15
     ca0:	70 2f       	mov	r23, r16
     ca2:	81 2f       	mov	r24, r17
     ca4:	9e 2d       	mov	r25, r14
     ca6:	2f 2d       	mov	r18, r15
     ca8:	30 2f       	mov	r19, r16
     caa:	41 2f       	mov	r20, r17
     cac:	5e 2d       	mov	r21, r14
     cae:	0e 94 9f 27 	call	0x4f3e	; 0x4f3e <__addsf3>
     cb2:	9b 01       	movw	r18, r22
     cb4:	ac 01       	movw	r20, r24
     cb6:	60 e0       	ldi	r22, 0x00	; 0
     cb8:	70 e0       	ldi	r23, 0x00	; 0
     cba:	80 e8       	ldi	r24, 0x80	; 128
     cbc:	9f e3       	ldi	r25, 0x3F	; 63
     cbe:	0e 94 9e 27 	call	0x4f3c	; 0x4f3c <__subsf3>
     cc2:	20 e0       	ldi	r18, 0x00	; 0
     cc4:	30 e0       	ldi	r19, 0x00	; 0
     cc6:	a9 01       	movw	r20, r18
     cc8:	0e 94 7c 28 	call	0x50f8	; 0x50f8 <__cmpsf2>
     ccc:	87 ff       	sbrs	r24, 7
     cce:	19 c0       	rjmp	.+50     	; 0xd02 <_Z16Drift_correctionv+0x122>
     cd0:	75 c0       	rjmp	.+234    	; 0xdbc <_Z16Drift_correctionv+0x1dc>
     cd2:	6f 2d       	mov	r22, r15
     cd4:	70 2f       	mov	r23, r16
     cd6:	81 2f       	mov	r24, r17
     cd8:	9e 2d       	mov	r25, r14
     cda:	2f 2d       	mov	r18, r15
     cdc:	30 2f       	mov	r19, r16
     cde:	41 2f       	mov	r20, r17
     ce0:	5e 2d       	mov	r21, r14
     ce2:	0e 94 9f 27 	call	0x4f3e	; 0x4f3e <__addsf3>
     ce6:	20 e0       	ldi	r18, 0x00	; 0
     ce8:	30 e0       	ldi	r19, 0x00	; 0
     cea:	40 e8       	ldi	r20, 0x80	; 128
     cec:	5f e3       	ldi	r21, 0x3F	; 63
     cee:	0e 94 9f 27 	call	0x4f3e	; 0x4f3e <__addsf3>
     cf2:	20 e0       	ldi	r18, 0x00	; 0
     cf4:	30 e0       	ldi	r19, 0x00	; 0
     cf6:	a9 01       	movw	r20, r18
     cf8:	0e 94 7c 28 	call	0x50f8	; 0x50f8 <__cmpsf2>
     cfc:	87 ff       	sbrs	r24, 7
     cfe:	1d c0       	rjmp	.+58     	; 0xd3a <_Z16Drift_correctionv+0x15a>
     d00:	5d c0       	rjmp	.+186    	; 0xdbc <_Z16Drift_correctionv+0x1dc>
     d02:	6f 2d       	mov	r22, r15
     d04:	70 2f       	mov	r23, r16
     d06:	81 2f       	mov	r24, r17
     d08:	9e 2d       	mov	r25, r14
     d0a:	2f 2d       	mov	r18, r15
     d0c:	30 2f       	mov	r19, r16
     d0e:	41 2f       	mov	r20, r17
     d10:	5e 2d       	mov	r21, r14
     d12:	0e 94 9f 27 	call	0x4f3e	; 0x4f3e <__addsf3>
     d16:	9b 01       	movw	r18, r22
     d18:	ac 01       	movw	r20, r24
     d1a:	60 e0       	ldi	r22, 0x00	; 0
     d1c:	70 e0       	ldi	r23, 0x00	; 0
     d1e:	80 e8       	ldi	r24, 0x80	; 128
     d20:	9f e3       	ldi	r25, 0x3F	; 63
     d22:	0e 94 9e 27 	call	0x4f3c	; 0x4f3c <__subsf3>
     d26:	20 e0       	ldi	r18, 0x00	; 0
     d28:	30 e0       	ldi	r19, 0x00	; 0
     d2a:	40 e8       	ldi	r20, 0x80	; 128
     d2c:	5f e3       	ldi	r21, 0x3F	; 63
     d2e:	0e 94 58 2a 	call	0x54b0	; 0x54b0 <__gesf2>
     d32:	18 16       	cp	r1, r24
     d34:	0c f4       	brge	.+2      	; 0xd38 <_Z16Drift_correctionv+0x158>
     d36:	47 c0       	rjmp	.+142    	; 0xdc6 <_Z16Drift_correctionv+0x1e6>
     d38:	19 c0       	rjmp	.+50     	; 0xd6c <_Z16Drift_correctionv+0x18c>
     d3a:	6f 2d       	mov	r22, r15
     d3c:	70 2f       	mov	r23, r16
     d3e:	81 2f       	mov	r24, r17
     d40:	9e 2d       	mov	r25, r14
     d42:	2f 2d       	mov	r18, r15
     d44:	30 2f       	mov	r19, r16
     d46:	41 2f       	mov	r20, r17
     d48:	5e 2d       	mov	r21, r14
     d4a:	0e 94 9f 27 	call	0x4f3e	; 0x4f3e <__addsf3>
     d4e:	20 e0       	ldi	r18, 0x00	; 0
     d50:	30 e0       	ldi	r19, 0x00	; 0
     d52:	40 e8       	ldi	r20, 0x80	; 128
     d54:	5f e3       	ldi	r21, 0x3F	; 63
     d56:	0e 94 9f 27 	call	0x4f3e	; 0x4f3e <__addsf3>
     d5a:	20 e0       	ldi	r18, 0x00	; 0
     d5c:	30 e0       	ldi	r19, 0x00	; 0
     d5e:	40 e8       	ldi	r20, 0x80	; 128
     d60:	5f e3       	ldi	r21, 0x3F	; 63
     d62:	0e 94 58 2a 	call	0x54b0	; 0x54b0 <__gesf2>
     d66:	18 16       	cp	r1, r24
     d68:	74 f1       	brlt	.+92     	; 0xdc6 <_Z16Drift_correctionv+0x1e6>
     d6a:	13 c0       	rjmp	.+38     	; 0xd92 <_Z16Drift_correctionv+0x1b2>
     d6c:	6f 2d       	mov	r22, r15
     d6e:	70 2f       	mov	r23, r16
     d70:	81 2f       	mov	r24, r17
     d72:	9e 2d       	mov	r25, r14
     d74:	2f 2d       	mov	r18, r15
     d76:	30 2f       	mov	r19, r16
     d78:	41 2f       	mov	r20, r17
     d7a:	5e 2d       	mov	r21, r14
     d7c:	0e 94 9f 27 	call	0x4f3e	; 0x4f3e <__addsf3>
     d80:	9b 01       	movw	r18, r22
     d82:	ac 01       	movw	r20, r24
     d84:	60 e0       	ldi	r22, 0x00	; 0
     d86:	70 e0       	ldi	r23, 0x00	; 0
     d88:	80 e8       	ldi	r24, 0x80	; 128
     d8a:	9f e3       	ldi	r25, 0x3F	; 63
     d8c:	0e 94 9e 27 	call	0x4f3c	; 0x4f3c <__subsf3>
     d90:	10 c0       	rjmp	.+32     	; 0xdb2 <_Z16Drift_correctionv+0x1d2>
     d92:	6f 2d       	mov	r22, r15
     d94:	70 2f       	mov	r23, r16
     d96:	81 2f       	mov	r24, r17
     d98:	9e 2d       	mov	r25, r14
     d9a:	2f 2d       	mov	r18, r15
     d9c:	30 2f       	mov	r19, r16
     d9e:	41 2f       	mov	r20, r17
     da0:	5e 2d       	mov	r21, r14
     da2:	0e 94 9f 27 	call	0x4f3e	; 0x4f3e <__addsf3>
     da6:	20 e0       	ldi	r18, 0x00	; 0
     da8:	30 e0       	ldi	r19, 0x00	; 0
     daa:	40 e8       	ldi	r20, 0x80	; 128
     dac:	5f e3       	ldi	r21, 0x3F	; 63
     dae:	0e 94 9f 27 	call	0x4f3e	; 0x4f3e <__addsf3>
     db2:	f6 2e       	mov	r15, r22
     db4:	07 2f       	mov	r16, r23
     db6:	18 2f       	mov	r17, r24
     db8:	e9 2e       	mov	r14, r25
     dba:	0a c0       	rjmp	.+20     	; 0xdd0 <_Z16Drift_correctionv+0x1f0>
     dbc:	ff 24       	eor	r15, r15
     dbe:	00 e0       	ldi	r16, 0x00	; 0
     dc0:	10 e0       	ldi	r17, 0x00	; 0
     dc2:	ee 24       	eor	r14, r14
     dc4:	05 c0       	rjmp	.+10     	; 0xdd0 <_Z16Drift_correctionv+0x1f0>
     dc6:	ff 24       	eor	r15, r15
     dc8:	00 e0       	ldi	r16, 0x00	; 0
     dca:	10 e8       	ldi	r17, 0x80	; 128
     dcc:	6f e3       	ldi	r22, 0x3F	; 63
     dce:	e6 2e       	mov	r14, r22

	Vector_Cross_Product(&errorRollPitch[0],&Accel_Vector[0],&DCM_Matrix[2][0]); //adjust the ground of reference
     dd0:	8e e7       	ldi	r24, 0x7E	; 126
     dd2:	92 e0       	ldi	r25, 0x02	; 2
     dd4:	6a e2       	ldi	r22, 0x2A	; 42
     dd6:	72 e0       	ldi	r23, 0x02	; 2
     dd8:	4b e6       	ldi	r20, 0x6B	; 107
     dda:	51 e0       	ldi	r21, 0x01	; 1
     ddc:	0e 94 4b 04 	call	0x896	; 0x896 <_Z20Vector_Cross_ProductPfS_S_>
	Vector_Scale(&Omega_P[0],&errorRollPitch[0],Kp_ROLLPITCH*Accel_weight);
     de0:	6f 2d       	mov	r22, r15
     de2:	70 2f       	mov	r23, r16
     de4:	81 2f       	mov	r24, r17
     de6:	9e 2d       	mov	r25, r14
     de8:	2a e0       	ldi	r18, 0x0A	; 10
     dea:	37 ed       	ldi	r19, 0xD7	; 215
     dec:	43 ea       	ldi	r20, 0xA3	; 163
     dee:	5c e3       	ldi	r21, 0x3C	; 60
     df0:	0e 94 63 2a 	call	0x54c6	; 0x54c6 <__mulsf3>
     df4:	9b 01       	movw	r18, r22
     df6:	ac 01       	movw	r20, r24
     df8:	8e e4       	ldi	r24, 0x4E	; 78
     dfa:	92 e0       	ldi	r25, 0x02	; 2
     dfc:	6e e7       	ldi	r22, 0x7E	; 126
     dfe:	72 e0       	ldi	r23, 0x02	; 2
     e00:	0e 94 cc 04 	call	0x998	; 0x998 <_Z12Vector_ScalePfS_f>

	Vector_Scale(&Scaled_Omega_I[0],&errorRollPitch[0],Ki_ROLLPITCH*Accel_weight);
     e04:	6f 2d       	mov	r22, r15
     e06:	70 2f       	mov	r23, r16
     e08:	81 2f       	mov	r24, r17
     e0a:	9e 2d       	mov	r25, r14
     e0c:	2c ea       	ldi	r18, 0xAC	; 172
     e0e:	35 ec       	ldi	r19, 0xC5	; 197
     e10:	47 ea       	ldi	r20, 0xA7	; 167
     e12:	57 e3       	ldi	r21, 0x37	; 55
     e14:	0e 94 63 2a 	call	0x54c6	; 0x54c6 <__mulsf3>
     e18:	9b 01       	movw	r18, r22
     e1a:	ac 01       	movw	r20, r24
     e1c:	81 e0       	ldi	r24, 0x01	; 1
     e1e:	93 e0       	ldi	r25, 0x03	; 3
     e20:	6e e7       	ldi	r22, 0x7E	; 126
     e22:	72 e0       	ldi	r23, 0x02	; 2
     e24:	0e 94 cc 04 	call	0x998	; 0x998 <_Z12Vector_ScalePfS_f>
	Vector_Add(Omega_I,Omega_I,Scaled_Omega_I);
     e28:	8a e5       	ldi	r24, 0x5A	; 90
     e2a:	92 e0       	ldi	r25, 0x02	; 2
     e2c:	bc 01       	movw	r22, r24
     e2e:	41 e0       	ldi	r20, 0x01	; 1
     e30:	53 e0       	ldi	r21, 0x03	; 3
     e32:	0e 94 06 05 	call	0xa0c	; 0xa0c <_Z10Vector_AddPfS_S_>

	//*****YAW***************
	// We make the gyro YAW drift correction based on compass magnetic heading

	mag_heading_x = cos(MAG_Heading);
     e36:	e0 90 26 02 	lds	r14, 0x0226
     e3a:	f0 90 27 02 	lds	r15, 0x0227
     e3e:	00 91 28 02 	lds	r16, 0x0228
     e42:	10 91 29 02 	lds	r17, 0x0229
     e46:	c8 01       	movw	r24, r16
     e48:	b7 01       	movw	r22, r14
     e4a:	0e 94 80 28 	call	0x5100	; 0x5100 <cos>
     e4e:	5b 01       	movw	r10, r22
     e50:	6c 01       	movw	r12, r24
	mag_heading_y = sin(MAG_Heading);
     e52:	c8 01       	movw	r24, r16
     e54:	b7 01       	movw	r22, r14
     e56:	0e 94 c6 2a 	call	0x558c	; 0x558c <sin>
	errorCourse=(DCM_Matrix[0][0]*mag_heading_y) - (DCM_Matrix[1][0]*mag_heading_x);  //Calculating YAW error
     e5a:	20 91 53 01 	lds	r18, 0x0153
     e5e:	30 91 54 01 	lds	r19, 0x0154
     e62:	40 91 55 01 	lds	r20, 0x0155
     e66:	50 91 56 01 	lds	r21, 0x0156
     e6a:	0e 94 63 2a 	call	0x54c6	; 0x54c6 <__mulsf3>
     e6e:	7b 01       	movw	r14, r22
     e70:	8c 01       	movw	r16, r24
     e72:	c6 01       	movw	r24, r12
     e74:	b5 01       	movw	r22, r10
     e76:	20 91 5f 01 	lds	r18, 0x015F
     e7a:	30 91 60 01 	lds	r19, 0x0160
     e7e:	40 91 61 01 	lds	r20, 0x0161
     e82:	50 91 62 01 	lds	r21, 0x0162
     e86:	0e 94 63 2a 	call	0x54c6	; 0x54c6 <__mulsf3>
     e8a:	9b 01       	movw	r18, r22
     e8c:	ac 01       	movw	r20, r24
     e8e:	c8 01       	movw	r24, r16
     e90:	b7 01       	movw	r22, r14
     e92:	0e 94 9e 27 	call	0x4f3c	; 0x4f3c <__subsf3>
     e96:	9b 01       	movw	r18, r22
     e98:	ac 01       	movw	r20, r24
	Vector_Scale(errorYaw,&DCM_Matrix[2][0],errorCourse); //Applys the yaw correction to the XYZ rotation of the aircraft, depeding the position.
     e9a:	8a e8       	ldi	r24, 0x8A	; 138
     e9c:	92 e0       	ldi	r25, 0x02	; 2
     e9e:	6b e6       	ldi	r22, 0x6B	; 107
     ea0:	71 e0       	ldi	r23, 0x01	; 1
     ea2:	0e 94 cc 04 	call	0x998	; 0x998 <_Z12Vector_ScalePfS_f>

	Vector_Scale(&Scaled_Omega_P[0],&errorYaw[0],Kp_YAW);//.01proportional of YAW.
     ea6:	8d e0       	ldi	r24, 0x0D	; 13
     ea8:	93 e0       	ldi	r25, 0x03	; 3
     eaa:	6a e8       	ldi	r22, 0x8A	; 138
     eac:	72 e0       	ldi	r23, 0x02	; 2
     eae:	2a e9       	ldi	r18, 0x9A	; 154
     eb0:	39 e9       	ldi	r19, 0x99	; 153
     eb2:	49 e9       	ldi	r20, 0x99	; 153
     eb4:	5f e3       	ldi	r21, 0x3F	; 63
     eb6:	0e 94 cc 04 	call	0x998	; 0x998 <_Z12Vector_ScalePfS_f>
	Vector_Add(Omega_P,Omega_P,Scaled_Omega_P);//Adding  Proportional.
     eba:	8e e4       	ldi	r24, 0x4E	; 78
     ebc:	92 e0       	ldi	r25, 0x02	; 2
     ebe:	bc 01       	movw	r22, r24
     ec0:	4d e0       	ldi	r20, 0x0D	; 13
     ec2:	53 e0       	ldi	r21, 0x03	; 3
     ec4:	0e 94 06 05 	call	0xa0c	; 0xa0c <_Z10Vector_AddPfS_S_>

	Vector_Scale(&Scaled_Omega_I[0],&errorYaw[0],Ki_YAW);//.00001Integrator
     ec8:	81 e0       	ldi	r24, 0x01	; 1
     eca:	93 e0       	ldi	r25, 0x03	; 3
     ecc:	6a e8       	ldi	r22, 0x8A	; 138
     ece:	72 e0       	ldi	r23, 0x02	; 2
     ed0:	2c ea       	ldi	r18, 0xAC	; 172
     ed2:	35 ec       	ldi	r19, 0xC5	; 197
     ed4:	47 ea       	ldi	r20, 0xA7	; 167
     ed6:	57 e3       	ldi	r21, 0x37	; 55
     ed8:	0e 94 cc 04 	call	0x998	; 0x998 <_Z12Vector_ScalePfS_f>
	Vector_Add(Omega_I,Omega_I,Scaled_Omega_I);//adding integrator to the Omega_I
     edc:	8a e5       	ldi	r24, 0x5A	; 90
     ede:	92 e0       	ldi	r25, 0x02	; 2
     ee0:	bc 01       	movw	r22, r24
     ee2:	41 e0       	ldi	r20, 0x01	; 1
     ee4:	53 e0       	ldi	r21, 0x03	; 3
     ee6:	0e 94 06 05 	call	0xa0c	; 0xa0c <_Z10Vector_AddPfS_S_>
}
     eea:	1f 91       	pop	r17
     eec:	0f 91       	pop	r16
     eee:	ff 90       	pop	r15
     ef0:	ef 90       	pop	r14
     ef2:	df 90       	pop	r13
     ef4:	cf 90       	pop	r12
     ef6:	bf 90       	pop	r11
     ef8:	af 90       	pop	r10
     efa:	9f 90       	pop	r9
     efc:	8f 90       	pop	r8
     efe:	7f 90       	pop	r7
     f00:	6f 90       	pop	r6
     f02:	08 95       	ret

00000f04 <_Z13Matrix_updatev>:
}
 */
/**************************************************/

void Matrix_update(void)
{
     f04:	2f 92       	push	r2
     f06:	3f 92       	push	r3
     f08:	4f 92       	push	r4
     f0a:	5f 92       	push	r5
     f0c:	6f 92       	push	r6
     f0e:	7f 92       	push	r7
     f10:	8f 92       	push	r8
     f12:	9f 92       	push	r9
     f14:	af 92       	push	r10
     f16:	bf 92       	push	r11
     f18:	cf 92       	push	r12
     f1a:	df 92       	push	r13
     f1c:	ef 92       	push	r14
     f1e:	ff 92       	push	r15
     f20:	0f 93       	push	r16
     f22:	1f 93       	push	r17
     f24:	df 93       	push	r29
     f26:	cf 93       	push	r28
     f28:	00 d0       	rcall	.+0      	; 0xf2a <_Z13Matrix_updatev+0x26>
     f2a:	00 d0       	rcall	.+0      	; 0xf2c <_Z13Matrix_updatev+0x28>
     f2c:	cd b7       	in	r28, 0x3d	; 61
     f2e:	de b7       	in	r29, 0x3e	; 62
	Gyro_Vector[0]=Gyro_Scaled_X(gyro_x); //gyro x roll
     f30:	60 91 08 02 	lds	r22, 0x0208
     f34:	70 91 09 02 	lds	r23, 0x0209
     f38:	88 27       	eor	r24, r24
     f3a:	77 fd       	sbrc	r23, 7
     f3c:	80 95       	com	r24
     f3e:	98 2f       	mov	r25, r24
     f40:	0e 94 1e 29 	call	0x523c	; 0x523c <__floatsisf>
     f44:	29 e7       	ldi	r18, 0x79	; 121
     f46:	32 e2       	ldi	r19, 0x22	; 34
     f48:	40 ea       	ldi	r20, 0xA0	; 160
     f4a:	5a e3       	ldi	r21, 0x3A	; 58
     f4c:	0e 94 63 2a 	call	0x54c6	; 0x54c6 <__mulsf3>
     f50:	60 93 36 02 	sts	0x0236, r22
     f54:	70 93 37 02 	sts	0x0237, r23
     f58:	80 93 38 02 	sts	0x0238, r24
     f5c:	90 93 39 02 	sts	0x0239, r25
	Gyro_Vector[1]=Gyro_Scaled_Y(gyro_y); //gyro y pitch
     f60:	60 91 0a 02 	lds	r22, 0x020A
     f64:	70 91 0b 02 	lds	r23, 0x020B
     f68:	88 27       	eor	r24, r24
     f6a:	77 fd       	sbrc	r23, 7
     f6c:	80 95       	com	r24
     f6e:	98 2f       	mov	r25, r24
     f70:	0e 94 1e 29 	call	0x523c	; 0x523c <__floatsisf>
     f74:	29 e7       	ldi	r18, 0x79	; 121
     f76:	32 e2       	ldi	r19, 0x22	; 34
     f78:	40 ea       	ldi	r20, 0xA0	; 160
     f7a:	5a e3       	ldi	r21, 0x3A	; 58
     f7c:	0e 94 63 2a 	call	0x54c6	; 0x54c6 <__mulsf3>
     f80:	60 93 3a 02 	sts	0x023A, r22
     f84:	70 93 3b 02 	sts	0x023B, r23
     f88:	80 93 3c 02 	sts	0x023C, r24
     f8c:	90 93 3d 02 	sts	0x023D, r25
	Gyro_Vector[2]=Gyro_Scaled_Z(gyro_z); //gyro Z yaw
     f90:	60 91 0c 02 	lds	r22, 0x020C
     f94:	70 91 0d 02 	lds	r23, 0x020D
     f98:	88 27       	eor	r24, r24
     f9a:	77 fd       	sbrc	r23, 7
     f9c:	80 95       	com	r24
     f9e:	98 2f       	mov	r25, r24
     fa0:	0e 94 1e 29 	call	0x523c	; 0x523c <__floatsisf>
     fa4:	29 e7       	ldi	r18, 0x79	; 121
     fa6:	32 e2       	ldi	r19, 0x22	; 34
     fa8:	40 ea       	ldi	r20, 0xA0	; 160
     faa:	5a e3       	ldi	r21, 0x3A	; 58
     fac:	0e 94 63 2a 	call	0x54c6	; 0x54c6 <__mulsf3>
     fb0:	60 93 3e 02 	sts	0x023E, r22
     fb4:	70 93 3f 02 	sts	0x023F, r23
     fb8:	80 93 40 02 	sts	0x0240, r24
     fbc:	90 93 41 02 	sts	0x0241, r25

	Accel_Vector[0]=accel_x;
     fc0:	60 91 0e 02 	lds	r22, 0x020E
     fc4:	70 91 0f 02 	lds	r23, 0x020F
     fc8:	88 27       	eor	r24, r24
     fca:	77 fd       	sbrc	r23, 7
     fcc:	80 95       	com	r24
     fce:	98 2f       	mov	r25, r24
     fd0:	0e 94 1e 29 	call	0x523c	; 0x523c <__floatsisf>
     fd4:	60 93 2a 02 	sts	0x022A, r22
     fd8:	70 93 2b 02 	sts	0x022B, r23
     fdc:	80 93 2c 02 	sts	0x022C, r24
     fe0:	90 93 2d 02 	sts	0x022D, r25
	Accel_Vector[1]=accel_y;
     fe4:	60 91 10 02 	lds	r22, 0x0210
     fe8:	70 91 11 02 	lds	r23, 0x0211
     fec:	88 27       	eor	r24, r24
     fee:	77 fd       	sbrc	r23, 7
     ff0:	80 95       	com	r24
     ff2:	98 2f       	mov	r25, r24
     ff4:	0e 94 1e 29 	call	0x523c	; 0x523c <__floatsisf>
     ff8:	60 93 2e 02 	sts	0x022E, r22
     ffc:	70 93 2f 02 	sts	0x022F, r23
    1000:	80 93 30 02 	sts	0x0230, r24
    1004:	90 93 31 02 	sts	0x0231, r25
	Accel_Vector[2]=accel_z;
    1008:	60 91 12 02 	lds	r22, 0x0212
    100c:	70 91 13 02 	lds	r23, 0x0213
    1010:	88 27       	eor	r24, r24
    1012:	77 fd       	sbrc	r23, 7
    1014:	80 95       	com	r24
    1016:	98 2f       	mov	r25, r24
    1018:	0e 94 1e 29 	call	0x523c	; 0x523c <__floatsisf>
    101c:	60 93 32 02 	sts	0x0232, r22
    1020:	70 93 33 02 	sts	0x0233, r23
    1024:	80 93 34 02 	sts	0x0234, r24
    1028:	90 93 35 02 	sts	0x0235, r25

	Vector_Add(&Omega[0], &Gyro_Vector[0], &Omega_I[0]);  //adding proportional term
    102c:	86 e6       	ldi	r24, 0x66	; 102
    102e:	92 e0       	ldi	r25, 0x02	; 2
    1030:	66 e3       	ldi	r22, 0x36	; 54
    1032:	72 e0       	ldi	r23, 0x02	; 2
    1034:	4a e5       	ldi	r20, 0x5A	; 90
    1036:	52 e0       	ldi	r21, 0x02	; 2
    1038:	0e 94 06 05 	call	0xa0c	; 0xa0c <_Z10Vector_AddPfS_S_>
	Vector_Add(&Omega_Vector[0], &Omega[0], &Omega_P[0]); //adding Integrator term
    103c:	82 e4       	ldi	r24, 0x42	; 66
    103e:	92 e0       	ldi	r25, 0x02	; 2
    1040:	66 e6       	ldi	r22, 0x66	; 102
    1042:	72 e0       	ldi	r23, 0x02	; 2
    1044:	4e e4       	ldi	r20, 0x4E	; 78
    1046:	52 e0       	ldi	r21, 0x02	; 2
    1048:	0e 94 06 05 	call	0xa0c	; 0xa0c <_Z10Vector_AddPfS_S_>

	//Accel_adjust();    //Remove centrifugal acceleration.   We are not using this function in this version - we have no speed measurement

#if OUTPUTMODE==1
	Update_Matrix[0][0]=0;
    104c:	0f 2e       	mov	r0, r31
    104e:	f0 e0       	ldi	r31, 0x00	; 0
    1050:	2f 2e       	mov	r2, r31
    1052:	f0 e0       	ldi	r31, 0x00	; 0
    1054:	3f 2e       	mov	r3, r31
    1056:	f0 e0       	ldi	r31, 0x00	; 0
    1058:	4f 2e       	mov	r4, r31
    105a:	f0 e0       	ldi	r31, 0x00	; 0
    105c:	5f 2e       	mov	r5, r31
    105e:	f0 2d       	mov	r31, r0
    1060:	20 92 77 01 	sts	0x0177, r2
    1064:	30 92 78 01 	sts	0x0178, r3
    1068:	40 92 79 01 	sts	0x0179, r4
    106c:	50 92 7a 01 	sts	0x017A, r5
	Update_Matrix[0][1]=-G_Dt*Omega_Vector[2];//-z
    1070:	e0 90 4f 01 	lds	r14, 0x014F
    1074:	f0 90 50 01 	lds	r15, 0x0150
    1078:	00 91 51 01 	lds	r16, 0x0151
    107c:	10 91 52 01 	lds	r17, 0x0152
    1080:	57 01       	movw	r10, r14
    1082:	68 01       	movw	r12, r16
    1084:	d7 fa       	bst	r13, 7
    1086:	d0 94       	com	r13
    1088:	d7 f8       	bld	r13, 7
    108a:	d0 94       	com	r13
    108c:	60 90 4a 02 	lds	r6, 0x024A
    1090:	70 90 4b 02 	lds	r7, 0x024B
    1094:	80 90 4c 02 	lds	r8, 0x024C
    1098:	90 90 4d 02 	lds	r9, 0x024D
    109c:	c6 01       	movw	r24, r12
    109e:	b5 01       	movw	r22, r10
    10a0:	a4 01       	movw	r20, r8
    10a2:	93 01       	movw	r18, r6
    10a4:	0e 94 63 2a 	call	0x54c6	; 0x54c6 <__mulsf3>
    10a8:	60 93 7b 01 	sts	0x017B, r22
    10ac:	70 93 7c 01 	sts	0x017C, r23
    10b0:	80 93 7d 01 	sts	0x017D, r24
    10b4:	90 93 7e 01 	sts	0x017E, r25
	Update_Matrix[0][2]=G_Dt*Omega_Vector[1];//y
    10b8:	80 91 46 02 	lds	r24, 0x0246
    10bc:	90 91 47 02 	lds	r25, 0x0247
    10c0:	a0 91 48 02 	lds	r26, 0x0248
    10c4:	b0 91 49 02 	lds	r27, 0x0249
    10c8:	89 83       	std	Y+1, r24	; 0x01
    10ca:	9a 83       	std	Y+2, r25	; 0x02
    10cc:	ab 83       	std	Y+3, r26	; 0x03
    10ce:	bc 83       	std	Y+4, r27	; 0x04
    10d0:	c8 01       	movw	r24, r16
    10d2:	b7 01       	movw	r22, r14
    10d4:	29 81       	ldd	r18, Y+1	; 0x01
    10d6:	3a 81       	ldd	r19, Y+2	; 0x02
    10d8:	4b 81       	ldd	r20, Y+3	; 0x03
    10da:	5c 81       	ldd	r21, Y+4	; 0x04
    10dc:	0e 94 63 2a 	call	0x54c6	; 0x54c6 <__mulsf3>
    10e0:	60 93 7f 01 	sts	0x017F, r22
    10e4:	70 93 80 01 	sts	0x0180, r23
    10e8:	80 93 81 01 	sts	0x0181, r24
    10ec:	90 93 82 01 	sts	0x0182, r25
	Update_Matrix[1][0]=G_Dt*Omega_Vector[2];//z
    10f0:	c8 01       	movw	r24, r16
    10f2:	b7 01       	movw	r22, r14
    10f4:	a4 01       	movw	r20, r8
    10f6:	93 01       	movw	r18, r6
    10f8:	0e 94 63 2a 	call	0x54c6	; 0x54c6 <__mulsf3>
    10fc:	60 93 83 01 	sts	0x0183, r22
    1100:	70 93 84 01 	sts	0x0184, r23
    1104:	80 93 85 01 	sts	0x0185, r24
    1108:	90 93 86 01 	sts	0x0186, r25
	Update_Matrix[1][1]=0;
    110c:	20 92 87 01 	sts	0x0187, r2
    1110:	30 92 88 01 	sts	0x0188, r3
    1114:	40 92 89 01 	sts	0x0189, r4
    1118:	50 92 8a 01 	sts	0x018A, r5
	Update_Matrix[1][2]=-G_Dt*Omega_Vector[0];//-x
    111c:	60 90 42 02 	lds	r6, 0x0242
    1120:	70 90 43 02 	lds	r7, 0x0243
    1124:	80 90 44 02 	lds	r8, 0x0244
    1128:	90 90 45 02 	lds	r9, 0x0245
    112c:	c6 01       	movw	r24, r12
    112e:	b5 01       	movw	r22, r10
    1130:	a4 01       	movw	r20, r8
    1132:	93 01       	movw	r18, r6
    1134:	0e 94 63 2a 	call	0x54c6	; 0x54c6 <__mulsf3>
    1138:	60 93 8b 01 	sts	0x018B, r22
    113c:	70 93 8c 01 	sts	0x018C, r23
    1140:	80 93 8d 01 	sts	0x018D, r24
    1144:	90 93 8e 01 	sts	0x018E, r25
	Update_Matrix[2][0]=-G_Dt*Omega_Vector[1];//-y
    1148:	c6 01       	movw	r24, r12
    114a:	b5 01       	movw	r22, r10
    114c:	29 81       	ldd	r18, Y+1	; 0x01
    114e:	3a 81       	ldd	r19, Y+2	; 0x02
    1150:	4b 81       	ldd	r20, Y+3	; 0x03
    1152:	5c 81       	ldd	r21, Y+4	; 0x04
    1154:	0e 94 63 2a 	call	0x54c6	; 0x54c6 <__mulsf3>
    1158:	60 93 8f 01 	sts	0x018F, r22
    115c:	70 93 90 01 	sts	0x0190, r23
    1160:	80 93 91 01 	sts	0x0191, r24
    1164:	90 93 92 01 	sts	0x0192, r25
	Update_Matrix[2][1]=G_Dt*Omega_Vector[0];//x
    1168:	c8 01       	movw	r24, r16
    116a:	b7 01       	movw	r22, r14
    116c:	a4 01       	movw	r20, r8
    116e:	93 01       	movw	r18, r6
    1170:	0e 94 63 2a 	call	0x54c6	; 0x54c6 <__mulsf3>
    1174:	60 93 93 01 	sts	0x0193, r22
    1178:	70 93 94 01 	sts	0x0194, r23
    117c:	80 93 95 01 	sts	0x0195, r24
    1180:	90 93 96 01 	sts	0x0196, r25
	Update_Matrix[2][2]=0;
    1184:	20 92 97 01 	sts	0x0197, r2
    1188:	30 92 98 01 	sts	0x0198, r3
    118c:	40 92 99 01 	sts	0x0199, r4
    1190:	50 92 9a 01 	sts	0x019A, r5
	Update_Matrix[2][0]=-G_Dt*Gyro_Vector[1];
	Update_Matrix[2][1]=G_Dt*Gyro_Vector[0];
	Update_Matrix[2][2]=0;
#endif

	Matrix_Multiply(DCM_Matrix,Update_Matrix,Temporary_Matrix); //a*b=c
    1194:	83 e5       	ldi	r24, 0x53	; 83
    1196:	91 e0       	ldi	r25, 0x01	; 1
    1198:	67 e7       	ldi	r22, 0x77	; 119
    119a:	71 e0       	ldi	r23, 0x01	; 1
    119c:	49 e9       	ldi	r20, 0x99	; 153
    119e:	52 e0       	ldi	r21, 0x02	; 2
    11a0:	0e 94 3c 01 	call	0x278	; 0x278 <_Z15Matrix_MultiplyPA3_fS0_S0_>
    11a4:	73 e5       	ldi	r23, 0x53	; 83
    11a6:	e7 2e       	mov	r14, r23
    11a8:	71 e0       	ldi	r23, 0x01	; 1
    11aa:	f7 2e       	mov	r15, r23
    11ac:	09 e9       	ldi	r16, 0x99	; 153
    11ae:	12 e0       	ldi	r17, 0x02	; 2

	for(int x=0; x<3; x++) //Matrix Addition (update)
	{
		for(int y=0; y<3; y++)
		{
			DCM_Matrix[x][y]+=Temporary_Matrix[x][y];
    11b0:	d7 01       	movw	r26, r14
    11b2:	6d 91       	ld	r22, X+
    11b4:	7d 91       	ld	r23, X+
    11b6:	8d 91       	ld	r24, X+
    11b8:	9c 91       	ld	r25, X
    11ba:	f8 01       	movw	r30, r16
    11bc:	20 81       	ld	r18, Z
    11be:	31 81       	ldd	r19, Z+1	; 0x01
    11c0:	42 81       	ldd	r20, Z+2	; 0x02
    11c2:	53 81       	ldd	r21, Z+3	; 0x03
    11c4:	0e 94 9f 27 	call	0x4f3e	; 0x4f3e <__addsf3>
    11c8:	d7 01       	movw	r26, r14
    11ca:	6d 93       	st	X+, r22
    11cc:	7d 93       	st	X+, r23
    11ce:	8d 93       	st	X+, r24
    11d0:	9c 93       	st	X, r25
    11d2:	13 97       	sbiw	r26, 0x03	; 3
    11d4:	14 96       	adiw	r26, 0x04	; 4
    11d6:	6d 91       	ld	r22, X+
    11d8:	7d 91       	ld	r23, X+
    11da:	8d 91       	ld	r24, X+
    11dc:	9c 91       	ld	r25, X
    11de:	17 97       	sbiw	r26, 0x07	; 7
    11e0:	f8 01       	movw	r30, r16
    11e2:	24 81       	ldd	r18, Z+4	; 0x04
    11e4:	35 81       	ldd	r19, Z+5	; 0x05
    11e6:	46 81       	ldd	r20, Z+6	; 0x06
    11e8:	57 81       	ldd	r21, Z+7	; 0x07
    11ea:	0e 94 9f 27 	call	0x4f3e	; 0x4f3e <__addsf3>
    11ee:	d7 01       	movw	r26, r14
    11f0:	14 96       	adiw	r26, 0x04	; 4
    11f2:	6d 93       	st	X+, r22
    11f4:	7d 93       	st	X+, r23
    11f6:	8d 93       	st	X+, r24
    11f8:	9c 93       	st	X, r25
    11fa:	17 97       	sbiw	r26, 0x07	; 7
    11fc:	18 96       	adiw	r26, 0x08	; 8
    11fe:	6d 91       	ld	r22, X+
    1200:	7d 91       	ld	r23, X+
    1202:	8d 91       	ld	r24, X+
    1204:	9c 91       	ld	r25, X
    1206:	1b 97       	sbiw	r26, 0x0b	; 11
    1208:	f8 01       	movw	r30, r16
    120a:	20 85       	ldd	r18, Z+8	; 0x08
    120c:	31 85       	ldd	r19, Z+9	; 0x09
    120e:	42 85       	ldd	r20, Z+10	; 0x0a
    1210:	53 85       	ldd	r21, Z+11	; 0x0b
    1212:	0e 94 9f 27 	call	0x4f3e	; 0x4f3e <__addsf3>
    1216:	d7 01       	movw	r26, r14
    1218:	18 96       	adiw	r26, 0x08	; 8
    121a:	6d 93       	st	X+, r22
    121c:	7d 93       	st	X+, r23
    121e:	8d 93       	st	X+, r24
    1220:	9c 93       	st	X, r25
    1222:	1b 97       	sbiw	r26, 0x0b	; 11
    1224:	ec e0       	ldi	r30, 0x0C	; 12
    1226:	f0 e0       	ldi	r31, 0x00	; 0
    1228:	ee 0e       	add	r14, r30
    122a:	ff 1e       	adc	r15, r31
    122c:	04 5f       	subi	r16, 0xF4	; 244
    122e:	1f 4f       	sbci	r17, 0xFF	; 255
	Update_Matrix[2][2]=0;
#endif

	Matrix_Multiply(DCM_Matrix,Update_Matrix,Temporary_Matrix); //a*b=c

	for(int x=0; x<3; x++) //Matrix Addition (update)
    1230:	f7 e7       	ldi	r31, 0x77	; 119
    1232:	ef 16       	cp	r14, r31
    1234:	f1 e0       	ldi	r31, 0x01	; 1
    1236:	ff 06       	cpc	r15, r31
    1238:	09 f0       	breq	.+2      	; 0x123c <_Z13Matrix_updatev+0x338>
    123a:	ba cf       	rjmp	.-140    	; 0x11b0 <_Z13Matrix_updatev+0x2ac>
		for(int y=0; y<3; y++)
		{
			DCM_Matrix[x][y]+=Temporary_Matrix[x][y];
		}
	}
}
    123c:	0f 90       	pop	r0
    123e:	0f 90       	pop	r0
    1240:	0f 90       	pop	r0
    1242:	0f 90       	pop	r0
    1244:	cf 91       	pop	r28
    1246:	df 91       	pop	r29
    1248:	1f 91       	pop	r17
    124a:	0f 91       	pop	r16
    124c:	ff 90       	pop	r15
    124e:	ef 90       	pop	r14
    1250:	df 90       	pop	r13
    1252:	cf 90       	pop	r12
    1254:	bf 90       	pop	r11
    1256:	af 90       	pop	r10
    1258:	9f 90       	pop	r9
    125a:	8f 90       	pop	r8
    125c:	7f 90       	pop	r7
    125e:	6f 90       	pop	r6
    1260:	5f 90       	pop	r5
    1262:	4f 90       	pop	r4
    1264:	3f 90       	pop	r3
    1266:	2f 90       	pop	r2
    1268:	08 95       	ret

0000126a <_Z12Euler_anglesv>:

void Euler_angles(void)
{
	pitch = -asin(DCM_Matrix[2][0]);
    126a:	60 91 6b 01 	lds	r22, 0x016B
    126e:	70 91 6c 01 	lds	r23, 0x016C
    1272:	80 91 6d 01 	lds	r24, 0x016D
    1276:	90 91 6e 01 	lds	r25, 0x016E
    127a:	0e 94 03 28 	call	0x5006	; 0x5006 <asin>
    127e:	90 58       	subi	r25, 0x80	; 128
    1280:	60 93 76 02 	sts	0x0276, r22
    1284:	70 93 77 02 	sts	0x0277, r23
    1288:	80 93 78 02 	sts	0x0278, r24
    128c:	90 93 79 02 	sts	0x0279, r25
	roll = atan2(DCM_Matrix[2][1],DCM_Matrix[2][2]);
    1290:	60 91 6f 01 	lds	r22, 0x016F
    1294:	70 91 70 01 	lds	r23, 0x0170
    1298:	80 91 71 01 	lds	r24, 0x0171
    129c:	90 91 72 01 	lds	r25, 0x0172
    12a0:	20 91 73 01 	lds	r18, 0x0173
    12a4:	30 91 74 01 	lds	r19, 0x0174
    12a8:	40 91 75 01 	lds	r20, 0x0175
    12ac:	50 91 76 01 	lds	r21, 0x0176
    12b0:	0e 94 29 28 	call	0x5052	; 0x5052 <atan2>
    12b4:	60 93 72 02 	sts	0x0272, r22
    12b8:	70 93 73 02 	sts	0x0273, r23
    12bc:	80 93 74 02 	sts	0x0274, r24
    12c0:	90 93 75 02 	sts	0x0275, r25
	yaw = atan2(DCM_Matrix[1][0],DCM_Matrix[0][0]);
    12c4:	60 91 5f 01 	lds	r22, 0x015F
    12c8:	70 91 60 01 	lds	r23, 0x0160
    12cc:	80 91 61 01 	lds	r24, 0x0161
    12d0:	90 91 62 01 	lds	r25, 0x0162
    12d4:	20 91 53 01 	lds	r18, 0x0153
    12d8:	30 91 54 01 	lds	r19, 0x0154
    12dc:	40 91 55 01 	lds	r20, 0x0155
    12e0:	50 91 56 01 	lds	r21, 0x0156
    12e4:	0e 94 29 28 	call	0x5052	; 0x5052 <atan2>
    12e8:	60 93 7a 02 	sts	0x027A, r22
    12ec:	70 93 7b 02 	sts	0x027B, r23
    12f0:	80 93 7c 02 	sts	0x027C, r24
    12f4:	90 93 7d 02 	sts	0x027D, r25
}
    12f8:	08 95       	ret

000012fa <_Z15Compass_Headingv>:
with MinIMU-9-Arduino-AHRS. If not, see <http://www.gnu.org/licenses/>.

 */

void Compass_Heading()
{
    12fa:	2f 92       	push	r2
    12fc:	3f 92       	push	r3
    12fe:	4f 92       	push	r4
    1300:	5f 92       	push	r5
    1302:	6f 92       	push	r6
    1304:	7f 92       	push	r7
    1306:	8f 92       	push	r8
    1308:	9f 92       	push	r9
    130a:	af 92       	push	r10
    130c:	bf 92       	push	r11
    130e:	cf 92       	push	r12
    1310:	df 92       	push	r13
    1312:	ef 92       	push	r14
    1314:	ff 92       	push	r15
    1316:	0f 93       	push	r16
    1318:	1f 93       	push	r17
    131a:	df 93       	push	r29
    131c:	cf 93       	push	r28
    131e:	cd b7       	in	r28, 0x3d	; 61
    1320:	de b7       	in	r29, 0x3e	; 62
    1322:	64 97       	sbiw	r28, 0x14	; 20
    1324:	0f b6       	in	r0, 0x3f	; 63
    1326:	f8 94       	cli
    1328:	de bf       	out	0x3e, r29	; 62
    132a:	0f be       	out	0x3f, r0	; 63
    132c:	cd bf       	out	0x3d, r28	; 61
	float cos_roll;
	float sin_roll;
	float cos_pitch;
	float sin_pitch;

	cos_roll = cos(roll);
    132e:	e0 90 72 02 	lds	r14, 0x0272
    1332:	f0 90 73 02 	lds	r15, 0x0273
    1336:	00 91 74 02 	lds	r16, 0x0274
    133a:	10 91 75 02 	lds	r17, 0x0275
    133e:	c8 01       	movw	r24, r16
    1340:	b7 01       	movw	r22, r14
    1342:	0e 94 80 28 	call	0x5100	; 0x5100 <cos>
    1346:	69 83       	std	Y+1, r22	; 0x01
    1348:	7a 83       	std	Y+2, r23	; 0x02
    134a:	8b 83       	std	Y+3, r24	; 0x03
    134c:	9c 83       	std	Y+4, r25	; 0x04
	sin_roll = sin(roll);
    134e:	c8 01       	movw	r24, r16
    1350:	b7 01       	movw	r22, r14
    1352:	0e 94 c6 2a 	call	0x558c	; 0x558c <sin>
    1356:	6d 83       	std	Y+5, r22	; 0x05
    1358:	7e 83       	std	Y+6, r23	; 0x06
    135a:	8f 83       	std	Y+7, r24	; 0x07
    135c:	98 87       	std	Y+8, r25	; 0x08
	cos_pitch = cos(pitch);
    135e:	e0 90 76 02 	lds	r14, 0x0276
    1362:	f0 90 77 02 	lds	r15, 0x0277
    1366:	00 91 78 02 	lds	r16, 0x0278
    136a:	10 91 79 02 	lds	r17, 0x0279
    136e:	c8 01       	movw	r24, r16
    1370:	b7 01       	movw	r22, r14
    1372:	0e 94 80 28 	call	0x5100	; 0x5100 <cos>
    1376:	6d 87       	std	Y+13, r22	; 0x0d
    1378:	7e 87       	std	Y+14, r23	; 0x0e
    137a:	8f 87       	std	Y+15, r24	; 0x0f
    137c:	98 8b       	std	Y+16, r25	; 0x10
	sin_pitch = sin(pitch);
    137e:	c8 01       	movw	r24, r16
    1380:	b7 01       	movw	r22, r14
    1382:	0e 94 c6 2a 	call	0x558c	; 0x558c <sin>
    1386:	69 87       	std	Y+9, r22	; 0x09
    1388:	7a 87       	std	Y+10, r23	; 0x0a
    138a:	8b 87       	std	Y+11, r24	; 0x0b
    138c:	9c 87       	std	Y+12, r25	; 0x0c

	// adjust for LSM303 compass axis offsets/sensitivity differences by scaling to +/-0.5 range
	c_magnetom_x = (float)(magnetom_x - SENSOR_SIGN[6]*M_X_MIN) / (M_X_MAX - M_X_MIN) - SENSOR_SIGN[6]*0.5;
    138e:	e0 90 49 01 	lds	r14, 0x0149
    1392:	f0 90 4a 01 	lds	r15, 0x014A
    1396:	80 e3       	ldi	r24, 0x30	; 48
    1398:	92 e0       	ldi	r25, 0x02	; 2
    139a:	e8 9e       	mul	r14, r24
    139c:	b0 01       	movw	r22, r0
    139e:	e9 9e       	mul	r14, r25
    13a0:	70 0d       	add	r23, r0
    13a2:	f8 9e       	mul	r15, r24
    13a4:	70 0d       	add	r23, r0
    13a6:	11 24       	eor	r1, r1
    13a8:	80 91 14 02 	lds	r24, 0x0214
    13ac:	90 91 15 02 	lds	r25, 0x0215
    13b0:	68 0f       	add	r22, r24
    13b2:	79 1f       	adc	r23, r25
    13b4:	88 27       	eor	r24, r24
    13b6:	77 fd       	sbrc	r23, 7
    13b8:	80 95       	com	r24
    13ba:	98 2f       	mov	r25, r24
    13bc:	0e 94 1e 29 	call	0x523c	; 0x523c <__floatsisf>
    13c0:	20 e0       	ldi	r18, 0x00	; 0
    13c2:	30 ec       	ldi	r19, 0xC0	; 192
    13c4:	49 e6       	ldi	r20, 0x69	; 105
    13c6:	54 e4       	ldi	r21, 0x44	; 68
    13c8:	0e 94 83 28 	call	0x5106	; 0x5106 <__divsf3>
    13cc:	5b 01       	movw	r10, r22
    13ce:	6c 01       	movw	r12, r24
    13d0:	b7 01       	movw	r22, r14
    13d2:	88 27       	eor	r24, r24
    13d4:	77 fd       	sbrc	r23, 7
    13d6:	80 95       	com	r24
    13d8:	98 2f       	mov	r25, r24
    13da:	0e 94 1e 29 	call	0x523c	; 0x523c <__floatsisf>
    13de:	20 e0       	ldi	r18, 0x00	; 0
    13e0:	30 e0       	ldi	r19, 0x00	; 0
    13e2:	40 e0       	ldi	r20, 0x00	; 0
    13e4:	5f e3       	ldi	r21, 0x3F	; 63
    13e6:	0e 94 63 2a 	call	0x54c6	; 0x54c6 <__mulsf3>
    13ea:	9b 01       	movw	r18, r22
    13ec:	ac 01       	movw	r20, r24
    13ee:	c6 01       	movw	r24, r12
    13f0:	b5 01       	movw	r22, r10
    13f2:	0e 94 9e 27 	call	0x4f3c	; 0x4f3c <__subsf3>
    13f6:	56 2e       	mov	r5, r22
    13f8:	47 2e       	mov	r4, r23
    13fa:	38 2e       	mov	r3, r24
    13fc:	29 2e       	mov	r2, r25
    13fe:	a2 01       	movw	r20, r4
    1400:	91 01       	movw	r18, r2
    1402:	85 2f       	mov	r24, r21
    1404:	94 2f       	mov	r25, r20
    1406:	a3 2f       	mov	r26, r19
    1408:	b2 2f       	mov	r27, r18
    140a:	80 93 1a 02 	sts	0x021A, r24
    140e:	90 93 1b 02 	sts	0x021B, r25
    1412:	a0 93 1c 02 	sts	0x021C, r26
    1416:	b0 93 1d 02 	sts	0x021D, r27
	c_magnetom_y = (float)(magnetom_y - SENSOR_SIGN[7]*M_Y_MIN) / (M_Y_MAX - M_Y_MIN) - SENSOR_SIGN[7]*0.5;
    141a:	e0 90 4b 01 	lds	r14, 0x014B
    141e:	f0 90 4c 01 	lds	r15, 0x014C
    1422:	8d e7       	ldi	r24, 0x7D	; 125
    1424:	92 e0       	ldi	r25, 0x02	; 2
    1426:	e8 9e       	mul	r14, r24
    1428:	b0 01       	movw	r22, r0
    142a:	e9 9e       	mul	r14, r25
    142c:	70 0d       	add	r23, r0
    142e:	f8 9e       	mul	r15, r24
    1430:	70 0d       	add	r23, r0
    1432:	11 24       	eor	r1, r1
    1434:	80 91 16 02 	lds	r24, 0x0216
    1438:	90 91 17 02 	lds	r25, 0x0217
    143c:	68 0f       	add	r22, r24
    143e:	79 1f       	adc	r23, r25
    1440:	88 27       	eor	r24, r24
    1442:	77 fd       	sbrc	r23, 7
    1444:	80 95       	com	r24
    1446:	98 2f       	mov	r25, r24
    1448:	0e 94 1e 29 	call	0x523c	; 0x523c <__floatsisf>
    144c:	20 e0       	ldi	r18, 0x00	; 0
    144e:	30 e8       	ldi	r19, 0x80	; 128
    1450:	41 e7       	ldi	r20, 0x71	; 113
    1452:	54 e4       	ldi	r21, 0x44	; 68
    1454:	0e 94 83 28 	call	0x5106	; 0x5106 <__divsf3>
    1458:	5b 01       	movw	r10, r22
    145a:	6c 01       	movw	r12, r24
    145c:	b7 01       	movw	r22, r14
    145e:	88 27       	eor	r24, r24
    1460:	77 fd       	sbrc	r23, 7
    1462:	80 95       	com	r24
    1464:	98 2f       	mov	r25, r24
    1466:	0e 94 1e 29 	call	0x523c	; 0x523c <__floatsisf>
    146a:	20 e0       	ldi	r18, 0x00	; 0
    146c:	30 e0       	ldi	r19, 0x00	; 0
    146e:	40 e0       	ldi	r20, 0x00	; 0
    1470:	5f e3       	ldi	r21, 0x3F	; 63
    1472:	0e 94 63 2a 	call	0x54c6	; 0x54c6 <__mulsf3>
    1476:	9b 01       	movw	r18, r22
    1478:	ac 01       	movw	r20, r24
    147a:	c6 01       	movw	r24, r12
    147c:	b5 01       	movw	r22, r10
    147e:	0e 94 9e 27 	call	0x4f3c	; 0x4f3c <__subsf3>
    1482:	d6 2e       	mov	r13, r22
    1484:	c7 2e       	mov	r12, r23
    1486:	b8 2e       	mov	r11, r24
    1488:	a9 2e       	mov	r10, r25
    148a:	a6 01       	movw	r20, r12
    148c:	95 01       	movw	r18, r10
    148e:	85 2f       	mov	r24, r21
    1490:	94 2f       	mov	r25, r20
    1492:	a3 2f       	mov	r26, r19
    1494:	b2 2f       	mov	r27, r18
    1496:	80 93 1e 02 	sts	0x021E, r24
    149a:	90 93 1f 02 	sts	0x021F, r25
    149e:	a0 93 20 02 	sts	0x0220, r26
    14a2:	b0 93 21 02 	sts	0x0221, r27
	c_magnetom_z = (float)(magnetom_z - SENSOR_SIGN[8]*M_Z_MIN) / (M_Z_MAX - M_Z_MIN) - SENSOR_SIGN[8]*0.5;
    14a6:	e0 90 4d 01 	lds	r14, 0x014D
    14aa:	f0 90 4e 01 	lds	r15, 0x014E
    14ae:	82 e4       	ldi	r24, 0x42	; 66
    14b0:	92 e0       	ldi	r25, 0x02	; 2
    14b2:	e8 9e       	mul	r14, r24
    14b4:	b0 01       	movw	r22, r0
    14b6:	e9 9e       	mul	r14, r25
    14b8:	70 0d       	add	r23, r0
    14ba:	f8 9e       	mul	r15, r24
    14bc:	70 0d       	add	r23, r0
    14be:	11 24       	eor	r1, r1
    14c0:	80 91 18 02 	lds	r24, 0x0218
    14c4:	90 91 19 02 	lds	r25, 0x0219
    14c8:	68 0f       	add	r22, r24
    14ca:	79 1f       	adc	r23, r25
    14cc:	88 27       	eor	r24, r24
    14ce:	77 fd       	sbrc	r23, 7
    14d0:	80 95       	com	r24
    14d2:	98 2f       	mov	r25, r24
    14d4:	0e 94 1e 29 	call	0x523c	; 0x523c <__floatsisf>
    14d8:	20 e0       	ldi	r18, 0x00	; 0
    14da:	30 ec       	ldi	r19, 0xC0	; 192
    14dc:	49 e6       	ldi	r20, 0x69	; 105
    14de:	54 e4       	ldi	r21, 0x44	; 68
    14e0:	0e 94 83 28 	call	0x5106	; 0x5106 <__divsf3>
    14e4:	3b 01       	movw	r6, r22
    14e6:	4c 01       	movw	r8, r24
    14e8:	b7 01       	movw	r22, r14
    14ea:	88 27       	eor	r24, r24
    14ec:	77 fd       	sbrc	r23, 7
    14ee:	80 95       	com	r24
    14f0:	98 2f       	mov	r25, r24
    14f2:	0e 94 1e 29 	call	0x523c	; 0x523c <__floatsisf>
    14f6:	20 e0       	ldi	r18, 0x00	; 0
    14f8:	30 e0       	ldi	r19, 0x00	; 0
    14fa:	40 e0       	ldi	r20, 0x00	; 0
    14fc:	5f e3       	ldi	r21, 0x3F	; 63
    14fe:	0e 94 63 2a 	call	0x54c6	; 0x54c6 <__mulsf3>
    1502:	9b 01       	movw	r18, r22
    1504:	ac 01       	movw	r20, r24
    1506:	c4 01       	movw	r24, r8
    1508:	b3 01       	movw	r22, r6
    150a:	0e 94 9e 27 	call	0x4f3c	; 0x4f3c <__subsf3>
    150e:	8b 01       	movw	r16, r22
    1510:	7c 01       	movw	r14, r24
    1512:	86 2f       	mov	r24, r22
    1514:	91 2f       	mov	r25, r17
    1516:	ae 2d       	mov	r26, r14
    1518:	bf 2d       	mov	r27, r15
    151a:	80 93 22 02 	sts	0x0222, r24
    151e:	90 93 23 02 	sts	0x0223, r25
    1522:	a0 93 24 02 	sts	0x0224, r26
    1526:	b0 93 25 02 	sts	0x0225, r27

	// Tilt compensated Magnetic filed X:
	MAG_X = c_magnetom_x*cos_pitch+c_magnetom_y*sin_roll*sin_pitch+c_magnetom_z*cos_roll*sin_pitch;
	// Tilt compensated Magnetic filed Y:
	MAG_Y = c_magnetom_y*cos_roll-c_magnetom_z*sin_roll;
    152a:	a6 01       	movw	r20, r12
    152c:	95 01       	movw	r18, r10
    152e:	65 2f       	mov	r22, r21
    1530:	74 2f       	mov	r23, r20
    1532:	83 2f       	mov	r24, r19
    1534:	92 2f       	mov	r25, r18
    1536:	29 81       	ldd	r18, Y+1	; 0x01
    1538:	3a 81       	ldd	r19, Y+2	; 0x02
    153a:	4b 81       	ldd	r20, Y+3	; 0x03
    153c:	5c 81       	ldd	r21, Y+4	; 0x04
    153e:	0e 94 63 2a 	call	0x54c6	; 0x54c6 <__mulsf3>
    1542:	3b 01       	movw	r6, r22
    1544:	4c 01       	movw	r8, r24
    1546:	60 2f       	mov	r22, r16
    1548:	71 2f       	mov	r23, r17
    154a:	8e 2d       	mov	r24, r14
    154c:	9f 2d       	mov	r25, r15
    154e:	2d 81       	ldd	r18, Y+5	; 0x05
    1550:	3e 81       	ldd	r19, Y+6	; 0x06
    1552:	4f 81       	ldd	r20, Y+7	; 0x07
    1554:	58 85       	ldd	r21, Y+8	; 0x08
    1556:	0e 94 63 2a 	call	0x54c6	; 0x54c6 <__mulsf3>
    155a:	9b 01       	movw	r18, r22
    155c:	ac 01       	movw	r20, r24
    155e:	c4 01       	movw	r24, r8
    1560:	b3 01       	movw	r22, r6
    1562:	0e 94 9e 27 	call	0x4f3c	; 0x4f3c <__subsf3>
	// Magnetic Heading
	MAG_Heading = atan2(-MAG_Y,MAG_X);
    1566:	9b 01       	movw	r18, r22
    1568:	ac 01       	movw	r20, r24
    156a:	50 58       	subi	r21, 0x80	; 128
    156c:	29 8b       	std	Y+17, r18	; 0x11
    156e:	3a 8b       	std	Y+18, r19	; 0x12
    1570:	4b 8b       	std	Y+19, r20	; 0x13
    1572:	5c 8b       	std	Y+20, r21	; 0x14
	c_magnetom_x = (float)(magnetom_x - SENSOR_SIGN[6]*M_X_MIN) / (M_X_MAX - M_X_MIN) - SENSOR_SIGN[6]*0.5;
	c_magnetom_y = (float)(magnetom_y - SENSOR_SIGN[7]*M_Y_MIN) / (M_Y_MAX - M_Y_MIN) - SENSOR_SIGN[7]*0.5;
	c_magnetom_z = (float)(magnetom_z - SENSOR_SIGN[8]*M_Z_MIN) / (M_Z_MAX - M_Z_MIN) - SENSOR_SIGN[8]*0.5;

	// Tilt compensated Magnetic filed X:
	MAG_X = c_magnetom_x*cos_pitch+c_magnetom_y*sin_roll*sin_pitch+c_magnetom_z*cos_roll*sin_pitch;
    1574:	a2 01       	movw	r20, r4
    1576:	91 01       	movw	r18, r2
    1578:	65 2f       	mov	r22, r21
    157a:	74 2f       	mov	r23, r20
    157c:	83 2f       	mov	r24, r19
    157e:	92 2f       	mov	r25, r18
    1580:	2d 85       	ldd	r18, Y+13	; 0x0d
    1582:	3e 85       	ldd	r19, Y+14	; 0x0e
    1584:	4f 85       	ldd	r20, Y+15	; 0x0f
    1586:	58 89       	ldd	r21, Y+16	; 0x10
    1588:	0e 94 63 2a 	call	0x54c6	; 0x54c6 <__mulsf3>
    158c:	3b 01       	movw	r6, r22
    158e:	4c 01       	movw	r8, r24
    1590:	a6 01       	movw	r20, r12
    1592:	95 01       	movw	r18, r10
    1594:	65 2f       	mov	r22, r21
    1596:	74 2f       	mov	r23, r20
    1598:	83 2f       	mov	r24, r19
    159a:	92 2f       	mov	r25, r18
    159c:	2d 81       	ldd	r18, Y+5	; 0x05
    159e:	3e 81       	ldd	r19, Y+6	; 0x06
    15a0:	4f 81       	ldd	r20, Y+7	; 0x07
    15a2:	58 85       	ldd	r21, Y+8	; 0x08
    15a4:	0e 94 63 2a 	call	0x54c6	; 0x54c6 <__mulsf3>
    15a8:	29 85       	ldd	r18, Y+9	; 0x09
    15aa:	3a 85       	ldd	r19, Y+10	; 0x0a
    15ac:	4b 85       	ldd	r20, Y+11	; 0x0b
    15ae:	5c 85       	ldd	r21, Y+12	; 0x0c
    15b0:	0e 94 63 2a 	call	0x54c6	; 0x54c6 <__mulsf3>
    15b4:	9b 01       	movw	r18, r22
    15b6:	ac 01       	movw	r20, r24
    15b8:	c4 01       	movw	r24, r8
    15ba:	b3 01       	movw	r22, r6
    15bc:	0e 94 9f 27 	call	0x4f3e	; 0x4f3e <__addsf3>
    15c0:	5b 01       	movw	r10, r22
    15c2:	6c 01       	movw	r12, r24
    15c4:	60 2f       	mov	r22, r16
    15c6:	71 2f       	mov	r23, r17
    15c8:	8e 2d       	mov	r24, r14
    15ca:	9f 2d       	mov	r25, r15
    15cc:	29 81       	ldd	r18, Y+1	; 0x01
    15ce:	3a 81       	ldd	r19, Y+2	; 0x02
    15d0:	4b 81       	ldd	r20, Y+3	; 0x03
    15d2:	5c 81       	ldd	r21, Y+4	; 0x04
    15d4:	0e 94 63 2a 	call	0x54c6	; 0x54c6 <__mulsf3>
    15d8:	29 85       	ldd	r18, Y+9	; 0x09
    15da:	3a 85       	ldd	r19, Y+10	; 0x0a
    15dc:	4b 85       	ldd	r20, Y+11	; 0x0b
    15de:	5c 85       	ldd	r21, Y+12	; 0x0c
    15e0:	0e 94 63 2a 	call	0x54c6	; 0x54c6 <__mulsf3>
    15e4:	9b 01       	movw	r18, r22
    15e6:	ac 01       	movw	r20, r24
    15e8:	c6 01       	movw	r24, r12
    15ea:	b5 01       	movw	r22, r10
    15ec:	0e 94 9f 27 	call	0x4f3e	; 0x4f3e <__addsf3>
    15f0:	9b 01       	movw	r18, r22
    15f2:	ac 01       	movw	r20, r24
	// Tilt compensated Magnetic filed Y:
	MAG_Y = c_magnetom_y*cos_roll-c_magnetom_z*sin_roll;
	// Magnetic Heading
	MAG_Heading = atan2(-MAG_Y,MAG_X);
    15f4:	69 89       	ldd	r22, Y+17	; 0x11
    15f6:	7a 89       	ldd	r23, Y+18	; 0x12
    15f8:	8b 89       	ldd	r24, Y+19	; 0x13
    15fa:	9c 89       	ldd	r25, Y+20	; 0x14
    15fc:	0e 94 29 28 	call	0x5052	; 0x5052 <atan2>
    1600:	60 93 26 02 	sts	0x0226, r22
    1604:	70 93 27 02 	sts	0x0227, r23
    1608:	80 93 28 02 	sts	0x0228, r24
    160c:	90 93 29 02 	sts	0x0229, r25
}
    1610:	64 96       	adiw	r28, 0x14	; 20
    1612:	0f b6       	in	r0, 0x3f	; 63
    1614:	f8 94       	cli
    1616:	de bf       	out	0x3e, r29	; 62
    1618:	0f be       	out	0x3f, r0	; 63
    161a:	cd bf       	out	0x3d, r28	; 61
    161c:	cf 91       	pop	r28
    161e:	df 91       	pop	r29
    1620:	1f 91       	pop	r17
    1622:	0f 91       	pop	r16
    1624:	ff 90       	pop	r15
    1626:	ef 90       	pop	r14
    1628:	df 90       	pop	r13
    162a:	cf 90       	pop	r12
    162c:	bf 90       	pop	r11
    162e:	af 90       	pop	r10
    1630:	9f 90       	pop	r9
    1632:	8f 90       	pop	r8
    1634:	7f 90       	pop	r7
    1636:	6f 90       	pop	r6
    1638:	5f 90       	pop	r5
    163a:	4f 90       	pop	r4
    163c:	3f 90       	pop	r3
    163e:	2f 90       	pop	r2
    1640:	08 95       	ret

00001642 <loop>:
	delay(20);
	counter=0;
}

void loop() //Main Loop
{
    1642:	ef 92       	push	r14
    1644:	ff 92       	push	r15
    1646:	0f 93       	push	r16
    1648:	1f 93       	push	r17
	if((millis()-timer)>=20)  // Main loop runs at 50Hz
    164a:	0e 94 96 1a 	call	0x352c	; 0x352c <millis>
    164e:	20 91 e4 01 	lds	r18, 0x01E4
    1652:	30 91 e5 01 	lds	r19, 0x01E5
    1656:	40 91 e6 01 	lds	r20, 0x01E6
    165a:	50 91 e7 01 	lds	r21, 0x01E7
    165e:	62 1b       	sub	r22, r18
    1660:	73 0b       	sbc	r23, r19
    1662:	84 0b       	sbc	r24, r20
    1664:	95 0b       	sbc	r25, r21
    1666:	64 31       	cpi	r22, 0x14	; 20
    1668:	71 05       	cpc	r23, r1
    166a:	81 05       	cpc	r24, r1
    166c:	91 05       	cpc	r25, r1
    166e:	08 f4       	brcc	.+2      	; 0x1672 <loop+0x30>
    1670:	6b c0       	rjmp	.+214    	; 0x1748 <loop+0x106>
	{
		counter++;
    1672:	80 91 96 02 	lds	r24, 0x0296
    1676:	90 91 97 02 	lds	r25, 0x0297
    167a:	01 96       	adiw	r24, 0x01	; 1
    167c:	90 93 97 02 	sts	0x0297, r25
    1680:	80 93 96 02 	sts	0x0296, r24
		timer_old = timer;
    1684:	20 93 e8 01 	sts	0x01E8, r18
    1688:	30 93 e9 01 	sts	0x01E9, r19
    168c:	40 93 ea 01 	sts	0x01EA, r20
    1690:	50 93 eb 01 	sts	0x01EB, r21
		timer=millis();
    1694:	0e 94 96 1a 	call	0x352c	; 0x352c <millis>
    1698:	9b 01       	movw	r18, r22
    169a:	ac 01       	movw	r20, r24
    169c:	20 93 e4 01 	sts	0x01E4, r18
    16a0:	30 93 e5 01 	sts	0x01E5, r19
    16a4:	40 93 e6 01 	sts	0x01E6, r20
    16a8:	50 93 e7 01 	sts	0x01E7, r21
		if (timer>timer_old)
    16ac:	80 91 e8 01 	lds	r24, 0x01E8
    16b0:	90 91 e9 01 	lds	r25, 0x01E9
    16b4:	a0 91 ea 01 	lds	r26, 0x01EA
    16b8:	b0 91 eb 01 	lds	r27, 0x01EB
    16bc:	82 17       	cp	r24, r18
    16be:	93 07       	cpc	r25, r19
    16c0:	a4 07       	cpc	r26, r20
    16c2:	b5 07       	cpc	r27, r21
    16c4:	cc f4       	brge	.+50     	; 0x16f8 <loop+0xb6>
			G_Dt = (timer-timer_old)/1000.0;    // Real time of loop run. We use this on the DCM algorithm (gyro integration time)
    16c6:	79 01       	movw	r14, r18
    16c8:	8a 01       	movw	r16, r20
    16ca:	e8 1a       	sub	r14, r24
    16cc:	f9 0a       	sbc	r15, r25
    16ce:	0a 0b       	sbc	r16, r26
    16d0:	1b 0b       	sbc	r17, r27
    16d2:	c8 01       	movw	r24, r16
    16d4:	b7 01       	movw	r22, r14
    16d6:	0e 94 1e 29 	call	0x523c	; 0x523c <__floatsisf>
    16da:	20 e0       	ldi	r18, 0x00	; 0
    16dc:	30 e0       	ldi	r19, 0x00	; 0
    16de:	4a e7       	ldi	r20, 0x7A	; 122
    16e0:	54 e4       	ldi	r21, 0x44	; 68
    16e2:	0e 94 83 28 	call	0x5106	; 0x5106 <__divsf3>
    16e6:	60 93 4f 01 	sts	0x014F, r22
    16ea:	70 93 50 01 	sts	0x0150, r23
    16ee:	80 93 51 01 	sts	0x0151, r24
    16f2:	90 93 52 01 	sts	0x0152, r25
    16f6:	0b c0       	rjmp	.+22     	; 0x170e <loop+0xcc>
		else
			G_Dt = 0;
    16f8:	80 e0       	ldi	r24, 0x00	; 0
    16fa:	90 e0       	ldi	r25, 0x00	; 0
    16fc:	dc 01       	movw	r26, r24
    16fe:	80 93 4f 01 	sts	0x014F, r24
    1702:	90 93 50 01 	sts	0x0150, r25
    1706:	a0 93 51 01 	sts	0x0151, r26
    170a:	b0 93 52 01 	sts	0x0152, r27

		// *** DCM algorithm
		// Data adquisition
		Read_Gyro();   // This read gyro data
    170e:	0e 94 f1 01 	call	0x3e2	; 0x3e2 <_Z9Read_Gyrov>
		Read_Accel();     // Read I2C accelerometer
    1712:	0e 94 92 02 	call	0x524	; 0x524 <_Z10Read_Accelv>

		if (counter > 5)  // Read compass data at 10Hz... (5 loop runs)
    1716:	80 91 96 02 	lds	r24, 0x0296
    171a:	90 91 97 02 	lds	r25, 0x0297
    171e:	86 30       	cpi	r24, 0x06	; 6
    1720:	91 05       	cpc	r25, r1
    1722:	40 f0       	brcs	.+16     	; 0x1734 <loop+0xf2>
		{
			counter=0;
    1724:	10 92 97 02 	sts	0x0297, r1
    1728:	10 92 96 02 	sts	0x0296, r1
			Read_Compass();    // Read I2C magnetometer
    172c:	0e 94 b5 03 	call	0x76a	; 0x76a <_Z12Read_Compassv>
			Compass_Heading(); // Calculate magnetic heading
    1730:	0e 94 7d 09 	call	0x12fa	; 0x12fa <_Z15Compass_Headingv>
		}

		// Calculations...
		Matrix_update();
    1734:	0e 94 82 07 	call	0xf04	; 0xf04 <_Z13Matrix_updatev>
		Normalize();
    1738:	0e 94 37 05 	call	0xa6e	; 0xa6e <_Z9Normalizev>
		Drift_correction();
    173c:	0e 94 f0 05 	call	0xbe0	; 0xbe0 <_Z16Drift_correctionv>
		Euler_angles();
    1740:	0e 94 35 09 	call	0x126a	; 0x126a <_Z12Euler_anglesv>
		// ***

		printdata();
    1744:	0e 94 db 00 	call	0x1b6	; 0x1b6 <_Z9printdatav>
	}

}
    1748:	1f 91       	pop	r17
    174a:	0f 91       	pop	r16
    174c:	ff 90       	pop	r15
    174e:	ef 90       	pop	r14
    1750:	08 95       	ret

00001752 <_GLOBAL__I_SENSOR_SIGN>:

#include <L3G.h>
#include <LSM303.h>

L3G gyro;
LSM303 compass;
    1752:	8b ec       	ldi	r24, 0xCB	; 203
    1754:	92 e0       	ldi	r25, 0x02	; 2
    1756:	0e 94 f9 21 	call	0x43f2	; 0x43f2 <_ZN6LSM303C1Ev>
	MAG_X = c_magnetom_x*cos_pitch+c_magnetom_y*sin_roll*sin_pitch+c_magnetom_z*cos_roll*sin_pitch;
	// Tilt compensated Magnetic filed Y:
	MAG_Y = c_magnetom_y*cos_roll-c_magnetom_z*sin_roll;
	// Magnetic Heading
	MAG_Heading = atan2(-MAG_Y,MAG_X);
}
    175a:	08 95       	ret

0000175c <_ZN14HardwareSerial9availableEv>:
    175c:	fc 01       	movw	r30, r24
    175e:	84 85       	ldd	r24, Z+12	; 0x0c
    1760:	95 85       	ldd	r25, Z+13	; 0x0d
    1762:	fc 01       	movw	r30, r24
    1764:	e0 5c       	subi	r30, 0xC0	; 192
    1766:	ff 4f       	sbci	r31, 0xFF	; 255
    1768:	20 81       	ld	r18, Z
    176a:	31 81       	ldd	r19, Z+1	; 0x01
    176c:	8e 5b       	subi	r24, 0xBE	; 190
    176e:	9f 4f       	sbci	r25, 0xFF	; 255
    1770:	fc 01       	movw	r30, r24
    1772:	80 81       	ld	r24, Z
    1774:	91 81       	ldd	r25, Z+1	; 0x01
    1776:	28 1b       	sub	r18, r24
    1778:	39 0b       	sbc	r19, r25
    177a:	2f 73       	andi	r18, 0x3F	; 63
    177c:	30 70       	andi	r19, 0x00	; 0
    177e:	c9 01       	movw	r24, r18
    1780:	08 95       	ret

00001782 <_ZN14HardwareSerial4peekEv>:
    1782:	fc 01       	movw	r30, r24
    1784:	84 85       	ldd	r24, Z+12	; 0x0c
    1786:	95 85       	ldd	r25, Z+13	; 0x0d
    1788:	fc 01       	movw	r30, r24
    178a:	e0 5c       	subi	r30, 0xC0	; 192
    178c:	ff 4f       	sbci	r31, 0xFF	; 255
    178e:	40 81       	ld	r20, Z
    1790:	51 81       	ldd	r21, Z+1	; 0x01
    1792:	fc 01       	movw	r30, r24
    1794:	ee 5b       	subi	r30, 0xBE	; 190
    1796:	ff 4f       	sbci	r31, 0xFF	; 255
    1798:	20 81       	ld	r18, Z
    179a:	31 81       	ldd	r19, Z+1	; 0x01
    179c:	42 17       	cp	r20, r18
    179e:	53 07       	cpc	r21, r19
    17a0:	41 f0       	breq	.+16     	; 0x17b2 <_ZN14HardwareSerial4peekEv+0x30>
    17a2:	01 90       	ld	r0, Z+
    17a4:	f0 81       	ld	r31, Z
    17a6:	e0 2d       	mov	r30, r0
    17a8:	e8 0f       	add	r30, r24
    17aa:	f9 1f       	adc	r31, r25
    17ac:	20 81       	ld	r18, Z
    17ae:	30 e0       	ldi	r19, 0x00	; 0
    17b0:	02 c0       	rjmp	.+4      	; 0x17b6 <_ZN14HardwareSerial4peekEv+0x34>
    17b2:	2f ef       	ldi	r18, 0xFF	; 255
    17b4:	3f ef       	ldi	r19, 0xFF	; 255
    17b6:	c9 01       	movw	r24, r18
    17b8:	08 95       	ret

000017ba <_ZN14HardwareSerial4readEv>:
    17ba:	fc 01       	movw	r30, r24
    17bc:	84 85       	ldd	r24, Z+12	; 0x0c
    17be:	95 85       	ldd	r25, Z+13	; 0x0d
    17c0:	fc 01       	movw	r30, r24
    17c2:	e0 5c       	subi	r30, 0xC0	; 192
    17c4:	ff 4f       	sbci	r31, 0xFF	; 255
    17c6:	40 81       	ld	r20, Z
    17c8:	51 81       	ldd	r21, Z+1	; 0x01
    17ca:	fc 01       	movw	r30, r24
    17cc:	ee 5b       	subi	r30, 0xBE	; 190
    17ce:	ff 4f       	sbci	r31, 0xFF	; 255
    17d0:	20 81       	ld	r18, Z
    17d2:	31 81       	ldd	r19, Z+1	; 0x01
    17d4:	42 17       	cp	r20, r18
    17d6:	53 07       	cpc	r21, r19
    17d8:	71 f0       	breq	.+28     	; 0x17f6 <_ZN14HardwareSerial4readEv+0x3c>
    17da:	a0 81       	ld	r26, Z
    17dc:	b1 81       	ldd	r27, Z+1	; 0x01
    17de:	a8 0f       	add	r26, r24
    17e0:	b9 1f       	adc	r27, r25
    17e2:	2c 91       	ld	r18, X
    17e4:	80 81       	ld	r24, Z
    17e6:	91 81       	ldd	r25, Z+1	; 0x01
    17e8:	01 96       	adiw	r24, 0x01	; 1
    17ea:	8f 73       	andi	r24, 0x3F	; 63
    17ec:	90 70       	andi	r25, 0x00	; 0
    17ee:	91 83       	std	Z+1, r25	; 0x01
    17f0:	80 83       	st	Z, r24
    17f2:	30 e0       	ldi	r19, 0x00	; 0
    17f4:	02 c0       	rjmp	.+4      	; 0x17fa <_ZN14HardwareSerial4readEv+0x40>
    17f6:	2f ef       	ldi	r18, 0xFF	; 255
    17f8:	3f ef       	ldi	r19, 0xFF	; 255
    17fa:	c9 01       	movw	r24, r18
    17fc:	08 95       	ret

000017fe <_ZN14HardwareSerial5flushEv>:
    17fe:	fc 01       	movw	r30, r24
    1800:	81 a1       	ldd	r24, Z+33	; 0x21
    1802:	88 23       	and	r24, r24
    1804:	29 f0       	breq	.+10     	; 0x1810 <_ZN14HardwareSerial5flushEv+0x12>
    1806:	a4 89       	ldd	r26, Z+20	; 0x14
    1808:	b5 89       	ldd	r27, Z+21	; 0x15
    180a:	8c 91       	ld	r24, X
    180c:	86 ff       	sbrs	r24, 6
    180e:	fb cf       	rjmp	.-10     	; 0x1806 <_ZN14HardwareSerial5flushEv+0x8>
    1810:	11 a2       	std	Z+33, r1	; 0x21
    1812:	08 95       	ret

00001814 <_ZN14HardwareSerial5writeEh>:
    1814:	fc 01       	movw	r30, r24
    1816:	26 85       	ldd	r18, Z+14	; 0x0e
    1818:	37 85       	ldd	r19, Z+15	; 0x0f
    181a:	d9 01       	movw	r26, r18
    181c:	a0 5c       	subi	r26, 0xC0	; 192
    181e:	bf 4f       	sbci	r27, 0xFF	; 255
    1820:	8d 91       	ld	r24, X+
    1822:	9c 91       	ld	r25, X
    1824:	01 96       	adiw	r24, 0x01	; 1
    1826:	8f 73       	andi	r24, 0x3F	; 63
    1828:	90 70       	andi	r25, 0x00	; 0
    182a:	d9 01       	movw	r26, r18
    182c:	ae 5b       	subi	r26, 0xBE	; 190
    182e:	bf 4f       	sbci	r27, 0xFF	; 255
    1830:	4d 91       	ld	r20, X+
    1832:	5c 91       	ld	r21, X
    1834:	11 97       	sbiw	r26, 0x01	; 1
    1836:	84 17       	cp	r24, r20
    1838:	95 07       	cpc	r25, r21
    183a:	d1 f3       	breq	.-12     	; 0x1830 <_ZN14HardwareSerial5writeEh+0x1c>
    183c:	d9 01       	movw	r26, r18
    183e:	a0 5c       	subi	r26, 0xC0	; 192
    1840:	bf 4f       	sbci	r27, 0xFF	; 255
    1842:	0d 90       	ld	r0, X+
    1844:	bc 91       	ld	r27, X
    1846:	a0 2d       	mov	r26, r0
    1848:	a2 0f       	add	r26, r18
    184a:	b3 1f       	adc	r27, r19
    184c:	6c 93       	st	X, r22
    184e:	a6 85       	ldd	r26, Z+14	; 0x0e
    1850:	b7 85       	ldd	r27, Z+15	; 0x0f
    1852:	a0 5c       	subi	r26, 0xC0	; 192
    1854:	bf 4f       	sbci	r27, 0xFF	; 255
    1856:	11 96       	adiw	r26, 0x01	; 1
    1858:	9c 93       	st	X, r25
    185a:	8e 93       	st	-X, r24
    185c:	a6 89       	ldd	r26, Z+22	; 0x16
    185e:	b7 89       	ldd	r27, Z+23	; 0x17
    1860:	2c 91       	ld	r18, X
    1862:	81 e0       	ldi	r24, 0x01	; 1
    1864:	90 e0       	ldi	r25, 0x00	; 0
    1866:	07 8c       	ldd	r0, Z+31	; 0x1f
    1868:	02 c0       	rjmp	.+4      	; 0x186e <_ZN14HardwareSerial5writeEh+0x5a>
    186a:	88 0f       	add	r24, r24
    186c:	99 1f       	adc	r25, r25
    186e:	0a 94       	dec	r0
    1870:	e2 f7       	brpl	.-8      	; 0x186a <_ZN14HardwareSerial5writeEh+0x56>
    1872:	28 2b       	or	r18, r24
    1874:	2c 93       	st	X, r18
    1876:	81 e0       	ldi	r24, 0x01	; 1
    1878:	81 a3       	std	Z+33, r24	; 0x21
    187a:	04 88       	ldd	r0, Z+20	; 0x14
    187c:	f5 89       	ldd	r31, Z+21	; 0x15
    187e:	e0 2d       	mov	r30, r0
    1880:	80 81       	ld	r24, Z
    1882:	80 64       	ori	r24, 0x40	; 64
    1884:	80 83       	st	Z, r24
    1886:	81 e0       	ldi	r24, 0x01	; 1
    1888:	90 e0       	ldi	r25, 0x00	; 0
    188a:	08 95       	ret

0000188c <_Z10store_charhP11ring_buffer>:
    188c:	fb 01       	movw	r30, r22
    188e:	e0 5c       	subi	r30, 0xC0	; 192
    1890:	ff 4f       	sbci	r31, 0xFF	; 255
    1892:	20 81       	ld	r18, Z
    1894:	31 81       	ldd	r19, Z+1	; 0x01
    1896:	2f 5f       	subi	r18, 0xFF	; 255
    1898:	3f 4f       	sbci	r19, 0xFF	; 255
    189a:	2f 73       	andi	r18, 0x3F	; 63
    189c:	30 70       	andi	r19, 0x00	; 0
    189e:	db 01       	movw	r26, r22
    18a0:	ae 5b       	subi	r26, 0xBE	; 190
    18a2:	bf 4f       	sbci	r27, 0xFF	; 255
    18a4:	4d 91       	ld	r20, X+
    18a6:	5c 91       	ld	r21, X
    18a8:	11 97       	sbiw	r26, 0x01	; 1
    18aa:	24 17       	cp	r18, r20
    18ac:	35 07       	cpc	r19, r21
    18ae:	39 f0       	breq	.+14     	; 0x18be <_Z10store_charhP11ring_buffer+0x32>
    18b0:	a0 81       	ld	r26, Z
    18b2:	b1 81       	ldd	r27, Z+1	; 0x01
    18b4:	a6 0f       	add	r26, r22
    18b6:	b7 1f       	adc	r27, r23
    18b8:	8c 93       	st	X, r24
    18ba:	31 83       	std	Z+1, r19	; 0x01
    18bc:	20 83       	st	Z, r18
    18be:	08 95       	ret

000018c0 <_Z11serialEventv>:
    18c0:	08 95       	ret

000018c2 <__vector_18>:
    18c2:	1f 92       	push	r1
    18c4:	0f 92       	push	r0
    18c6:	0f b6       	in	r0, 0x3f	; 63
    18c8:	0f 92       	push	r0
    18ca:	11 24       	eor	r1, r1
    18cc:	2f 93       	push	r18
    18ce:	3f 93       	push	r19
    18d0:	4f 93       	push	r20
    18d2:	5f 93       	push	r21
    18d4:	6f 93       	push	r22
    18d6:	7f 93       	push	r23
    18d8:	8f 93       	push	r24
    18da:	9f 93       	push	r25
    18dc:	af 93       	push	r26
    18de:	bf 93       	push	r27
    18e0:	ef 93       	push	r30
    18e2:	ff 93       	push	r31
    18e4:	80 91 c0 00 	lds	r24, 0x00C0
    18e8:	82 fd       	sbrc	r24, 2
    18ea:	07 c0       	rjmp	.+14     	; 0x18fa <__vector_18+0x38>
    18ec:	80 91 c6 00 	lds	r24, 0x00C6
    18f0:	69 e1       	ldi	r22, 0x19	; 25
    18f2:	73 e0       	ldi	r23, 0x03	; 3
    18f4:	0e 94 46 0c 	call	0x188c	; 0x188c <_Z10store_charhP11ring_buffer>
    18f8:	02 c0       	rjmp	.+4      	; 0x18fe <__vector_18+0x3c>
    18fa:	80 91 c6 00 	lds	r24, 0x00C6
    18fe:	ff 91       	pop	r31
    1900:	ef 91       	pop	r30
    1902:	bf 91       	pop	r27
    1904:	af 91       	pop	r26
    1906:	9f 91       	pop	r25
    1908:	8f 91       	pop	r24
    190a:	7f 91       	pop	r23
    190c:	6f 91       	pop	r22
    190e:	5f 91       	pop	r21
    1910:	4f 91       	pop	r20
    1912:	3f 91       	pop	r19
    1914:	2f 91       	pop	r18
    1916:	0f 90       	pop	r0
    1918:	0f be       	out	0x3f, r0	; 63
    191a:	0f 90       	pop	r0
    191c:	1f 90       	pop	r1
    191e:	18 95       	reti

00001920 <_Z14serialEventRunv>:
    1920:	81 ea       	ldi	r24, 0xA1	; 161
    1922:	93 e0       	ldi	r25, 0x03	; 3
    1924:	0e 94 ae 0b 	call	0x175c	; 0x175c <_ZN14HardwareSerial9availableEv>
    1928:	00 97       	sbiw	r24, 0x00	; 0
    192a:	11 f0       	breq	.+4      	; 0x1930 <_Z14serialEventRunv+0x10>
    192c:	0e 94 60 0c 	call	0x18c0	; 0x18c0 <_Z11serialEventv>
    1930:	08 95       	ret

00001932 <__vector_19>:
    1932:	1f 92       	push	r1
    1934:	0f 92       	push	r0
    1936:	0f b6       	in	r0, 0x3f	; 63
    1938:	0f 92       	push	r0
    193a:	11 24       	eor	r1, r1
    193c:	2f 93       	push	r18
    193e:	3f 93       	push	r19
    1940:	8f 93       	push	r24
    1942:	9f 93       	push	r25
    1944:	ef 93       	push	r30
    1946:	ff 93       	push	r31
    1948:	20 91 9d 03 	lds	r18, 0x039D
    194c:	30 91 9e 03 	lds	r19, 0x039E
    1950:	80 91 9f 03 	lds	r24, 0x039F
    1954:	90 91 a0 03 	lds	r25, 0x03A0
    1958:	28 17       	cp	r18, r24
    195a:	39 07       	cpc	r19, r25
    195c:	31 f4       	brne	.+12     	; 0x196a <__vector_19+0x38>
    195e:	80 91 c1 00 	lds	r24, 0x00C1
    1962:	8f 7d       	andi	r24, 0xDF	; 223
    1964:	80 93 c1 00 	sts	0x00C1, r24
    1968:	14 c0       	rjmp	.+40     	; 0x1992 <__vector_19+0x60>
    196a:	e0 91 9f 03 	lds	r30, 0x039F
    196e:	f0 91 a0 03 	lds	r31, 0x03A0
    1972:	e3 5a       	subi	r30, 0xA3	; 163
    1974:	fc 4f       	sbci	r31, 0xFC	; 252
    1976:	20 81       	ld	r18, Z
    1978:	80 91 9f 03 	lds	r24, 0x039F
    197c:	90 91 a0 03 	lds	r25, 0x03A0
    1980:	01 96       	adiw	r24, 0x01	; 1
    1982:	8f 73       	andi	r24, 0x3F	; 63
    1984:	90 70       	andi	r25, 0x00	; 0
    1986:	90 93 a0 03 	sts	0x03A0, r25
    198a:	80 93 9f 03 	sts	0x039F, r24
    198e:	20 93 c6 00 	sts	0x00C6, r18
    1992:	ff 91       	pop	r31
    1994:	ef 91       	pop	r30
    1996:	9f 91       	pop	r25
    1998:	8f 91       	pop	r24
    199a:	3f 91       	pop	r19
    199c:	2f 91       	pop	r18
    199e:	0f 90       	pop	r0
    19a0:	0f be       	out	0x3f, r0	; 63
    19a2:	0f 90       	pop	r0
    19a4:	1f 90       	pop	r1
    19a6:	18 95       	reti

000019a8 <_ZN14HardwareSerialC1EP11ring_bufferS1_PVhS3_S3_S3_S3_S3_hhhhh>:
    19a8:	8f 92       	push	r8
    19aa:	9f 92       	push	r9
    19ac:	af 92       	push	r10
    19ae:	bf 92       	push	r11
    19b0:	cf 92       	push	r12
    19b2:	df 92       	push	r13
    19b4:	ef 92       	push	r14
    19b6:	ff 92       	push	r15
    19b8:	0f 93       	push	r16
    19ba:	1f 93       	push	r17
    19bc:	df 93       	push	r29
    19be:	cf 93       	push	r28
    19c0:	cd b7       	in	r28, 0x3d	; 61
    19c2:	de b7       	in	r29, 0x3e	; 62
    19c4:	fc 01       	movw	r30, r24
    19c6:	13 82       	std	Z+3, r1	; 0x03
    19c8:	12 82       	std	Z+2, r1	; 0x02
    19ca:	88 ee       	ldi	r24, 0xE8	; 232
    19cc:	93 e0       	ldi	r25, 0x03	; 3
    19ce:	a0 e0       	ldi	r26, 0x00	; 0
    19d0:	b0 e0       	ldi	r27, 0x00	; 0
    19d2:	84 83       	std	Z+4, r24	; 0x04
    19d4:	95 83       	std	Z+5, r25	; 0x05
    19d6:	a6 83       	std	Z+6, r26	; 0x06
    19d8:	b7 83       	std	Z+7, r27	; 0x07
    19da:	8f e9       	ldi	r24, 0x9F	; 159
    19dc:	91 e0       	ldi	r25, 0x01	; 1
    19de:	91 83       	std	Z+1, r25	; 0x01
    19e0:	80 83       	st	Z, r24
    19e2:	75 87       	std	Z+13, r23	; 0x0d
    19e4:	64 87       	std	Z+12, r22	; 0x0c
    19e6:	57 87       	std	Z+15, r21	; 0x0f
    19e8:	46 87       	std	Z+14, r20	; 0x0e
    19ea:	31 8b       	std	Z+17, r19	; 0x11
    19ec:	20 8b       	std	Z+16, r18	; 0x10
    19ee:	13 8b       	std	Z+19, r17	; 0x13
    19f0:	02 8b       	std	Z+18, r16	; 0x12
    19f2:	f5 8a       	std	Z+21, r15	; 0x15
    19f4:	e4 8a       	std	Z+20, r14	; 0x14
    19f6:	d7 8a       	std	Z+23, r13	; 0x17
    19f8:	c6 8a       	std	Z+22, r12	; 0x16
    19fa:	b1 8e       	std	Z+25, r11	; 0x19
    19fc:	a0 8e       	std	Z+24, r10	; 0x18
    19fe:	93 8e       	std	Z+27, r9	; 0x1b
    1a00:	82 8e       	std	Z+26, r8	; 0x1a
    1a02:	8f 85       	ldd	r24, Y+15	; 0x0f
    1a04:	84 8f       	std	Z+28, r24	; 0x1c
    1a06:	88 89       	ldd	r24, Y+16	; 0x10
    1a08:	85 8f       	std	Z+29, r24	; 0x1d
    1a0a:	89 89       	ldd	r24, Y+17	; 0x11
    1a0c:	86 8f       	std	Z+30, r24	; 0x1e
    1a0e:	8a 89       	ldd	r24, Y+18	; 0x12
    1a10:	87 8f       	std	Z+31, r24	; 0x1f
    1a12:	8b 89       	ldd	r24, Y+19	; 0x13
    1a14:	80 a3       	std	Z+32, r24	; 0x20
    1a16:	cf 91       	pop	r28
    1a18:	df 91       	pop	r29
    1a1a:	1f 91       	pop	r17
    1a1c:	0f 91       	pop	r16
    1a1e:	ff 90       	pop	r15
    1a20:	ef 90       	pop	r14
    1a22:	df 90       	pop	r13
    1a24:	cf 90       	pop	r12
    1a26:	bf 90       	pop	r11
    1a28:	af 90       	pop	r10
    1a2a:	9f 90       	pop	r9
    1a2c:	8f 90       	pop	r8
    1a2e:	08 95       	ret

00001a30 <_ZN14HardwareSerial5beginEm>:
    1a30:	df 92       	push	r13
    1a32:	ef 92       	push	r14
    1a34:	ff 92       	push	r15
    1a36:	0f 93       	push	r16
    1a38:	1f 93       	push	r17
    1a3a:	cf 93       	push	r28
    1a3c:	df 93       	push	r29
    1a3e:	ec 01       	movw	r28, r24
    1a40:	7a 01       	movw	r14, r20
    1a42:	8b 01       	movw	r16, r22
    1a44:	dd 24       	eor	r13, r13
    1a46:	d3 94       	inc	r13
    1a48:	40 30       	cpi	r20, 0x00	; 0
    1a4a:	81 ee       	ldi	r24, 0xE1	; 225
    1a4c:	58 07       	cpc	r21, r24
    1a4e:	80 e0       	ldi	r24, 0x00	; 0
    1a50:	68 07       	cpc	r22, r24
    1a52:	80 e0       	ldi	r24, 0x00	; 0
    1a54:	78 07       	cpc	r23, r24
    1a56:	49 f4       	brne	.+18     	; 0x1a6a <_ZN14HardwareSerial5beginEm+0x3a>
    1a58:	dd 24       	eor	r13, r13
    1a5a:	ec 89       	ldd	r30, Y+20	; 0x14
    1a5c:	fd 89       	ldd	r31, Y+21	; 0x15
    1a5e:	10 82       	st	Z, r1
    1a60:	60 e8       	ldi	r22, 0x80	; 128
    1a62:	74 e8       	ldi	r23, 0x84	; 132
    1a64:	8e e1       	ldi	r24, 0x1E	; 30
    1a66:	90 e0       	ldi	r25, 0x00	; 0
    1a68:	0f c0       	rjmp	.+30     	; 0x1a88 <_ZN14HardwareSerial5beginEm+0x58>
    1a6a:	ec 89       	ldd	r30, Y+20	; 0x14
    1a6c:	fd 89       	ldd	r31, Y+21	; 0x15
    1a6e:	81 e0       	ldi	r24, 0x01	; 1
    1a70:	90 e0       	ldi	r25, 0x00	; 0
    1a72:	08 a0       	ldd	r0, Y+32	; 0x20
    1a74:	02 c0       	rjmp	.+4      	; 0x1a7a <_ZN14HardwareSerial5beginEm+0x4a>
    1a76:	88 0f       	add	r24, r24
    1a78:	99 1f       	adc	r25, r25
    1a7a:	0a 94       	dec	r0
    1a7c:	e2 f7       	brpl	.-8      	; 0x1a76 <_ZN14HardwareSerial5beginEm+0x46>
    1a7e:	80 83       	st	Z, r24
    1a80:	60 e0       	ldi	r22, 0x00	; 0
    1a82:	79 e0       	ldi	r23, 0x09	; 9
    1a84:	8d e3       	ldi	r24, 0x3D	; 61
    1a86:	90 e0       	ldi	r25, 0x00	; 0
    1a88:	a8 01       	movw	r20, r16
    1a8a:	97 01       	movw	r18, r14
    1a8c:	0e 94 3d 2b 	call	0x567a	; 0x567a <__udivmodsi4>
    1a90:	21 50       	subi	r18, 0x01	; 1
    1a92:	30 40       	sbci	r19, 0x00	; 0
    1a94:	40 40       	sbci	r20, 0x00	; 0
    1a96:	50 40       	sbci	r21, 0x00	; 0
    1a98:	56 95       	lsr	r21
    1a9a:	47 95       	ror	r20
    1a9c:	37 95       	ror	r19
    1a9e:	27 95       	ror	r18
    1aa0:	80 e1       	ldi	r24, 0x10	; 16
    1aa2:	20 30       	cpi	r18, 0x00	; 0
    1aa4:	38 07       	cpc	r19, r24
    1aa6:	10 f0       	brcs	.+4      	; 0x1aac <_ZN14HardwareSerial5beginEm+0x7c>
    1aa8:	dd 20       	and	r13, r13
    1aaa:	b1 f6       	brne	.-84     	; 0x1a58 <_ZN14HardwareSerial5beginEm+0x28>
    1aac:	e8 89       	ldd	r30, Y+16	; 0x10
    1aae:	f9 89       	ldd	r31, Y+17	; 0x11
    1ab0:	30 83       	st	Z, r19
    1ab2:	ea 89       	ldd	r30, Y+18	; 0x12
    1ab4:	fb 89       	ldd	r31, Y+19	; 0x13
    1ab6:	20 83       	st	Z, r18
    1ab8:	19 a2       	std	Y+33, r1	; 0x21
    1aba:	ee 89       	ldd	r30, Y+22	; 0x16
    1abc:	ff 89       	ldd	r31, Y+23	; 0x17
    1abe:	40 81       	ld	r20, Z
    1ac0:	81 e0       	ldi	r24, 0x01	; 1
    1ac2:	90 e0       	ldi	r25, 0x00	; 0
    1ac4:	9c 01       	movw	r18, r24
    1ac6:	0c 8c       	ldd	r0, Y+28	; 0x1c
    1ac8:	02 c0       	rjmp	.+4      	; 0x1ace <_ZN14HardwareSerial5beginEm+0x9e>
    1aca:	22 0f       	add	r18, r18
    1acc:	33 1f       	adc	r19, r19
    1ace:	0a 94       	dec	r0
    1ad0:	e2 f7       	brpl	.-8      	; 0x1aca <_ZN14HardwareSerial5beginEm+0x9a>
    1ad2:	42 2b       	or	r20, r18
    1ad4:	40 83       	st	Z, r20
    1ad6:	ee 89       	ldd	r30, Y+22	; 0x16
    1ad8:	ff 89       	ldd	r31, Y+23	; 0x17
    1ada:	40 81       	ld	r20, Z
    1adc:	9c 01       	movw	r18, r24
    1ade:	0d 8c       	ldd	r0, Y+29	; 0x1d
    1ae0:	02 c0       	rjmp	.+4      	; 0x1ae6 <_ZN14HardwareSerial5beginEm+0xb6>
    1ae2:	22 0f       	add	r18, r18
    1ae4:	33 1f       	adc	r19, r19
    1ae6:	0a 94       	dec	r0
    1ae8:	e2 f7       	brpl	.-8      	; 0x1ae2 <_ZN14HardwareSerial5beginEm+0xb2>
    1aea:	42 2b       	or	r20, r18
    1aec:	40 83       	st	Z, r20
    1aee:	ee 89       	ldd	r30, Y+22	; 0x16
    1af0:	ff 89       	ldd	r31, Y+23	; 0x17
    1af2:	40 81       	ld	r20, Z
    1af4:	9c 01       	movw	r18, r24
    1af6:	0e 8c       	ldd	r0, Y+30	; 0x1e
    1af8:	02 c0       	rjmp	.+4      	; 0x1afe <_ZN14HardwareSerial5beginEm+0xce>
    1afa:	22 0f       	add	r18, r18
    1afc:	33 1f       	adc	r19, r19
    1afe:	0a 94       	dec	r0
    1b00:	e2 f7       	brpl	.-8      	; 0x1afa <_ZN14HardwareSerial5beginEm+0xca>
    1b02:	42 2b       	or	r20, r18
    1b04:	40 83       	st	Z, r20
    1b06:	ee 89       	ldd	r30, Y+22	; 0x16
    1b08:	ff 89       	ldd	r31, Y+23	; 0x17
    1b0a:	20 81       	ld	r18, Z
    1b0c:	0f 8c       	ldd	r0, Y+31	; 0x1f
    1b0e:	02 c0       	rjmp	.+4      	; 0x1b14 <_ZN14HardwareSerial5beginEm+0xe4>
    1b10:	88 0f       	add	r24, r24
    1b12:	99 1f       	adc	r25, r25
    1b14:	0a 94       	dec	r0
    1b16:	e2 f7       	brpl	.-8      	; 0x1b10 <_ZN14HardwareSerial5beginEm+0xe0>
    1b18:	80 95       	com	r24
    1b1a:	82 23       	and	r24, r18
    1b1c:	80 83       	st	Z, r24
    1b1e:	df 91       	pop	r29
    1b20:	cf 91       	pop	r28
    1b22:	1f 91       	pop	r17
    1b24:	0f 91       	pop	r16
    1b26:	ff 90       	pop	r15
    1b28:	ef 90       	pop	r14
    1b2a:	df 90       	pop	r13
    1b2c:	08 95       	ret

00001b2e <_ZN14HardwareSerial5beginEmh>:
    1b2e:	cf 92       	push	r12
    1b30:	df 92       	push	r13
    1b32:	ef 92       	push	r14
    1b34:	ff 92       	push	r15
    1b36:	0f 93       	push	r16
    1b38:	1f 93       	push	r17
    1b3a:	cf 93       	push	r28
    1b3c:	df 93       	push	r29
    1b3e:	ec 01       	movw	r28, r24
    1b40:	7a 01       	movw	r14, r20
    1b42:	8b 01       	movw	r16, r22
    1b44:	c2 2e       	mov	r12, r18
    1b46:	dd 24       	eor	r13, r13
    1b48:	d3 94       	inc	r13
    1b4a:	40 30       	cpi	r20, 0x00	; 0
    1b4c:	81 ee       	ldi	r24, 0xE1	; 225
    1b4e:	58 07       	cpc	r21, r24
    1b50:	80 e0       	ldi	r24, 0x00	; 0
    1b52:	68 07       	cpc	r22, r24
    1b54:	80 e0       	ldi	r24, 0x00	; 0
    1b56:	78 07       	cpc	r23, r24
    1b58:	49 f4       	brne	.+18     	; 0x1b6c <_ZN14HardwareSerial5beginEmh+0x3e>
    1b5a:	dd 24       	eor	r13, r13
    1b5c:	ec 89       	ldd	r30, Y+20	; 0x14
    1b5e:	fd 89       	ldd	r31, Y+21	; 0x15
    1b60:	10 82       	st	Z, r1
    1b62:	60 e8       	ldi	r22, 0x80	; 128
    1b64:	74 e8       	ldi	r23, 0x84	; 132
    1b66:	8e e1       	ldi	r24, 0x1E	; 30
    1b68:	90 e0       	ldi	r25, 0x00	; 0
    1b6a:	0f c0       	rjmp	.+30     	; 0x1b8a <_ZN14HardwareSerial5beginEmh+0x5c>
    1b6c:	ec 89       	ldd	r30, Y+20	; 0x14
    1b6e:	fd 89       	ldd	r31, Y+21	; 0x15
    1b70:	81 e0       	ldi	r24, 0x01	; 1
    1b72:	90 e0       	ldi	r25, 0x00	; 0
    1b74:	08 a0       	ldd	r0, Y+32	; 0x20
    1b76:	02 c0       	rjmp	.+4      	; 0x1b7c <_ZN14HardwareSerial5beginEmh+0x4e>
    1b78:	88 0f       	add	r24, r24
    1b7a:	99 1f       	adc	r25, r25
    1b7c:	0a 94       	dec	r0
    1b7e:	e2 f7       	brpl	.-8      	; 0x1b78 <_ZN14HardwareSerial5beginEmh+0x4a>
    1b80:	80 83       	st	Z, r24
    1b82:	60 e0       	ldi	r22, 0x00	; 0
    1b84:	79 e0       	ldi	r23, 0x09	; 9
    1b86:	8d e3       	ldi	r24, 0x3D	; 61
    1b88:	90 e0       	ldi	r25, 0x00	; 0
    1b8a:	a8 01       	movw	r20, r16
    1b8c:	97 01       	movw	r18, r14
    1b8e:	0e 94 3d 2b 	call	0x567a	; 0x567a <__udivmodsi4>
    1b92:	21 50       	subi	r18, 0x01	; 1
    1b94:	30 40       	sbci	r19, 0x00	; 0
    1b96:	40 40       	sbci	r20, 0x00	; 0
    1b98:	50 40       	sbci	r21, 0x00	; 0
    1b9a:	56 95       	lsr	r21
    1b9c:	47 95       	ror	r20
    1b9e:	37 95       	ror	r19
    1ba0:	27 95       	ror	r18
    1ba2:	80 e1       	ldi	r24, 0x10	; 16
    1ba4:	20 30       	cpi	r18, 0x00	; 0
    1ba6:	38 07       	cpc	r19, r24
    1ba8:	10 f0       	brcs	.+4      	; 0x1bae <_ZN14HardwareSerial5beginEmh+0x80>
    1baa:	dd 20       	and	r13, r13
    1bac:	b1 f6       	brne	.-84     	; 0x1b5a <_ZN14HardwareSerial5beginEmh+0x2c>
    1bae:	e8 89       	ldd	r30, Y+16	; 0x10
    1bb0:	f9 89       	ldd	r31, Y+17	; 0x11
    1bb2:	30 83       	st	Z, r19
    1bb4:	ea 89       	ldd	r30, Y+18	; 0x12
    1bb6:	fb 89       	ldd	r31, Y+19	; 0x13
    1bb8:	20 83       	st	Z, r18
    1bba:	e8 8d       	ldd	r30, Y+24	; 0x18
    1bbc:	f9 8d       	ldd	r31, Y+25	; 0x19
    1bbe:	c0 82       	st	Z, r12
    1bc0:	ee 89       	ldd	r30, Y+22	; 0x16
    1bc2:	ff 89       	ldd	r31, Y+23	; 0x17
    1bc4:	40 81       	ld	r20, Z
    1bc6:	81 e0       	ldi	r24, 0x01	; 1
    1bc8:	90 e0       	ldi	r25, 0x00	; 0
    1bca:	9c 01       	movw	r18, r24
    1bcc:	0c 8c       	ldd	r0, Y+28	; 0x1c
    1bce:	02 c0       	rjmp	.+4      	; 0x1bd4 <_ZN14HardwareSerial5beginEmh+0xa6>
    1bd0:	22 0f       	add	r18, r18
    1bd2:	33 1f       	adc	r19, r19
    1bd4:	0a 94       	dec	r0
    1bd6:	e2 f7       	brpl	.-8      	; 0x1bd0 <_ZN14HardwareSerial5beginEmh+0xa2>
    1bd8:	42 2b       	or	r20, r18
    1bda:	40 83       	st	Z, r20
    1bdc:	ee 89       	ldd	r30, Y+22	; 0x16
    1bde:	ff 89       	ldd	r31, Y+23	; 0x17
    1be0:	40 81       	ld	r20, Z
    1be2:	9c 01       	movw	r18, r24
    1be4:	0d 8c       	ldd	r0, Y+29	; 0x1d
    1be6:	02 c0       	rjmp	.+4      	; 0x1bec <_ZN14HardwareSerial5beginEmh+0xbe>
    1be8:	22 0f       	add	r18, r18
    1bea:	33 1f       	adc	r19, r19
    1bec:	0a 94       	dec	r0
    1bee:	e2 f7       	brpl	.-8      	; 0x1be8 <_ZN14HardwareSerial5beginEmh+0xba>
    1bf0:	42 2b       	or	r20, r18
    1bf2:	40 83       	st	Z, r20
    1bf4:	ee 89       	ldd	r30, Y+22	; 0x16
    1bf6:	ff 89       	ldd	r31, Y+23	; 0x17
    1bf8:	40 81       	ld	r20, Z
    1bfa:	9c 01       	movw	r18, r24
    1bfc:	0e 8c       	ldd	r0, Y+30	; 0x1e
    1bfe:	02 c0       	rjmp	.+4      	; 0x1c04 <_ZN14HardwareSerial5beginEmh+0xd6>
    1c00:	22 0f       	add	r18, r18
    1c02:	33 1f       	adc	r19, r19
    1c04:	0a 94       	dec	r0
    1c06:	e2 f7       	brpl	.-8      	; 0x1c00 <_ZN14HardwareSerial5beginEmh+0xd2>
    1c08:	42 2b       	or	r20, r18
    1c0a:	40 83       	st	Z, r20
    1c0c:	ee 89       	ldd	r30, Y+22	; 0x16
    1c0e:	ff 89       	ldd	r31, Y+23	; 0x17
    1c10:	20 81       	ld	r18, Z
    1c12:	0f 8c       	ldd	r0, Y+31	; 0x1f
    1c14:	02 c0       	rjmp	.+4      	; 0x1c1a <_ZN14HardwareSerial5beginEmh+0xec>
    1c16:	88 0f       	add	r24, r24
    1c18:	99 1f       	adc	r25, r25
    1c1a:	0a 94       	dec	r0
    1c1c:	e2 f7       	brpl	.-8      	; 0x1c16 <_ZN14HardwareSerial5beginEmh+0xe8>
    1c1e:	80 95       	com	r24
    1c20:	82 23       	and	r24, r18
    1c22:	80 83       	st	Z, r24
    1c24:	df 91       	pop	r29
    1c26:	cf 91       	pop	r28
    1c28:	1f 91       	pop	r17
    1c2a:	0f 91       	pop	r16
    1c2c:	ff 90       	pop	r15
    1c2e:	ef 90       	pop	r14
    1c30:	df 90       	pop	r13
    1c32:	cf 90       	pop	r12
    1c34:	08 95       	ret

00001c36 <_ZN14HardwareSerial3endEv>:
    1c36:	cf 93       	push	r28
    1c38:	df 93       	push	r29
    1c3a:	fc 01       	movw	r30, r24
    1c3c:	86 85       	ldd	r24, Z+14	; 0x0e
    1c3e:	97 85       	ldd	r25, Z+15	; 0x0f
    1c40:	dc 01       	movw	r26, r24
    1c42:	a0 5c       	subi	r26, 0xC0	; 192
    1c44:	bf 4f       	sbci	r27, 0xFF	; 255
    1c46:	8e 5b       	subi	r24, 0xBE	; 190
    1c48:	9f 4f       	sbci	r25, 0xFF	; 255
    1c4a:	4d 91       	ld	r20, X+
    1c4c:	5c 91       	ld	r21, X
    1c4e:	11 97       	sbiw	r26, 0x01	; 1
    1c50:	ec 01       	movw	r28, r24
    1c52:	28 81       	ld	r18, Y
    1c54:	39 81       	ldd	r19, Y+1	; 0x01
    1c56:	42 17       	cp	r20, r18
    1c58:	53 07       	cpc	r21, r19
    1c5a:	b9 f7       	brne	.-18     	; 0x1c4a <_ZN14HardwareSerial3endEv+0x14>
    1c5c:	a6 89       	ldd	r26, Z+22	; 0x16
    1c5e:	b7 89       	ldd	r27, Z+23	; 0x17
    1c60:	4c 91       	ld	r20, X
    1c62:	81 e0       	ldi	r24, 0x01	; 1
    1c64:	90 e0       	ldi	r25, 0x00	; 0
    1c66:	9c 01       	movw	r18, r24
    1c68:	04 8c       	ldd	r0, Z+28	; 0x1c
    1c6a:	02 c0       	rjmp	.+4      	; 0x1c70 <_ZN14HardwareSerial3endEv+0x3a>
    1c6c:	22 0f       	add	r18, r18
    1c6e:	33 1f       	adc	r19, r19
    1c70:	0a 94       	dec	r0
    1c72:	e2 f7       	brpl	.-8      	; 0x1c6c <_ZN14HardwareSerial3endEv+0x36>
    1c74:	20 95       	com	r18
    1c76:	24 23       	and	r18, r20
    1c78:	2c 93       	st	X, r18
    1c7a:	a6 89       	ldd	r26, Z+22	; 0x16
    1c7c:	b7 89       	ldd	r27, Z+23	; 0x17
    1c7e:	4c 91       	ld	r20, X
    1c80:	9c 01       	movw	r18, r24
    1c82:	05 8c       	ldd	r0, Z+29	; 0x1d
    1c84:	02 c0       	rjmp	.+4      	; 0x1c8a <_ZN14HardwareSerial3endEv+0x54>
    1c86:	22 0f       	add	r18, r18
    1c88:	33 1f       	adc	r19, r19
    1c8a:	0a 94       	dec	r0
    1c8c:	e2 f7       	brpl	.-8      	; 0x1c86 <_ZN14HardwareSerial3endEv+0x50>
    1c8e:	20 95       	com	r18
    1c90:	24 23       	and	r18, r20
    1c92:	2c 93       	st	X, r18
    1c94:	a6 89       	ldd	r26, Z+22	; 0x16
    1c96:	b7 89       	ldd	r27, Z+23	; 0x17
    1c98:	4c 91       	ld	r20, X
    1c9a:	9c 01       	movw	r18, r24
    1c9c:	06 8c       	ldd	r0, Z+30	; 0x1e
    1c9e:	02 c0       	rjmp	.+4      	; 0x1ca4 <_ZN14HardwareSerial3endEv+0x6e>
    1ca0:	22 0f       	add	r18, r18
    1ca2:	33 1f       	adc	r19, r19
    1ca4:	0a 94       	dec	r0
    1ca6:	e2 f7       	brpl	.-8      	; 0x1ca0 <_ZN14HardwareSerial3endEv+0x6a>
    1ca8:	20 95       	com	r18
    1caa:	24 23       	and	r18, r20
    1cac:	2c 93       	st	X, r18
    1cae:	a6 89       	ldd	r26, Z+22	; 0x16
    1cb0:	b7 89       	ldd	r27, Z+23	; 0x17
    1cb2:	2c 91       	ld	r18, X
    1cb4:	07 8c       	ldd	r0, Z+31	; 0x1f
    1cb6:	02 c0       	rjmp	.+4      	; 0x1cbc <_ZN14HardwareSerial3endEv+0x86>
    1cb8:	88 0f       	add	r24, r24
    1cba:	99 1f       	adc	r25, r25
    1cbc:	0a 94       	dec	r0
    1cbe:	e2 f7       	brpl	.-8      	; 0x1cb8 <_ZN14HardwareSerial3endEv+0x82>
    1cc0:	80 95       	com	r24
    1cc2:	82 23       	and	r24, r18
    1cc4:	8c 93       	st	X, r24
    1cc6:	84 85       	ldd	r24, Z+12	; 0x0c
    1cc8:	95 85       	ldd	r25, Z+13	; 0x0d
    1cca:	fc 01       	movw	r30, r24
    1ccc:	ee 5b       	subi	r30, 0xBE	; 190
    1cce:	ff 4f       	sbci	r31, 0xFF	; 255
    1cd0:	20 81       	ld	r18, Z
    1cd2:	31 81       	ldd	r19, Z+1	; 0x01
    1cd4:	80 5c       	subi	r24, 0xC0	; 192
    1cd6:	9f 4f       	sbci	r25, 0xFF	; 255
    1cd8:	fc 01       	movw	r30, r24
    1cda:	31 83       	std	Z+1, r19	; 0x01
    1cdc:	20 83       	st	Z, r18
    1cde:	df 91       	pop	r29
    1ce0:	cf 91       	pop	r28
    1ce2:	08 95       	ret

00001ce4 <_ZN14HardwareSerialcvbEv>:
    1ce4:	81 e0       	ldi	r24, 0x01	; 1
    1ce6:	08 95       	ret

00001ce8 <_GLOBAL__I_rx_buffer>:
    1ce8:	10 92 a4 03 	sts	0x03A4, r1
    1cec:	10 92 a3 03 	sts	0x03A3, r1
    1cf0:	88 ee       	ldi	r24, 0xE8	; 232
    1cf2:	93 e0       	ldi	r25, 0x03	; 3
    1cf4:	a0 e0       	ldi	r26, 0x00	; 0
    1cf6:	b0 e0       	ldi	r27, 0x00	; 0
    1cf8:	80 93 a5 03 	sts	0x03A5, r24
    1cfc:	90 93 a6 03 	sts	0x03A6, r25
    1d00:	a0 93 a7 03 	sts	0x03A7, r26
    1d04:	b0 93 a8 03 	sts	0x03A8, r27
    1d08:	e3 ea       	ldi	r30, 0xA3	; 163
    1d0a:	f3 e0       	ldi	r31, 0x03	; 3
    1d0c:	8f e9       	ldi	r24, 0x9F	; 159
    1d0e:	91 e0       	ldi	r25, 0x01	; 1
    1d10:	92 93       	st	-Z, r25
    1d12:	82 93       	st	-Z, r24
    1d14:	89 e1       	ldi	r24, 0x19	; 25
    1d16:	93 e0       	ldi	r25, 0x03	; 3
    1d18:	95 87       	std	Z+13, r25	; 0x0d
    1d1a:	84 87       	std	Z+12, r24	; 0x0c
    1d1c:	8d e5       	ldi	r24, 0x5D	; 93
    1d1e:	93 e0       	ldi	r25, 0x03	; 3
    1d20:	97 87       	std	Z+15, r25	; 0x0f
    1d22:	86 87       	std	Z+14, r24	; 0x0e
    1d24:	85 ec       	ldi	r24, 0xC5	; 197
    1d26:	90 e0       	ldi	r25, 0x00	; 0
    1d28:	91 8b       	std	Z+17, r25	; 0x11
    1d2a:	80 8b       	std	Z+16, r24	; 0x10
    1d2c:	84 ec       	ldi	r24, 0xC4	; 196
    1d2e:	90 e0       	ldi	r25, 0x00	; 0
    1d30:	93 8b       	std	Z+19, r25	; 0x13
    1d32:	82 8b       	std	Z+18, r24	; 0x12
    1d34:	80 ec       	ldi	r24, 0xC0	; 192
    1d36:	90 e0       	ldi	r25, 0x00	; 0
    1d38:	95 8b       	std	Z+21, r25	; 0x15
    1d3a:	84 8b       	std	Z+20, r24	; 0x14
    1d3c:	81 ec       	ldi	r24, 0xC1	; 193
    1d3e:	90 e0       	ldi	r25, 0x00	; 0
    1d40:	97 8b       	std	Z+23, r25	; 0x17
    1d42:	86 8b       	std	Z+22, r24	; 0x16
    1d44:	82 ec       	ldi	r24, 0xC2	; 194
    1d46:	90 e0       	ldi	r25, 0x00	; 0
    1d48:	91 8f       	std	Z+25, r25	; 0x19
    1d4a:	80 8f       	std	Z+24, r24	; 0x18
    1d4c:	86 ec       	ldi	r24, 0xC6	; 198
    1d4e:	90 e0       	ldi	r25, 0x00	; 0
    1d50:	93 8f       	std	Z+27, r25	; 0x1b
    1d52:	82 8f       	std	Z+26, r24	; 0x1a
    1d54:	84 e0       	ldi	r24, 0x04	; 4
    1d56:	84 8f       	std	Z+28, r24	; 0x1c
    1d58:	83 e0       	ldi	r24, 0x03	; 3
    1d5a:	85 8f       	std	Z+29, r24	; 0x1d
    1d5c:	87 e0       	ldi	r24, 0x07	; 7
    1d5e:	86 8f       	std	Z+30, r24	; 0x1e
    1d60:	85 e0       	ldi	r24, 0x05	; 5
    1d62:	87 8f       	std	Z+31, r24	; 0x1f
    1d64:	81 e0       	ldi	r24, 0x01	; 1
    1d66:	80 a3       	std	Z+32, r24	; 0x20
    1d68:	08 95       	ret

00001d6a <_ZN5Print5writeEPKhj>:
    1d6a:	cf 92       	push	r12
    1d6c:	df 92       	push	r13
    1d6e:	ef 92       	push	r14
    1d70:	ff 92       	push	r15
    1d72:	0f 93       	push	r16
    1d74:	1f 93       	push	r17
    1d76:	cf 93       	push	r28
    1d78:	df 93       	push	r29
    1d7a:	6c 01       	movw	r12, r24
    1d7c:	7b 01       	movw	r14, r22
    1d7e:	8a 01       	movw	r16, r20
    1d80:	c0 e0       	ldi	r28, 0x00	; 0
    1d82:	d0 e0       	ldi	r29, 0x00	; 0
    1d84:	0f c0       	rjmp	.+30     	; 0x1da4 <_ZN5Print5writeEPKhj+0x3a>
    1d86:	d7 01       	movw	r26, r14
    1d88:	6d 91       	ld	r22, X+
    1d8a:	7d 01       	movw	r14, r26
    1d8c:	d6 01       	movw	r26, r12
    1d8e:	ed 91       	ld	r30, X+
    1d90:	fc 91       	ld	r31, X
    1d92:	01 90       	ld	r0, Z+
    1d94:	f0 81       	ld	r31, Z
    1d96:	e0 2d       	mov	r30, r0
    1d98:	c6 01       	movw	r24, r12
    1d9a:	09 95       	icall
    1d9c:	c8 0f       	add	r28, r24
    1d9e:	d9 1f       	adc	r29, r25
    1da0:	01 50       	subi	r16, 0x01	; 1
    1da2:	10 40       	sbci	r17, 0x00	; 0
    1da4:	01 15       	cp	r16, r1
    1da6:	11 05       	cpc	r17, r1
    1da8:	71 f7       	brne	.-36     	; 0x1d86 <_ZN5Print5writeEPKhj+0x1c>
    1daa:	ce 01       	movw	r24, r28
    1dac:	df 91       	pop	r29
    1dae:	cf 91       	pop	r28
    1db0:	1f 91       	pop	r17
    1db2:	0f 91       	pop	r16
    1db4:	ff 90       	pop	r15
    1db6:	ef 90       	pop	r14
    1db8:	df 90       	pop	r13
    1dba:	cf 90       	pop	r12
    1dbc:	08 95       	ret

00001dbe <_ZN5Print5writeEPKc>:
    1dbe:	61 15       	cp	r22, r1
    1dc0:	71 05       	cpc	r23, r1
    1dc2:	91 f0       	breq	.+36     	; 0x1de8 <_ZN5Print5writeEPKc+0x2a>
    1dc4:	db 01       	movw	r26, r22
    1dc6:	0d 90       	ld	r0, X+
    1dc8:	00 20       	and	r0, r0
    1dca:	e9 f7       	brne	.-6      	; 0x1dc6 <_ZN5Print5writeEPKc+0x8>
    1dcc:	ad 01       	movw	r20, r26
    1dce:	41 50       	subi	r20, 0x01	; 1
    1dd0:	50 40       	sbci	r21, 0x00	; 0
    1dd2:	46 1b       	sub	r20, r22
    1dd4:	57 0b       	sbc	r21, r23
    1dd6:	dc 01       	movw	r26, r24
    1dd8:	ed 91       	ld	r30, X+
    1dda:	fc 91       	ld	r31, X
    1ddc:	02 80       	ldd	r0, Z+2	; 0x02
    1dde:	f3 81       	ldd	r31, Z+3	; 0x03
    1de0:	e0 2d       	mov	r30, r0
    1de2:	09 95       	icall
    1de4:	9c 01       	movw	r18, r24
    1de6:	02 c0       	rjmp	.+4      	; 0x1dec <_ZN5Print5writeEPKc+0x2e>
    1de8:	20 e0       	ldi	r18, 0x00	; 0
    1dea:	30 e0       	ldi	r19, 0x00	; 0
    1dec:	c9 01       	movw	r24, r18
    1dee:	08 95       	ret

00001df0 <_ZN5Print5printEPK19__FlashStringHelper>:
    1df0:	ef 92       	push	r14
    1df2:	ff 92       	push	r15
    1df4:	0f 93       	push	r16
    1df6:	1f 93       	push	r17
    1df8:	cf 93       	push	r28
    1dfa:	df 93       	push	r29
    1dfc:	7c 01       	movw	r14, r24
    1dfe:	06 2f       	mov	r16, r22
    1e00:	17 2f       	mov	r17, r23
    1e02:	c0 e0       	ldi	r28, 0x00	; 0
    1e04:	d0 e0       	ldi	r29, 0x00	; 0
    1e06:	f8 01       	movw	r30, r16
    1e08:	0f 5f       	subi	r16, 0xFF	; 255
    1e0a:	1f 4f       	sbci	r17, 0xFF	; 255
    1e0c:	64 91       	lpm	r22, Z+
    1e0e:	66 23       	and	r22, r22
    1e10:	51 f0       	breq	.+20     	; 0x1e26 <_ZN5Print5printEPK19__FlashStringHelper+0x36>
    1e12:	f7 01       	movw	r30, r14
    1e14:	a0 81       	ld	r26, Z
    1e16:	b1 81       	ldd	r27, Z+1	; 0x01
    1e18:	ed 91       	ld	r30, X+
    1e1a:	fc 91       	ld	r31, X
    1e1c:	c7 01       	movw	r24, r14
    1e1e:	09 95       	icall
    1e20:	c8 0f       	add	r28, r24
    1e22:	d9 1f       	adc	r29, r25
    1e24:	f0 cf       	rjmp	.-32     	; 0x1e06 <_ZN5Print5printEPK19__FlashStringHelper+0x16>
    1e26:	ce 01       	movw	r24, r28
    1e28:	df 91       	pop	r29
    1e2a:	cf 91       	pop	r28
    1e2c:	1f 91       	pop	r17
    1e2e:	0f 91       	pop	r16
    1e30:	ff 90       	pop	r15
    1e32:	ef 90       	pop	r14
    1e34:	08 95       	ret

00001e36 <_ZN5Print5printERK6String>:
    1e36:	af 92       	push	r10
    1e38:	bf 92       	push	r11
    1e3a:	cf 92       	push	r12
    1e3c:	df 92       	push	r13
    1e3e:	ef 92       	push	r14
    1e40:	ff 92       	push	r15
    1e42:	0f 93       	push	r16
    1e44:	1f 93       	push	r17
    1e46:	cf 93       	push	r28
    1e48:	df 93       	push	r29
    1e4a:	7c 01       	movw	r14, r24
    1e4c:	6b 01       	movw	r12, r22
    1e4e:	c0 e0       	ldi	r28, 0x00	; 0
    1e50:	d0 e0       	ldi	r29, 0x00	; 0
    1e52:	00 e0       	ldi	r16, 0x00	; 0
    1e54:	10 e0       	ldi	r17, 0x00	; 0
    1e56:	10 c0       	rjmp	.+32     	; 0x1e78 <_ZN5Print5printERK6String+0x42>
    1e58:	d7 01       	movw	r26, r14
    1e5a:	ed 91       	ld	r30, X+
    1e5c:	fc 91       	ld	r31, X
    1e5e:	a0 80       	ld	r10, Z
    1e60:	b1 80       	ldd	r11, Z+1	; 0x01
    1e62:	c6 01       	movw	r24, r12
    1e64:	be 01       	movw	r22, r28
    1e66:	0e 94 fb 16 	call	0x2df6	; 0x2df6 <_ZNK6StringixEj>
    1e6a:	68 2f       	mov	r22, r24
    1e6c:	c7 01       	movw	r24, r14
    1e6e:	f5 01       	movw	r30, r10
    1e70:	09 95       	icall
    1e72:	08 0f       	add	r16, r24
    1e74:	19 1f       	adc	r17, r25
    1e76:	21 96       	adiw	r28, 0x01	; 1
    1e78:	f6 01       	movw	r30, r12
    1e7a:	84 81       	ldd	r24, Z+4	; 0x04
    1e7c:	95 81       	ldd	r25, Z+5	; 0x05
    1e7e:	c8 17       	cp	r28, r24
    1e80:	d9 07       	cpc	r29, r25
    1e82:	50 f3       	brcs	.-44     	; 0x1e58 <_ZN5Print5printERK6String+0x22>
    1e84:	c8 01       	movw	r24, r16
    1e86:	df 91       	pop	r29
    1e88:	cf 91       	pop	r28
    1e8a:	1f 91       	pop	r17
    1e8c:	0f 91       	pop	r16
    1e8e:	ff 90       	pop	r15
    1e90:	ef 90       	pop	r14
    1e92:	df 90       	pop	r13
    1e94:	cf 90       	pop	r12
    1e96:	bf 90       	pop	r11
    1e98:	af 90       	pop	r10
    1e9a:	08 95       	ret

00001e9c <_ZN5Print5printEPKc>:
    1e9c:	0e 94 df 0e 	call	0x1dbe	; 0x1dbe <_ZN5Print5writeEPKc>
    1ea0:	08 95       	ret

00001ea2 <_ZN5Print5printEc>:
    1ea2:	dc 01       	movw	r26, r24
    1ea4:	ed 91       	ld	r30, X+
    1ea6:	fc 91       	ld	r31, X
    1ea8:	01 90       	ld	r0, Z+
    1eaa:	f0 81       	ld	r31, Z
    1eac:	e0 2d       	mov	r30, r0
    1eae:	09 95       	icall
    1eb0:	08 95       	ret

00001eb2 <_ZN5Print5printERK9Printable>:
    1eb2:	9c 01       	movw	r18, r24
    1eb4:	cb 01       	movw	r24, r22
    1eb6:	db 01       	movw	r26, r22
    1eb8:	ed 91       	ld	r30, X+
    1eba:	fc 91       	ld	r31, X
    1ebc:	01 90       	ld	r0, Z+
    1ebe:	f0 81       	ld	r31, Z
    1ec0:	e0 2d       	mov	r30, r0
    1ec2:	b9 01       	movw	r22, r18
    1ec4:	09 95       	icall
    1ec6:	08 95       	ret

00001ec8 <_ZN5Print7printlnEv>:
    1ec8:	0f 93       	push	r16
    1eca:	1f 93       	push	r17
    1ecc:	cf 93       	push	r28
    1ece:	df 93       	push	r29
    1ed0:	ec 01       	movw	r28, r24
    1ed2:	6d e0       	ldi	r22, 0x0D	; 13
    1ed4:	0e 94 51 0f 	call	0x1ea2	; 0x1ea2 <_ZN5Print5printEc>
    1ed8:	8c 01       	movw	r16, r24
    1eda:	ce 01       	movw	r24, r28
    1edc:	6a e0       	ldi	r22, 0x0A	; 10
    1ede:	0e 94 51 0f 	call	0x1ea2	; 0x1ea2 <_ZN5Print5printEc>
    1ee2:	08 0f       	add	r16, r24
    1ee4:	19 1f       	adc	r17, r25
    1ee6:	c8 01       	movw	r24, r16
    1ee8:	df 91       	pop	r29
    1eea:	cf 91       	pop	r28
    1eec:	1f 91       	pop	r17
    1eee:	0f 91       	pop	r16
    1ef0:	08 95       	ret

00001ef2 <_ZN5Print7printlnEPK19__FlashStringHelper>:
    1ef2:	0f 93       	push	r16
    1ef4:	1f 93       	push	r17
    1ef6:	cf 93       	push	r28
    1ef8:	df 93       	push	r29
    1efa:	ec 01       	movw	r28, r24
    1efc:	0e 94 f8 0e 	call	0x1df0	; 0x1df0 <_ZN5Print5printEPK19__FlashStringHelper>
    1f00:	8c 01       	movw	r16, r24
    1f02:	ce 01       	movw	r24, r28
    1f04:	0e 94 64 0f 	call	0x1ec8	; 0x1ec8 <_ZN5Print7printlnEv>
    1f08:	08 0f       	add	r16, r24
    1f0a:	19 1f       	adc	r17, r25
    1f0c:	c8 01       	movw	r24, r16
    1f0e:	df 91       	pop	r29
    1f10:	cf 91       	pop	r28
    1f12:	1f 91       	pop	r17
    1f14:	0f 91       	pop	r16
    1f16:	08 95       	ret

00001f18 <_ZN5Print7printlnERK6String>:
    1f18:	0f 93       	push	r16
    1f1a:	1f 93       	push	r17
    1f1c:	cf 93       	push	r28
    1f1e:	df 93       	push	r29
    1f20:	ec 01       	movw	r28, r24
    1f22:	0e 94 1b 0f 	call	0x1e36	; 0x1e36 <_ZN5Print5printERK6String>
    1f26:	8c 01       	movw	r16, r24
    1f28:	ce 01       	movw	r24, r28
    1f2a:	0e 94 64 0f 	call	0x1ec8	; 0x1ec8 <_ZN5Print7printlnEv>
    1f2e:	08 0f       	add	r16, r24
    1f30:	19 1f       	adc	r17, r25
    1f32:	c8 01       	movw	r24, r16
    1f34:	df 91       	pop	r29
    1f36:	cf 91       	pop	r28
    1f38:	1f 91       	pop	r17
    1f3a:	0f 91       	pop	r16
    1f3c:	08 95       	ret

00001f3e <_ZN5Print7printlnEPKc>:
    1f3e:	0f 93       	push	r16
    1f40:	1f 93       	push	r17
    1f42:	cf 93       	push	r28
    1f44:	df 93       	push	r29
    1f46:	ec 01       	movw	r28, r24
    1f48:	0e 94 df 0e 	call	0x1dbe	; 0x1dbe <_ZN5Print5writeEPKc>
    1f4c:	8c 01       	movw	r16, r24
    1f4e:	ce 01       	movw	r24, r28
    1f50:	0e 94 64 0f 	call	0x1ec8	; 0x1ec8 <_ZN5Print7printlnEv>
    1f54:	08 0f       	add	r16, r24
    1f56:	19 1f       	adc	r17, r25
    1f58:	c8 01       	movw	r24, r16
    1f5a:	df 91       	pop	r29
    1f5c:	cf 91       	pop	r28
    1f5e:	1f 91       	pop	r17
    1f60:	0f 91       	pop	r16
    1f62:	08 95       	ret

00001f64 <_ZN5Print7printlnEc>:
    1f64:	0f 93       	push	r16
    1f66:	1f 93       	push	r17
    1f68:	cf 93       	push	r28
    1f6a:	df 93       	push	r29
    1f6c:	ec 01       	movw	r28, r24
    1f6e:	0e 94 51 0f 	call	0x1ea2	; 0x1ea2 <_ZN5Print5printEc>
    1f72:	8c 01       	movw	r16, r24
    1f74:	ce 01       	movw	r24, r28
    1f76:	0e 94 64 0f 	call	0x1ec8	; 0x1ec8 <_ZN5Print7printlnEv>
    1f7a:	08 0f       	add	r16, r24
    1f7c:	19 1f       	adc	r17, r25
    1f7e:	c8 01       	movw	r24, r16
    1f80:	df 91       	pop	r29
    1f82:	cf 91       	pop	r28
    1f84:	1f 91       	pop	r17
    1f86:	0f 91       	pop	r16
    1f88:	08 95       	ret

00001f8a <_ZN5Print7printlnERK9Printable>:
    1f8a:	0f 93       	push	r16
    1f8c:	1f 93       	push	r17
    1f8e:	cf 93       	push	r28
    1f90:	df 93       	push	r29
    1f92:	ec 01       	movw	r28, r24
    1f94:	0e 94 59 0f 	call	0x1eb2	; 0x1eb2 <_ZN5Print5printERK9Printable>
    1f98:	8c 01       	movw	r16, r24
    1f9a:	ce 01       	movw	r24, r28
    1f9c:	0e 94 64 0f 	call	0x1ec8	; 0x1ec8 <_ZN5Print7printlnEv>
    1fa0:	08 0f       	add	r16, r24
    1fa2:	19 1f       	adc	r17, r25
    1fa4:	c8 01       	movw	r24, r16
    1fa6:	df 91       	pop	r29
    1fa8:	cf 91       	pop	r28
    1faa:	1f 91       	pop	r17
    1fac:	0f 91       	pop	r16
    1fae:	08 95       	ret

00001fb0 <_ZN5Print11printNumberEmh>:
    1fb0:	8f 92       	push	r8
    1fb2:	9f 92       	push	r9
    1fb4:	af 92       	push	r10
    1fb6:	bf 92       	push	r11
    1fb8:	cf 92       	push	r12
    1fba:	df 92       	push	r13
    1fbc:	ef 92       	push	r14
    1fbe:	ff 92       	push	r15
    1fc0:	0f 93       	push	r16
    1fc2:	1f 93       	push	r17
    1fc4:	df 93       	push	r29
    1fc6:	cf 93       	push	r28
    1fc8:	cd b7       	in	r28, 0x3d	; 61
    1fca:	de b7       	in	r29, 0x3e	; 62
    1fcc:	a1 97       	sbiw	r28, 0x21	; 33
    1fce:	0f b6       	in	r0, 0x3f	; 63
    1fd0:	f8 94       	cli
    1fd2:	de bf       	out	0x3e, r29	; 62
    1fd4:	0f be       	out	0x3f, r0	; 63
    1fd6:	cd bf       	out	0x3d, r28	; 61
    1fd8:	6c 01       	movw	r12, r24
    1fda:	04 2f       	mov	r16, r20
    1fdc:	e5 2f       	mov	r30, r21
    1fde:	cb 01       	movw	r24, r22
    1fe0:	12 2f       	mov	r17, r18
    1fe2:	19 a2       	std	Y+33, r1	; 0x21
    1fe4:	22 30       	cpi	r18, 0x02	; 2
    1fe6:	08 f4       	brcc	.+2      	; 0x1fea <_ZN5Print11printNumberEmh+0x3a>
    1fe8:	1a e0       	ldi	r17, 0x0A	; 10
    1fea:	21 e2       	ldi	r18, 0x21	; 33
    1fec:	e2 2e       	mov	r14, r18
    1fee:	f1 2c       	mov	r15, r1
    1ff0:	ec 0e       	add	r14, r28
    1ff2:	fd 1e       	adc	r15, r29
    1ff4:	81 2e       	mov	r8, r17
    1ff6:	99 24       	eor	r9, r9
    1ff8:	aa 24       	eor	r10, r10
    1ffa:	bb 24       	eor	r11, r11
    1ffc:	03 c0       	rjmp	.+6      	; 0x2004 <_ZN5Print11printNumberEmh+0x54>
    1ffe:	02 2f       	mov	r16, r18
    2000:	e3 2f       	mov	r30, r19
    2002:	ca 01       	movw	r24, r20
    2004:	60 2f       	mov	r22, r16
    2006:	7e 2f       	mov	r23, r30
    2008:	a5 01       	movw	r20, r10
    200a:	94 01       	movw	r18, r8
    200c:	0e 94 3d 2b 	call	0x567a	; 0x567a <__udivmodsi4>
    2010:	12 9f       	mul	r17, r18
    2012:	80 2d       	mov	r24, r0
    2014:	11 24       	eor	r1, r1
    2016:	08 1b       	sub	r16, r24
    2018:	08 94       	sec
    201a:	e1 08       	sbc	r14, r1
    201c:	f1 08       	sbc	r15, r1
    201e:	0a 30       	cpi	r16, 0x0A	; 10
    2020:	14 f4       	brge	.+4      	; 0x2026 <_ZN5Print11printNumberEmh+0x76>
    2022:	00 5d       	subi	r16, 0xD0	; 208
    2024:	01 c0       	rjmp	.+2      	; 0x2028 <_ZN5Print11printNumberEmh+0x78>
    2026:	09 5c       	subi	r16, 0xC9	; 201
    2028:	f7 01       	movw	r30, r14
    202a:	00 83       	st	Z, r16
    202c:	21 15       	cp	r18, r1
    202e:	31 05       	cpc	r19, r1
    2030:	41 05       	cpc	r20, r1
    2032:	51 05       	cpc	r21, r1
    2034:	21 f7       	brne	.-56     	; 0x1ffe <_ZN5Print11printNumberEmh+0x4e>
    2036:	c6 01       	movw	r24, r12
    2038:	b7 01       	movw	r22, r14
    203a:	0e 94 df 0e 	call	0x1dbe	; 0x1dbe <_ZN5Print5writeEPKc>
    203e:	a1 96       	adiw	r28, 0x21	; 33
    2040:	0f b6       	in	r0, 0x3f	; 63
    2042:	f8 94       	cli
    2044:	de bf       	out	0x3e, r29	; 62
    2046:	0f be       	out	0x3f, r0	; 63
    2048:	cd bf       	out	0x3d, r28	; 61
    204a:	cf 91       	pop	r28
    204c:	df 91       	pop	r29
    204e:	1f 91       	pop	r17
    2050:	0f 91       	pop	r16
    2052:	ff 90       	pop	r15
    2054:	ef 90       	pop	r14
    2056:	df 90       	pop	r13
    2058:	cf 90       	pop	r12
    205a:	bf 90       	pop	r11
    205c:	af 90       	pop	r10
    205e:	9f 90       	pop	r9
    2060:	8f 90       	pop	r8
    2062:	08 95       	ret

00002064 <_ZN5Print5printEmi>:
    2064:	21 15       	cp	r18, r1
    2066:	31 05       	cpc	r19, r1
    2068:	49 f4       	brne	.+18     	; 0x207c <_ZN5Print5printEmi+0x18>
    206a:	dc 01       	movw	r26, r24
    206c:	ed 91       	ld	r30, X+
    206e:	fc 91       	ld	r31, X
    2070:	01 90       	ld	r0, Z+
    2072:	f0 81       	ld	r31, Z
    2074:	e0 2d       	mov	r30, r0
    2076:	64 2f       	mov	r22, r20
    2078:	09 95       	icall
    207a:	08 95       	ret
    207c:	0e 94 d8 0f 	call	0x1fb0	; 0x1fb0 <_ZN5Print11printNumberEmh>
    2080:	08 95       	ret

00002082 <_ZN5Print7printlnEmi>:
    2082:	0f 93       	push	r16
    2084:	1f 93       	push	r17
    2086:	cf 93       	push	r28
    2088:	df 93       	push	r29
    208a:	ec 01       	movw	r28, r24
    208c:	0e 94 32 10 	call	0x2064	; 0x2064 <_ZN5Print5printEmi>
    2090:	8c 01       	movw	r16, r24
    2092:	ce 01       	movw	r24, r28
    2094:	0e 94 64 0f 	call	0x1ec8	; 0x1ec8 <_ZN5Print7printlnEv>
    2098:	08 0f       	add	r16, r24
    209a:	19 1f       	adc	r17, r25
    209c:	c8 01       	movw	r24, r16
    209e:	df 91       	pop	r29
    20a0:	cf 91       	pop	r28
    20a2:	1f 91       	pop	r17
    20a4:	0f 91       	pop	r16
    20a6:	08 95       	ret

000020a8 <_ZN5Print5printEji>:
    20a8:	9a 01       	movw	r18, r20
    20aa:	ab 01       	movw	r20, r22
    20ac:	60 e0       	ldi	r22, 0x00	; 0
    20ae:	70 e0       	ldi	r23, 0x00	; 0
    20b0:	0e 94 32 10 	call	0x2064	; 0x2064 <_ZN5Print5printEmi>
    20b4:	08 95       	ret

000020b6 <_ZN5Print7printlnEji>:
    20b6:	0f 93       	push	r16
    20b8:	1f 93       	push	r17
    20ba:	cf 93       	push	r28
    20bc:	df 93       	push	r29
    20be:	ec 01       	movw	r28, r24
    20c0:	9a 01       	movw	r18, r20
    20c2:	ab 01       	movw	r20, r22
    20c4:	60 e0       	ldi	r22, 0x00	; 0
    20c6:	70 e0       	ldi	r23, 0x00	; 0
    20c8:	0e 94 32 10 	call	0x2064	; 0x2064 <_ZN5Print5printEmi>
    20cc:	8c 01       	movw	r16, r24
    20ce:	ce 01       	movw	r24, r28
    20d0:	0e 94 64 0f 	call	0x1ec8	; 0x1ec8 <_ZN5Print7printlnEv>
    20d4:	08 0f       	add	r16, r24
    20d6:	19 1f       	adc	r17, r25
    20d8:	c8 01       	movw	r24, r16
    20da:	df 91       	pop	r29
    20dc:	cf 91       	pop	r28
    20de:	1f 91       	pop	r17
    20e0:	0f 91       	pop	r16
    20e2:	08 95       	ret

000020e4 <_ZN5Print5printEhi>:
    20e4:	9a 01       	movw	r18, r20
    20e6:	46 2f       	mov	r20, r22
    20e8:	50 e0       	ldi	r21, 0x00	; 0
    20ea:	60 e0       	ldi	r22, 0x00	; 0
    20ec:	70 e0       	ldi	r23, 0x00	; 0
    20ee:	0e 94 32 10 	call	0x2064	; 0x2064 <_ZN5Print5printEmi>
    20f2:	08 95       	ret

000020f4 <_ZN5Print7printlnEhi>:
    20f4:	0f 93       	push	r16
    20f6:	1f 93       	push	r17
    20f8:	cf 93       	push	r28
    20fa:	df 93       	push	r29
    20fc:	ec 01       	movw	r28, r24
    20fe:	9a 01       	movw	r18, r20
    2100:	46 2f       	mov	r20, r22
    2102:	50 e0       	ldi	r21, 0x00	; 0
    2104:	60 e0       	ldi	r22, 0x00	; 0
    2106:	70 e0       	ldi	r23, 0x00	; 0
    2108:	0e 94 32 10 	call	0x2064	; 0x2064 <_ZN5Print5printEmi>
    210c:	8c 01       	movw	r16, r24
    210e:	ce 01       	movw	r24, r28
    2110:	0e 94 64 0f 	call	0x1ec8	; 0x1ec8 <_ZN5Print7printlnEv>
    2114:	08 0f       	add	r16, r24
    2116:	19 1f       	adc	r17, r25
    2118:	c8 01       	movw	r24, r16
    211a:	df 91       	pop	r29
    211c:	cf 91       	pop	r28
    211e:	1f 91       	pop	r17
    2120:	0f 91       	pop	r16
    2122:	08 95       	ret

00002124 <_ZN5Print5printEli>:
    2124:	cf 92       	push	r12
    2126:	df 92       	push	r13
    2128:	ef 92       	push	r14
    212a:	ff 92       	push	r15
    212c:	0f 93       	push	r16
    212e:	1f 93       	push	r17
    2130:	cf 93       	push	r28
    2132:	df 93       	push	r29
    2134:	ec 01       	movw	r28, r24
    2136:	7a 01       	movw	r14, r20
    2138:	8b 01       	movw	r16, r22
    213a:	21 15       	cp	r18, r1
    213c:	31 05       	cpc	r19, r1
    213e:	41 f4       	brne	.+16     	; 0x2150 <_ZN5Print5printEli+0x2c>
    2140:	e8 81       	ld	r30, Y
    2142:	f9 81       	ldd	r31, Y+1	; 0x01
    2144:	01 90       	ld	r0, Z+
    2146:	f0 81       	ld	r31, Z
    2148:	e0 2d       	mov	r30, r0
    214a:	64 2f       	mov	r22, r20
    214c:	09 95       	icall
    214e:	1a c0       	rjmp	.+52     	; 0x2184 <_ZN5Print5printEli+0x60>
    2150:	2a 30       	cpi	r18, 0x0A	; 10
    2152:	31 05       	cpc	r19, r1
    2154:	a9 f4       	brne	.+42     	; 0x2180 <_ZN5Print5printEli+0x5c>
    2156:	77 ff       	sbrs	r23, 7
    2158:	12 c0       	rjmp	.+36     	; 0x217e <_ZN5Print5printEli+0x5a>
    215a:	6d e2       	ldi	r22, 0x2D	; 45
    215c:	0e 94 51 0f 	call	0x1ea2	; 0x1ea2 <_ZN5Print5printEc>
    2160:	6c 01       	movw	r12, r24
    2162:	44 27       	eor	r20, r20
    2164:	55 27       	eor	r21, r21
    2166:	ba 01       	movw	r22, r20
    2168:	4e 19       	sub	r20, r14
    216a:	5f 09       	sbc	r21, r15
    216c:	60 0b       	sbc	r22, r16
    216e:	71 0b       	sbc	r23, r17
    2170:	ce 01       	movw	r24, r28
    2172:	2a e0       	ldi	r18, 0x0A	; 10
    2174:	0e 94 d8 0f 	call	0x1fb0	; 0x1fb0 <_ZN5Print11printNumberEmh>
    2178:	c8 0e       	add	r12, r24
    217a:	d9 1e       	adc	r13, r25
    217c:	04 c0       	rjmp	.+8      	; 0x2186 <_ZN5Print5printEli+0x62>
    217e:	2a e0       	ldi	r18, 0x0A	; 10
    2180:	0e 94 d8 0f 	call	0x1fb0	; 0x1fb0 <_ZN5Print11printNumberEmh>
    2184:	6c 01       	movw	r12, r24
    2186:	c6 01       	movw	r24, r12
    2188:	df 91       	pop	r29
    218a:	cf 91       	pop	r28
    218c:	1f 91       	pop	r17
    218e:	0f 91       	pop	r16
    2190:	ff 90       	pop	r15
    2192:	ef 90       	pop	r14
    2194:	df 90       	pop	r13
    2196:	cf 90       	pop	r12
    2198:	08 95       	ret

0000219a <_ZN5Print7printlnEli>:
    219a:	0f 93       	push	r16
    219c:	1f 93       	push	r17
    219e:	cf 93       	push	r28
    21a0:	df 93       	push	r29
    21a2:	ec 01       	movw	r28, r24
    21a4:	0e 94 92 10 	call	0x2124	; 0x2124 <_ZN5Print5printEli>
    21a8:	8c 01       	movw	r16, r24
    21aa:	ce 01       	movw	r24, r28
    21ac:	0e 94 64 0f 	call	0x1ec8	; 0x1ec8 <_ZN5Print7printlnEv>
    21b0:	08 0f       	add	r16, r24
    21b2:	19 1f       	adc	r17, r25
    21b4:	c8 01       	movw	r24, r16
    21b6:	df 91       	pop	r29
    21b8:	cf 91       	pop	r28
    21ba:	1f 91       	pop	r17
    21bc:	0f 91       	pop	r16
    21be:	08 95       	ret

000021c0 <_ZN5Print5printEii>:
    21c0:	9a 01       	movw	r18, r20
    21c2:	fb 01       	movw	r30, r22
    21c4:	af 01       	movw	r20, r30
    21c6:	66 27       	eor	r22, r22
    21c8:	57 fd       	sbrc	r21, 7
    21ca:	60 95       	com	r22
    21cc:	76 2f       	mov	r23, r22
    21ce:	0e 94 92 10 	call	0x2124	; 0x2124 <_ZN5Print5printEli>
    21d2:	08 95       	ret

000021d4 <_ZN5Print7printlnEii>:
    21d4:	0f 93       	push	r16
    21d6:	1f 93       	push	r17
    21d8:	cf 93       	push	r28
    21da:	df 93       	push	r29
    21dc:	ec 01       	movw	r28, r24
    21de:	9a 01       	movw	r18, r20
    21e0:	cb 01       	movw	r24, r22
    21e2:	ac 01       	movw	r20, r24
    21e4:	66 27       	eor	r22, r22
    21e6:	57 fd       	sbrc	r21, 7
    21e8:	60 95       	com	r22
    21ea:	76 2f       	mov	r23, r22
    21ec:	ce 01       	movw	r24, r28
    21ee:	0e 94 92 10 	call	0x2124	; 0x2124 <_ZN5Print5printEli>
    21f2:	8c 01       	movw	r16, r24
    21f4:	ce 01       	movw	r24, r28
    21f6:	0e 94 64 0f 	call	0x1ec8	; 0x1ec8 <_ZN5Print7printlnEv>
    21fa:	08 0f       	add	r16, r24
    21fc:	19 1f       	adc	r17, r25
    21fe:	c8 01       	movw	r24, r16
    2200:	df 91       	pop	r29
    2202:	cf 91       	pop	r28
    2204:	1f 91       	pop	r17
    2206:	0f 91       	pop	r16
    2208:	08 95       	ret

0000220a <_ZN5Print10printFloatEdh>:
    220a:	6f 92       	push	r6
    220c:	7f 92       	push	r7
    220e:	8f 92       	push	r8
    2210:	9f 92       	push	r9
    2212:	af 92       	push	r10
    2214:	bf 92       	push	r11
    2216:	cf 92       	push	r12
    2218:	df 92       	push	r13
    221a:	ef 92       	push	r14
    221c:	ff 92       	push	r15
    221e:	0f 93       	push	r16
    2220:	1f 93       	push	r17
    2222:	cf 93       	push	r28
    2224:	df 93       	push	r29
    2226:	ec 01       	movw	r28, r24
    2228:	5a 01       	movw	r10, r20
    222a:	6b 01       	movw	r12, r22
    222c:	82 2e       	mov	r8, r18
    222e:	cb 01       	movw	r24, r22
    2230:	ba 01       	movw	r22, r20
    2232:	a6 01       	movw	r20, r12
    2234:	95 01       	movw	r18, r10
    2236:	0e 94 11 2b 	call	0x5622	; 0x5622 <__unordsf2>
    223a:	88 23       	and	r24, r24
    223c:	21 f0       	breq	.+8      	; 0x2246 <_ZN5Print10printFloatEdh+0x3c>
    223e:	ce 01       	movw	r24, r28
    2240:	68 e2       	ldi	r22, 0x28	; 40
    2242:	71 e0       	ldi	r23, 0x01	; 1
    2244:	1b c0       	rjmp	.+54     	; 0x227c <_ZN5Print10printFloatEdh+0x72>
    2246:	86 01       	movw	r16, r12
    2248:	75 01       	movw	r14, r10
    224a:	e8 94       	clt
    224c:	17 f9       	bld	r17, 7
    224e:	c8 01       	movw	r24, r16
    2250:	b7 01       	movw	r22, r14
    2252:	2f ef       	ldi	r18, 0xFF	; 255
    2254:	3f ef       	ldi	r19, 0xFF	; 255
    2256:	4f e7       	ldi	r20, 0x7F	; 127
    2258:	5f e7       	ldi	r21, 0x7F	; 127
    225a:	0e 94 11 2b 	call	0x5622	; 0x5622 <__unordsf2>
    225e:	88 23       	and	r24, r24
    2260:	89 f4       	brne	.+34     	; 0x2284 <_ZN5Print10printFloatEdh+0x7a>
    2262:	c8 01       	movw	r24, r16
    2264:	b7 01       	movw	r22, r14
    2266:	2f ef       	ldi	r18, 0xFF	; 255
    2268:	3f ef       	ldi	r19, 0xFF	; 255
    226a:	4f e7       	ldi	r20, 0x7F	; 127
    226c:	5f e7       	ldi	r21, 0x7F	; 127
    226e:	0e 94 7c 28 	call	0x50f8	; 0x50f8 <__cmpsf2>
    2272:	18 16       	cp	r1, r24
    2274:	3c f4       	brge	.+14     	; 0x2284 <_ZN5Print10printFloatEdh+0x7a>
    2276:	ce 01       	movw	r24, r28
    2278:	6c e2       	ldi	r22, 0x2C	; 44
    227a:	71 e0       	ldi	r23, 0x01	; 1
    227c:	0e 94 df 0e 	call	0x1dbe	; 0x1dbe <_ZN5Print5writeEPKc>
    2280:	5c 01       	movw	r10, r24
    2282:	af c0       	rjmp	.+350    	; 0x23e2 <_ZN5Print10printFloatEdh+0x1d8>
    2284:	c6 01       	movw	r24, r12
    2286:	b5 01       	movw	r22, r10
    2288:	2f ef       	ldi	r18, 0xFF	; 255
    228a:	3f ef       	ldi	r19, 0xFF	; 255
    228c:	4f e7       	ldi	r20, 0x7F	; 127
    228e:	5f e4       	ldi	r21, 0x4F	; 79
    2290:	0e 94 58 2a 	call	0x54b0	; 0x54b0 <__gesf2>
    2294:	18 16       	cp	r1, r24
    2296:	54 f0       	brlt	.+20     	; 0x22ac <_ZN5Print10printFloatEdh+0xa2>
    2298:	c6 01       	movw	r24, r12
    229a:	b5 01       	movw	r22, r10
    229c:	2f ef       	ldi	r18, 0xFF	; 255
    229e:	3f ef       	ldi	r19, 0xFF	; 255
    22a0:	4f e7       	ldi	r20, 0x7F	; 127
    22a2:	5f ec       	ldi	r21, 0xCF	; 207
    22a4:	0e 94 7c 28 	call	0x50f8	; 0x50f8 <__cmpsf2>
    22a8:	87 ff       	sbrs	r24, 7
    22aa:	04 c0       	rjmp	.+8      	; 0x22b4 <_ZN5Print10printFloatEdh+0xaa>
    22ac:	ce 01       	movw	r24, r28
    22ae:	60 e3       	ldi	r22, 0x30	; 48
    22b0:	71 e0       	ldi	r23, 0x01	; 1
    22b2:	e4 cf       	rjmp	.-56     	; 0x227c <_ZN5Print10printFloatEdh+0x72>
    22b4:	c6 01       	movw	r24, r12
    22b6:	b5 01       	movw	r22, r10
    22b8:	20 e0       	ldi	r18, 0x00	; 0
    22ba:	30 e0       	ldi	r19, 0x00	; 0
    22bc:	a9 01       	movw	r20, r18
    22be:	0e 94 7c 28 	call	0x50f8	; 0x50f8 <__cmpsf2>
    22c2:	87 ff       	sbrs	r24, 7
    22c4:	0a c0       	rjmp	.+20     	; 0x22da <_ZN5Print10printFloatEdh+0xd0>
    22c6:	ce 01       	movw	r24, r28
    22c8:	6d e2       	ldi	r22, 0x2D	; 45
    22ca:	0e 94 51 0f 	call	0x1ea2	; 0x1ea2 <_ZN5Print5printEc>
    22ce:	3c 01       	movw	r6, r24
    22d0:	d7 fa       	bst	r13, 7
    22d2:	d0 94       	com	r13
    22d4:	d7 f8       	bld	r13, 7
    22d6:	d0 94       	com	r13
    22d8:	02 c0       	rjmp	.+4      	; 0x22de <_ZN5Print10printFloatEdh+0xd4>
    22da:	66 24       	eor	r6, r6
    22dc:	77 24       	eor	r7, r7
    22de:	10 e0       	ldi	r17, 0x00	; 0
    22e0:	50 e0       	ldi	r21, 0x00	; 0
    22e2:	40 e0       	ldi	r20, 0x00	; 0
    22e4:	30 e0       	ldi	r19, 0x00	; 0
    22e6:	2f e3       	ldi	r18, 0x3F	; 63
    22e8:	11 c0       	rjmp	.+34     	; 0x230c <_ZN5Print10printFloatEdh+0x102>
    22ea:	da 01       	movw	r26, r20
    22ec:	f9 01       	movw	r30, r18
    22ee:	6b 2f       	mov	r22, r27
    22f0:	74 2f       	mov	r23, r20
    22f2:	8f 2f       	mov	r24, r31
    22f4:	92 2f       	mov	r25, r18
    22f6:	20 e0       	ldi	r18, 0x00	; 0
    22f8:	30 e0       	ldi	r19, 0x00	; 0
    22fa:	40 e2       	ldi	r20, 0x20	; 32
    22fc:	51 e4       	ldi	r21, 0x41	; 65
    22fe:	0e 94 83 28 	call	0x5106	; 0x5106 <__divsf3>
    2302:	56 2f       	mov	r21, r22
    2304:	47 2f       	mov	r20, r23
    2306:	38 2f       	mov	r19, r24
    2308:	29 2f       	mov	r18, r25
    230a:	1f 5f       	subi	r17, 0xFF	; 255
    230c:	18 15       	cp	r17, r8
    230e:	68 f3       	brcs	.-38     	; 0x22ea <_ZN5Print10printFloatEdh+0xe0>
    2310:	c6 01       	movw	r24, r12
    2312:	b5 01       	movw	r22, r10
    2314:	da 01       	movw	r26, r20
    2316:	f9 01       	movw	r30, r18
    2318:	2b 2f       	mov	r18, r27
    231a:	34 2f       	mov	r19, r20
    231c:	4f 2f       	mov	r20, r31
    231e:	5e 2f       	mov	r21, r30
    2320:	0e 94 9f 27 	call	0x4f3e	; 0x4f3e <__addsf3>
    2324:	d6 2e       	mov	r13, r22
    2326:	f7 2e       	mov	r15, r23
    2328:	08 2f       	mov	r16, r24
    232a:	c9 2e       	mov	r12, r25
    232c:	0e 94 f0 28 	call	0x51e0	; 0x51e0 <__fixunssfsi>
    2330:	16 2f       	mov	r17, r22
    2332:	e7 2e       	mov	r14, r23
    2334:	5c 01       	movw	r10, r24
    2336:	0e 94 1c 29 	call	0x5238	; 0x5238 <__floatunsisf>
    233a:	9b 01       	movw	r18, r22
    233c:	ac 01       	movw	r20, r24
    233e:	6d 2d       	mov	r22, r13
    2340:	7f 2d       	mov	r23, r15
    2342:	80 2f       	mov	r24, r16
    2344:	9c 2d       	mov	r25, r12
    2346:	0e 94 9e 27 	call	0x4f3c	; 0x4f3c <__subsf3>
    234a:	6b 01       	movw	r12, r22
    234c:	f8 2e       	mov	r15, r24
    234e:	09 2f       	mov	r16, r25
    2350:	ce 01       	movw	r24, r28
    2352:	41 2f       	mov	r20, r17
    2354:	5e 2d       	mov	r21, r14
    2356:	b5 01       	movw	r22, r10
    2358:	2a e0       	ldi	r18, 0x0A	; 10
    235a:	30 e0       	ldi	r19, 0x00	; 0
    235c:	0e 94 32 10 	call	0x2064	; 0x2064 <_ZN5Print5printEmi>
    2360:	5c 01       	movw	r10, r24
    2362:	a6 0c       	add	r10, r6
    2364:	b7 1c       	adc	r11, r7
    2366:	88 20       	and	r8, r8
    2368:	d1 f1       	breq	.+116    	; 0x23de <_ZN5Print10printFloatEdh+0x1d4>
    236a:	ce 01       	movw	r24, r28
    236c:	64 e3       	ldi	r22, 0x34	; 52
    236e:	71 e0       	ldi	r23, 0x01	; 1
    2370:	0e 94 df 0e 	call	0x1dbe	; 0x1dbe <_ZN5Print5writeEPKc>
    2374:	a8 0e       	add	r10, r24
    2376:	b9 1e       	adc	r11, r25
    2378:	32 c0       	rjmp	.+100    	; 0x23de <_ZN5Print10printFloatEdh+0x1d4>
    237a:	6c 2d       	mov	r22, r12
    237c:	7d 2d       	mov	r23, r13
    237e:	8f 2d       	mov	r24, r15
    2380:	90 2f       	mov	r25, r16
    2382:	20 e0       	ldi	r18, 0x00	; 0
    2384:	30 e0       	ldi	r19, 0x00	; 0
    2386:	40 e2       	ldi	r20, 0x20	; 32
    2388:	51 e4       	ldi	r21, 0x41	; 65
    238a:	0e 94 63 2a 	call	0x54c6	; 0x54c6 <__mulsf3>
    238e:	d6 2e       	mov	r13, r22
    2390:	c7 2e       	mov	r12, r23
    2392:	98 2e       	mov	r9, r24
    2394:	79 2e       	mov	r7, r25
    2396:	a6 01       	movw	r20, r12
    2398:	65 2f       	mov	r22, r21
    239a:	74 2f       	mov	r23, r20
    239c:	0e 94 eb 28 	call	0x51d6	; 0x51d6 <__fixsfsi>
    23a0:	7b 01       	movw	r14, r22
    23a2:	00 27       	eor	r16, r16
    23a4:	f7 fc       	sbrc	r15, 7
    23a6:	00 95       	com	r16
    23a8:	10 2f       	mov	r17, r16
    23aa:	ce 01       	movw	r24, r28
    23ac:	b8 01       	movw	r22, r16
    23ae:	a7 01       	movw	r20, r14
    23b0:	2a e0       	ldi	r18, 0x0A	; 10
    23b2:	30 e0       	ldi	r19, 0x00	; 0
    23b4:	0e 94 92 10 	call	0x2124	; 0x2124 <_ZN5Print5printEli>
    23b8:	a8 0e       	add	r10, r24
    23ba:	b9 1e       	adc	r11, r25
    23bc:	c8 01       	movw	r24, r16
    23be:	b7 01       	movw	r22, r14
    23c0:	0e 94 1e 29 	call	0x523c	; 0x523c <__floatsisf>
    23c4:	9b 01       	movw	r18, r22
    23c6:	ac 01       	movw	r20, r24
    23c8:	d6 01       	movw	r26, r12
    23ca:	6b 2f       	mov	r22, r27
    23cc:	7a 2f       	mov	r23, r26
    23ce:	89 2d       	mov	r24, r9
    23d0:	97 2d       	mov	r25, r7
    23d2:	0e 94 9e 27 	call	0x4f3c	; 0x4f3c <__subsf3>
    23d6:	6b 01       	movw	r12, r22
    23d8:	f8 2e       	mov	r15, r24
    23da:	09 2f       	mov	r16, r25
    23dc:	8a 94       	dec	r8
    23de:	88 20       	and	r8, r8
    23e0:	61 f6       	brne	.-104    	; 0x237a <_ZN5Print10printFloatEdh+0x170>
    23e2:	c5 01       	movw	r24, r10
    23e4:	df 91       	pop	r29
    23e6:	cf 91       	pop	r28
    23e8:	1f 91       	pop	r17
    23ea:	0f 91       	pop	r16
    23ec:	ff 90       	pop	r15
    23ee:	ef 90       	pop	r14
    23f0:	df 90       	pop	r13
    23f2:	cf 90       	pop	r12
    23f4:	bf 90       	pop	r11
    23f6:	af 90       	pop	r10
    23f8:	9f 90       	pop	r9
    23fa:	8f 90       	pop	r8
    23fc:	7f 90       	pop	r7
    23fe:	6f 90       	pop	r6
    2400:	08 95       	ret

00002402 <_ZN5Print5printEdi>:
    2402:	0e 94 05 11 	call	0x220a	; 0x220a <_ZN5Print10printFloatEdh>
    2406:	08 95       	ret

00002408 <_ZN5Print7printlnEdi>:
    2408:	0f 93       	push	r16
    240a:	1f 93       	push	r17
    240c:	cf 93       	push	r28
    240e:	df 93       	push	r29
    2410:	ec 01       	movw	r28, r24
    2412:	0e 94 05 11 	call	0x220a	; 0x220a <_ZN5Print10printFloatEdh>
    2416:	8c 01       	movw	r16, r24
    2418:	ce 01       	movw	r24, r28
    241a:	0e 94 64 0f 	call	0x1ec8	; 0x1ec8 <_ZN5Print7printlnEv>
    241e:	08 0f       	add	r16, r24
    2420:	19 1f       	adc	r17, r25
    2422:	c8 01       	movw	r24, r16
    2424:	df 91       	pop	r29
    2426:	cf 91       	pop	r28
    2428:	1f 91       	pop	r17
    242a:	0f 91       	pop	r16
    242c:	08 95       	ret

0000242e <_ZN6StringD1Ev>:
    242e:	fc 01       	movw	r30, r24
    2430:	80 81       	ld	r24, Z
    2432:	91 81       	ldd	r25, Z+1	; 0x01
    2434:	0e 94 13 2c 	call	0x5826	; 0x5826 <free>
    2438:	08 95       	ret

0000243a <_ZN6String10invalidateEv>:
    243a:	cf 93       	push	r28
    243c:	df 93       	push	r29
    243e:	ec 01       	movw	r28, r24
    2440:	88 81       	ld	r24, Y
    2442:	99 81       	ldd	r25, Y+1	; 0x01
    2444:	00 97       	sbiw	r24, 0x00	; 0
    2446:	11 f0       	breq	.+4      	; 0x244c <_ZN6String10invalidateEv+0x12>
    2448:	0e 94 13 2c 	call	0x5826	; 0x5826 <free>
    244c:	19 82       	std	Y+1, r1	; 0x01
    244e:	18 82       	st	Y, r1
    2450:	1d 82       	std	Y+5, r1	; 0x05
    2452:	1c 82       	std	Y+4, r1	; 0x04
    2454:	1b 82       	std	Y+3, r1	; 0x03
    2456:	1a 82       	std	Y+2, r1	; 0x02
    2458:	df 91       	pop	r29
    245a:	cf 91       	pop	r28
    245c:	08 95       	ret

0000245e <_ZN6String12changeBufferEj>:
    245e:	0f 93       	push	r16
    2460:	1f 93       	push	r17
    2462:	cf 93       	push	r28
    2464:	df 93       	push	r29
    2466:	ec 01       	movw	r28, r24
    2468:	8b 01       	movw	r16, r22
    246a:	6f 5f       	subi	r22, 0xFF	; 255
    246c:	7f 4f       	sbci	r23, 0xFF	; 255
    246e:	88 81       	ld	r24, Y
    2470:	99 81       	ldd	r25, Y+1	; 0x01
    2472:	0e 94 ac 2c 	call	0x5958	; 0x5958 <realloc>
    2476:	00 97       	sbiw	r24, 0x00	; 0
    2478:	31 f0       	breq	.+12     	; 0x2486 <_ZN6String12changeBufferEj+0x28>
    247a:	99 83       	std	Y+1, r25	; 0x01
    247c:	88 83       	st	Y, r24
    247e:	1b 83       	std	Y+3, r17	; 0x03
    2480:	0a 83       	std	Y+2, r16	; 0x02
    2482:	81 e0       	ldi	r24, 0x01	; 1
    2484:	01 c0       	rjmp	.+2      	; 0x2488 <_ZN6String12changeBufferEj+0x2a>
    2486:	80 e0       	ldi	r24, 0x00	; 0
    2488:	df 91       	pop	r29
    248a:	cf 91       	pop	r28
    248c:	1f 91       	pop	r17
    248e:	0f 91       	pop	r16
    2490:	08 95       	ret

00002492 <_ZN6String7reserveEj>:
    2492:	cf 93       	push	r28
    2494:	df 93       	push	r29
    2496:	ec 01       	movw	r28, r24
    2498:	88 81       	ld	r24, Y
    249a:	99 81       	ldd	r25, Y+1	; 0x01
    249c:	00 97       	sbiw	r24, 0x00	; 0
    249e:	29 f0       	breq	.+10     	; 0x24aa <_ZN6String7reserveEj+0x18>
    24a0:	8a 81       	ldd	r24, Y+2	; 0x02
    24a2:	9b 81       	ldd	r25, Y+3	; 0x03
    24a4:	86 17       	cp	r24, r22
    24a6:	97 07       	cpc	r25, r23
    24a8:	78 f4       	brcc	.+30     	; 0x24c8 <_ZN6String7reserveEj+0x36>
    24aa:	ce 01       	movw	r24, r28
    24ac:	0e 94 2f 12 	call	0x245e	; 0x245e <_ZN6String12changeBufferEj>
    24b0:	88 23       	and	r24, r24
    24b2:	41 f0       	breq	.+16     	; 0x24c4 <_ZN6String7reserveEj+0x32>
    24b4:	8c 81       	ldd	r24, Y+4	; 0x04
    24b6:	9d 81       	ldd	r25, Y+5	; 0x05
    24b8:	00 97       	sbiw	r24, 0x00	; 0
    24ba:	31 f4       	brne	.+12     	; 0x24c8 <_ZN6String7reserveEj+0x36>
    24bc:	e8 81       	ld	r30, Y
    24be:	f9 81       	ldd	r31, Y+1	; 0x01
    24c0:	10 82       	st	Z, r1
    24c2:	02 c0       	rjmp	.+4      	; 0x24c8 <_ZN6String7reserveEj+0x36>
    24c4:	80 e0       	ldi	r24, 0x00	; 0
    24c6:	01 c0       	rjmp	.+2      	; 0x24ca <_ZN6String7reserveEj+0x38>
    24c8:	81 e0       	ldi	r24, 0x01	; 1
    24ca:	df 91       	pop	r29
    24cc:	cf 91       	pop	r28
    24ce:	08 95       	ret

000024d0 <_ZN6String4copyEPKcj>:
    24d0:	ef 92       	push	r14
    24d2:	ff 92       	push	r15
    24d4:	0f 93       	push	r16
    24d6:	1f 93       	push	r17
    24d8:	cf 93       	push	r28
    24da:	df 93       	push	r29
    24dc:	ec 01       	movw	r28, r24
    24de:	7b 01       	movw	r14, r22
    24e0:	8a 01       	movw	r16, r20
    24e2:	ba 01       	movw	r22, r20
    24e4:	0e 94 49 12 	call	0x2492	; 0x2492 <_ZN6String7reserveEj>
    24e8:	88 23       	and	r24, r24
    24ea:	21 f4       	brne	.+8      	; 0x24f4 <_ZN6String4copyEPKcj+0x24>
    24ec:	ce 01       	movw	r24, r28
    24ee:	0e 94 1d 12 	call	0x243a	; 0x243a <_ZN6String10invalidateEv>
    24f2:	07 c0       	rjmp	.+14     	; 0x2502 <_ZN6String4copyEPKcj+0x32>
    24f4:	1d 83       	std	Y+5, r17	; 0x05
    24f6:	0c 83       	std	Y+4, r16	; 0x04
    24f8:	88 81       	ld	r24, Y
    24fa:	99 81       	ldd	r25, Y+1	; 0x01
    24fc:	b7 01       	movw	r22, r14
    24fe:	0e 94 e5 2d 	call	0x5bca	; 0x5bca <strcpy>
    2502:	ce 01       	movw	r24, r28
    2504:	df 91       	pop	r29
    2506:	cf 91       	pop	r28
    2508:	1f 91       	pop	r17
    250a:	0f 91       	pop	r16
    250c:	ff 90       	pop	r15
    250e:	ef 90       	pop	r14
    2510:	08 95       	ret

00002512 <_ZN6StringC1EPKc>:
    2512:	cf 93       	push	r28
    2514:	df 93       	push	r29
    2516:	fc 01       	movw	r30, r24
    2518:	11 82       	std	Z+1, r1	; 0x01
    251a:	10 82       	st	Z, r1
    251c:	13 82       	std	Z+3, r1	; 0x03
    251e:	12 82       	std	Z+2, r1	; 0x02
    2520:	15 82       	std	Z+5, r1	; 0x05
    2522:	14 82       	std	Z+4, r1	; 0x04
    2524:	16 82       	std	Z+6, r1	; 0x06
    2526:	61 15       	cp	r22, r1
    2528:	71 05       	cpc	r23, r1
    252a:	59 f0       	breq	.+22     	; 0x2542 <_ZN6StringC1EPKc+0x30>
    252c:	eb 01       	movw	r28, r22
    252e:	09 90       	ld	r0, Y+
    2530:	00 20       	and	r0, r0
    2532:	e9 f7       	brne	.-6      	; 0x252e <_ZN6StringC1EPKc+0x1c>
    2534:	ae 01       	movw	r20, r28
    2536:	41 50       	subi	r20, 0x01	; 1
    2538:	50 40       	sbci	r21, 0x00	; 0
    253a:	46 1b       	sub	r20, r22
    253c:	57 0b       	sbc	r21, r23
    253e:	0e 94 68 12 	call	0x24d0	; 0x24d0 <_ZN6String4copyEPKcj>
    2542:	df 91       	pop	r29
    2544:	cf 91       	pop	r28
    2546:	08 95       	ret

00002548 <_ZN6StringaSERKS_>:
    2548:	ef 92       	push	r14
    254a:	ff 92       	push	r15
    254c:	cf 93       	push	r28
    254e:	df 93       	push	r29
    2550:	ec 01       	movw	r28, r24
    2552:	fb 01       	movw	r30, r22
    2554:	86 17       	cp	r24, r22
    2556:	97 07       	cpc	r25, r23
    2558:	61 f0       	breq	.+24     	; 0x2572 <_ZN6StringaSERKS_+0x2a>
    255a:	60 81       	ld	r22, Z
    255c:	71 81       	ldd	r23, Z+1	; 0x01
    255e:	61 15       	cp	r22, r1
    2560:	71 05       	cpc	r23, r1
    2562:	29 f0       	breq	.+10     	; 0x256e <_ZN6StringaSERKS_+0x26>
    2564:	44 81       	ldd	r20, Z+4	; 0x04
    2566:	55 81       	ldd	r21, Z+5	; 0x05
    2568:	0e 94 68 12 	call	0x24d0	; 0x24d0 <_ZN6String4copyEPKcj>
    256c:	02 c0       	rjmp	.+4      	; 0x2572 <_ZN6StringaSERKS_+0x2a>
    256e:	0e 94 1d 12 	call	0x243a	; 0x243a <_ZN6String10invalidateEv>
    2572:	ce 01       	movw	r24, r28
    2574:	df 91       	pop	r29
    2576:	cf 91       	pop	r28
    2578:	ff 90       	pop	r15
    257a:	ef 90       	pop	r14
    257c:	08 95       	ret

0000257e <_ZN6StringC1ERKS_>:
    257e:	fc 01       	movw	r30, r24
    2580:	11 82       	std	Z+1, r1	; 0x01
    2582:	10 82       	st	Z, r1
    2584:	13 82       	std	Z+3, r1	; 0x03
    2586:	12 82       	std	Z+2, r1	; 0x02
    2588:	15 82       	std	Z+5, r1	; 0x05
    258a:	14 82       	std	Z+4, r1	; 0x04
    258c:	16 82       	std	Z+6, r1	; 0x06
    258e:	0e 94 a4 12 	call	0x2548	; 0x2548 <_ZN6StringaSERKS_>
    2592:	08 95       	ret

00002594 <_ZN6StringaSEPKc>:
    2594:	0f 93       	push	r16
    2596:	1f 93       	push	r17
    2598:	8c 01       	movw	r16, r24
    259a:	61 15       	cp	r22, r1
    259c:	71 05       	cpc	r23, r1
    259e:	61 f0       	breq	.+24     	; 0x25b8 <_ZN6StringaSEPKc+0x24>
    25a0:	db 01       	movw	r26, r22
    25a2:	0d 90       	ld	r0, X+
    25a4:	00 20       	and	r0, r0
    25a6:	e9 f7       	brne	.-6      	; 0x25a2 <_ZN6StringaSEPKc+0xe>
    25a8:	ad 01       	movw	r20, r26
    25aa:	41 50       	subi	r20, 0x01	; 1
    25ac:	50 40       	sbci	r21, 0x00	; 0
    25ae:	46 1b       	sub	r20, r22
    25b0:	57 0b       	sbc	r21, r23
    25b2:	0e 94 68 12 	call	0x24d0	; 0x24d0 <_ZN6String4copyEPKcj>
    25b6:	02 c0       	rjmp	.+4      	; 0x25bc <_ZN6StringaSEPKc+0x28>
    25b8:	0e 94 1d 12 	call	0x243a	; 0x243a <_ZN6String10invalidateEv>
    25bc:	c8 01       	movw	r24, r16
    25be:	1f 91       	pop	r17
    25c0:	0f 91       	pop	r16
    25c2:	08 95       	ret

000025c4 <_ZN6StringC1Emh>:
    25c4:	ef 92       	push	r14
    25c6:	ff 92       	push	r15
    25c8:	0f 93       	push	r16
    25ca:	1f 93       	push	r17
    25cc:	df 93       	push	r29
    25ce:	cf 93       	push	r28
    25d0:	cd b7       	in	r28, 0x3d	; 61
    25d2:	de b7       	in	r29, 0x3e	; 62
    25d4:	a1 97       	sbiw	r28, 0x21	; 33
    25d6:	0f b6       	in	r0, 0x3f	; 63
    25d8:	f8 94       	cli
    25da:	de bf       	out	0x3e, r29	; 62
    25dc:	0f be       	out	0x3f, r0	; 63
    25de:	cd bf       	out	0x3d, r28	; 61
    25e0:	7c 01       	movw	r14, r24
    25e2:	cb 01       	movw	r24, r22
    25e4:	ba 01       	movw	r22, r20
    25e6:	f7 01       	movw	r30, r14
    25e8:	11 82       	std	Z+1, r1	; 0x01
    25ea:	10 82       	st	Z, r1
    25ec:	13 82       	std	Z+3, r1	; 0x03
    25ee:	12 82       	std	Z+2, r1	; 0x02
    25f0:	15 82       	std	Z+5, r1	; 0x05
    25f2:	14 82       	std	Z+4, r1	; 0x04
    25f4:	16 82       	std	Z+6, r1	; 0x06
    25f6:	8e 01       	movw	r16, r28
    25f8:	0f 5f       	subi	r16, 0xFF	; 255
    25fa:	1f 4f       	sbci	r17, 0xFF	; 255
    25fc:	a8 01       	movw	r20, r16
    25fe:	30 e0       	ldi	r19, 0x00	; 0
    2600:	0e 94 98 2e 	call	0x5d30	; 0x5d30 <ultoa>
    2604:	c7 01       	movw	r24, r14
    2606:	b8 01       	movw	r22, r16
    2608:	0e 94 ca 12 	call	0x2594	; 0x2594 <_ZN6StringaSEPKc>
    260c:	a1 96       	adiw	r28, 0x21	; 33
    260e:	0f b6       	in	r0, 0x3f	; 63
    2610:	f8 94       	cli
    2612:	de bf       	out	0x3e, r29	; 62
    2614:	0f be       	out	0x3f, r0	; 63
    2616:	cd bf       	out	0x3d, r28	; 61
    2618:	cf 91       	pop	r28
    261a:	df 91       	pop	r29
    261c:	1f 91       	pop	r17
    261e:	0f 91       	pop	r16
    2620:	ff 90       	pop	r15
    2622:	ef 90       	pop	r14
    2624:	08 95       	ret

00002626 <_ZN6StringC1Elh>:
    2626:	ef 92       	push	r14
    2628:	ff 92       	push	r15
    262a:	0f 93       	push	r16
    262c:	1f 93       	push	r17
    262e:	df 93       	push	r29
    2630:	cf 93       	push	r28
    2632:	cd b7       	in	r28, 0x3d	; 61
    2634:	de b7       	in	r29, 0x3e	; 62
    2636:	a2 97       	sbiw	r28, 0x22	; 34
    2638:	0f b6       	in	r0, 0x3f	; 63
    263a:	f8 94       	cli
    263c:	de bf       	out	0x3e, r29	; 62
    263e:	0f be       	out	0x3f, r0	; 63
    2640:	cd bf       	out	0x3d, r28	; 61
    2642:	7c 01       	movw	r14, r24
    2644:	cb 01       	movw	r24, r22
    2646:	ba 01       	movw	r22, r20
    2648:	f7 01       	movw	r30, r14
    264a:	11 82       	std	Z+1, r1	; 0x01
    264c:	10 82       	st	Z, r1
    264e:	13 82       	std	Z+3, r1	; 0x03
    2650:	12 82       	std	Z+2, r1	; 0x02
    2652:	15 82       	std	Z+5, r1	; 0x05
    2654:	14 82       	std	Z+4, r1	; 0x04
    2656:	16 82       	std	Z+6, r1	; 0x06
    2658:	8e 01       	movw	r16, r28
    265a:	0f 5f       	subi	r16, 0xFF	; 255
    265c:	1f 4f       	sbci	r17, 0xFF	; 255
    265e:	a8 01       	movw	r20, r16
    2660:	30 e0       	ldi	r19, 0x00	; 0
    2662:	0e 94 4f 2e 	call	0x5c9e	; 0x5c9e <ltoa>
    2666:	c7 01       	movw	r24, r14
    2668:	b8 01       	movw	r22, r16
    266a:	0e 94 ca 12 	call	0x2594	; 0x2594 <_ZN6StringaSEPKc>
    266e:	a2 96       	adiw	r28, 0x22	; 34
    2670:	0f b6       	in	r0, 0x3f	; 63
    2672:	f8 94       	cli
    2674:	de bf       	out	0x3e, r29	; 62
    2676:	0f be       	out	0x3f, r0	; 63
    2678:	cd bf       	out	0x3d, r28	; 61
    267a:	cf 91       	pop	r28
    267c:	df 91       	pop	r29
    267e:	1f 91       	pop	r17
    2680:	0f 91       	pop	r16
    2682:	ff 90       	pop	r15
    2684:	ef 90       	pop	r14
    2686:	08 95       	ret

00002688 <_ZN6StringC1Ejh>:
    2688:	ef 92       	push	r14
    268a:	ff 92       	push	r15
    268c:	0f 93       	push	r16
    268e:	1f 93       	push	r17
    2690:	df 93       	push	r29
    2692:	cf 93       	push	r28
    2694:	cd b7       	in	r28, 0x3d	; 61
    2696:	de b7       	in	r29, 0x3e	; 62
    2698:	61 97       	sbiw	r28, 0x11	; 17
    269a:	0f b6       	in	r0, 0x3f	; 63
    269c:	f8 94       	cli
    269e:	de bf       	out	0x3e, r29	; 62
    26a0:	0f be       	out	0x3f, r0	; 63
    26a2:	cd bf       	out	0x3d, r28	; 61
    26a4:	7c 01       	movw	r14, r24
    26a6:	cb 01       	movw	r24, r22
    26a8:	f7 01       	movw	r30, r14
    26aa:	11 82       	std	Z+1, r1	; 0x01
    26ac:	10 82       	st	Z, r1
    26ae:	13 82       	std	Z+3, r1	; 0x03
    26b0:	12 82       	std	Z+2, r1	; 0x02
    26b2:	15 82       	std	Z+5, r1	; 0x05
    26b4:	14 82       	std	Z+4, r1	; 0x04
    26b6:	16 82       	std	Z+6, r1	; 0x06
    26b8:	8e 01       	movw	r16, r28
    26ba:	0f 5f       	subi	r16, 0xFF	; 255
    26bc:	1f 4f       	sbci	r17, 0xFF	; 255
    26be:	b8 01       	movw	r22, r16
    26c0:	50 e0       	ldi	r21, 0x00	; 0
    26c2:	0e 94 bd 2e 	call	0x5d7a	; 0x5d7a <utoa>
    26c6:	c7 01       	movw	r24, r14
    26c8:	b8 01       	movw	r22, r16
    26ca:	0e 94 ca 12 	call	0x2594	; 0x2594 <_ZN6StringaSEPKc>
    26ce:	61 96       	adiw	r28, 0x11	; 17
    26d0:	0f b6       	in	r0, 0x3f	; 63
    26d2:	f8 94       	cli
    26d4:	de bf       	out	0x3e, r29	; 62
    26d6:	0f be       	out	0x3f, r0	; 63
    26d8:	cd bf       	out	0x3d, r28	; 61
    26da:	cf 91       	pop	r28
    26dc:	df 91       	pop	r29
    26de:	1f 91       	pop	r17
    26e0:	0f 91       	pop	r16
    26e2:	ff 90       	pop	r15
    26e4:	ef 90       	pop	r14
    26e6:	08 95       	ret

000026e8 <_ZN6StringC1Eih>:
    26e8:	ef 92       	push	r14
    26ea:	ff 92       	push	r15
    26ec:	0f 93       	push	r16
    26ee:	1f 93       	push	r17
    26f0:	df 93       	push	r29
    26f2:	cf 93       	push	r28
    26f4:	cd b7       	in	r28, 0x3d	; 61
    26f6:	de b7       	in	r29, 0x3e	; 62
    26f8:	62 97       	sbiw	r28, 0x12	; 18
    26fa:	0f b6       	in	r0, 0x3f	; 63
    26fc:	f8 94       	cli
    26fe:	de bf       	out	0x3e, r29	; 62
    2700:	0f be       	out	0x3f, r0	; 63
    2702:	cd bf       	out	0x3d, r28	; 61
    2704:	7c 01       	movw	r14, r24
    2706:	cb 01       	movw	r24, r22
    2708:	f7 01       	movw	r30, r14
    270a:	11 82       	std	Z+1, r1	; 0x01
    270c:	10 82       	st	Z, r1
    270e:	13 82       	std	Z+3, r1	; 0x03
    2710:	12 82       	std	Z+2, r1	; 0x02
    2712:	15 82       	std	Z+5, r1	; 0x05
    2714:	14 82       	std	Z+4, r1	; 0x04
    2716:	16 82       	std	Z+6, r1	; 0x06
    2718:	8e 01       	movw	r16, r28
    271a:	0f 5f       	subi	r16, 0xFF	; 255
    271c:	1f 4f       	sbci	r17, 0xFF	; 255
    271e:	b8 01       	movw	r22, r16
    2720:	50 e0       	ldi	r21, 0x00	; 0
    2722:	0e 94 2e 2e 	call	0x5c5c	; 0x5c5c <itoa>
    2726:	c7 01       	movw	r24, r14
    2728:	b8 01       	movw	r22, r16
    272a:	0e 94 ca 12 	call	0x2594	; 0x2594 <_ZN6StringaSEPKc>
    272e:	62 96       	adiw	r28, 0x12	; 18
    2730:	0f b6       	in	r0, 0x3f	; 63
    2732:	f8 94       	cli
    2734:	de bf       	out	0x3e, r29	; 62
    2736:	0f be       	out	0x3f, r0	; 63
    2738:	cd bf       	out	0x3d, r28	; 61
    273a:	cf 91       	pop	r28
    273c:	df 91       	pop	r29
    273e:	1f 91       	pop	r17
    2740:	0f 91       	pop	r16
    2742:	ff 90       	pop	r15
    2744:	ef 90       	pop	r14
    2746:	08 95       	ret

00002748 <_ZN6StringC1Ehh>:
    2748:	ef 92       	push	r14
    274a:	ff 92       	push	r15
    274c:	0f 93       	push	r16
    274e:	1f 93       	push	r17
    2750:	df 93       	push	r29
    2752:	cf 93       	push	r28
    2754:	cd b7       	in	r28, 0x3d	; 61
    2756:	de b7       	in	r29, 0x3e	; 62
    2758:	29 97       	sbiw	r28, 0x09	; 9
    275a:	0f b6       	in	r0, 0x3f	; 63
    275c:	f8 94       	cli
    275e:	de bf       	out	0x3e, r29	; 62
    2760:	0f be       	out	0x3f, r0	; 63
    2762:	cd bf       	out	0x3d, r28	; 61
    2764:	7c 01       	movw	r14, r24
    2766:	86 2f       	mov	r24, r22
    2768:	f7 01       	movw	r30, r14
    276a:	11 82       	std	Z+1, r1	; 0x01
    276c:	10 82       	st	Z, r1
    276e:	13 82       	std	Z+3, r1	; 0x03
    2770:	12 82       	std	Z+2, r1	; 0x02
    2772:	15 82       	std	Z+5, r1	; 0x05
    2774:	14 82       	std	Z+4, r1	; 0x04
    2776:	16 82       	std	Z+6, r1	; 0x06
    2778:	90 e0       	ldi	r25, 0x00	; 0
    277a:	8e 01       	movw	r16, r28
    277c:	0f 5f       	subi	r16, 0xFF	; 255
    277e:	1f 4f       	sbci	r17, 0xFF	; 255
    2780:	b8 01       	movw	r22, r16
    2782:	50 e0       	ldi	r21, 0x00	; 0
    2784:	0e 94 bd 2e 	call	0x5d7a	; 0x5d7a <utoa>
    2788:	c7 01       	movw	r24, r14
    278a:	b8 01       	movw	r22, r16
    278c:	0e 94 ca 12 	call	0x2594	; 0x2594 <_ZN6StringaSEPKc>
    2790:	29 96       	adiw	r28, 0x09	; 9
    2792:	0f b6       	in	r0, 0x3f	; 63
    2794:	f8 94       	cli
    2796:	de bf       	out	0x3e, r29	; 62
    2798:	0f be       	out	0x3f, r0	; 63
    279a:	cd bf       	out	0x3d, r28	; 61
    279c:	cf 91       	pop	r28
    279e:	df 91       	pop	r29
    27a0:	1f 91       	pop	r17
    27a2:	0f 91       	pop	r16
    27a4:	ff 90       	pop	r15
    27a6:	ef 90       	pop	r14
    27a8:	08 95       	ret

000027aa <_ZN6StringC1Ec>:
    27aa:	df 93       	push	r29
    27ac:	cf 93       	push	r28
    27ae:	00 d0       	rcall	.+0      	; 0x27b0 <_ZN6StringC1Ec+0x6>
    27b0:	cd b7       	in	r28, 0x3d	; 61
    27b2:	de b7       	in	r29, 0x3e	; 62
    27b4:	fc 01       	movw	r30, r24
    27b6:	11 82       	std	Z+1, r1	; 0x01
    27b8:	10 82       	st	Z, r1
    27ba:	13 82       	std	Z+3, r1	; 0x03
    27bc:	12 82       	std	Z+2, r1	; 0x02
    27be:	15 82       	std	Z+5, r1	; 0x05
    27c0:	14 82       	std	Z+4, r1	; 0x04
    27c2:	16 82       	std	Z+6, r1	; 0x06
    27c4:	69 83       	std	Y+1, r22	; 0x01
    27c6:	1a 82       	std	Y+2, r1	; 0x02
    27c8:	be 01       	movw	r22, r28
    27ca:	6f 5f       	subi	r22, 0xFF	; 255
    27cc:	7f 4f       	sbci	r23, 0xFF	; 255
    27ce:	0e 94 ca 12 	call	0x2594	; 0x2594 <_ZN6StringaSEPKc>
    27d2:	0f 90       	pop	r0
    27d4:	0f 90       	pop	r0
    27d6:	cf 91       	pop	r28
    27d8:	df 91       	pop	r29
    27da:	08 95       	ret

000027dc <_ZN6String6concatEPKcj>:
    27dc:	ef 92       	push	r14
    27de:	ff 92       	push	r15
    27e0:	0f 93       	push	r16
    27e2:	1f 93       	push	r17
    27e4:	cf 93       	push	r28
    27e6:	df 93       	push	r29
    27e8:	ec 01       	movw	r28, r24
    27ea:	7b 01       	movw	r14, r22
    27ec:	0c 81       	ldd	r16, Y+4	; 0x04
    27ee:	1d 81       	ldd	r17, Y+5	; 0x05
    27f0:	61 15       	cp	r22, r1
    27f2:	71 05       	cpc	r23, r1
    27f4:	b9 f0       	breq	.+46     	; 0x2824 <_ZN6String6concatEPKcj+0x48>
    27f6:	41 15       	cp	r20, r1
    27f8:	51 05       	cpc	r21, r1
    27fa:	91 f0       	breq	.+36     	; 0x2820 <_ZN6String6concatEPKcj+0x44>
    27fc:	04 0f       	add	r16, r20
    27fe:	15 1f       	adc	r17, r21
    2800:	b8 01       	movw	r22, r16
    2802:	0e 94 49 12 	call	0x2492	; 0x2492 <_ZN6String7reserveEj>
    2806:	88 23       	and	r24, r24
    2808:	69 f0       	breq	.+26     	; 0x2824 <_ZN6String6concatEPKcj+0x48>
    280a:	28 81       	ld	r18, Y
    280c:	39 81       	ldd	r19, Y+1	; 0x01
    280e:	8c 81       	ldd	r24, Y+4	; 0x04
    2810:	9d 81       	ldd	r25, Y+5	; 0x05
    2812:	82 0f       	add	r24, r18
    2814:	93 1f       	adc	r25, r19
    2816:	b7 01       	movw	r22, r14
    2818:	0e 94 e5 2d 	call	0x5bca	; 0x5bca <strcpy>
    281c:	1d 83       	std	Y+5, r17	; 0x05
    281e:	0c 83       	std	Y+4, r16	; 0x04
    2820:	81 e0       	ldi	r24, 0x01	; 1
    2822:	01 c0       	rjmp	.+2      	; 0x2826 <_ZN6String6concatEPKcj+0x4a>
    2824:	80 e0       	ldi	r24, 0x00	; 0
    2826:	df 91       	pop	r29
    2828:	cf 91       	pop	r28
    282a:	1f 91       	pop	r17
    282c:	0f 91       	pop	r16
    282e:	ff 90       	pop	r15
    2830:	ef 90       	pop	r14
    2832:	08 95       	ret

00002834 <_ZN6String6concatERKS_>:
    2834:	fb 01       	movw	r30, r22
    2836:	60 81       	ld	r22, Z
    2838:	71 81       	ldd	r23, Z+1	; 0x01
    283a:	44 81       	ldd	r20, Z+4	; 0x04
    283c:	55 81       	ldd	r21, Z+5	; 0x05
    283e:	0e 94 ee 13 	call	0x27dc	; 0x27dc <_ZN6String6concatEPKcj>
    2842:	08 95       	ret

00002844 <_ZN6String6concatEPKc>:
    2844:	61 15       	cp	r22, r1
    2846:	71 05       	cpc	r23, r1
    2848:	61 f0       	breq	.+24     	; 0x2862 <_ZN6String6concatEPKc+0x1e>
    284a:	db 01       	movw	r26, r22
    284c:	0d 90       	ld	r0, X+
    284e:	00 20       	and	r0, r0
    2850:	e9 f7       	brne	.-6      	; 0x284c <_ZN6String6concatEPKc+0x8>
    2852:	ad 01       	movw	r20, r26
    2854:	41 50       	subi	r20, 0x01	; 1
    2856:	50 40       	sbci	r21, 0x00	; 0
    2858:	46 1b       	sub	r20, r22
    285a:	57 0b       	sbc	r21, r23
    285c:	0e 94 ee 13 	call	0x27dc	; 0x27dc <_ZN6String6concatEPKcj>
    2860:	08 95       	ret
    2862:	80 e0       	ldi	r24, 0x00	; 0
    2864:	08 95       	ret

00002866 <_ZN6String6concatEc>:
    2866:	df 93       	push	r29
    2868:	cf 93       	push	r28
    286a:	00 d0       	rcall	.+0      	; 0x286c <_ZN6String6concatEc+0x6>
    286c:	cd b7       	in	r28, 0x3d	; 61
    286e:	de b7       	in	r29, 0x3e	; 62
    2870:	69 83       	std	Y+1, r22	; 0x01
    2872:	1a 82       	std	Y+2, r1	; 0x02
    2874:	be 01       	movw	r22, r28
    2876:	6f 5f       	subi	r22, 0xFF	; 255
    2878:	7f 4f       	sbci	r23, 0xFF	; 255
    287a:	41 e0       	ldi	r20, 0x01	; 1
    287c:	50 e0       	ldi	r21, 0x00	; 0
    287e:	0e 94 ee 13 	call	0x27dc	; 0x27dc <_ZN6String6concatEPKcj>
    2882:	0f 90       	pop	r0
    2884:	0f 90       	pop	r0
    2886:	cf 91       	pop	r28
    2888:	df 91       	pop	r29
    288a:	08 95       	ret

0000288c <_ZN6String6concatEh>:
    288c:	ef 92       	push	r14
    288e:	ff 92       	push	r15
    2890:	0f 93       	push	r16
    2892:	1f 93       	push	r17
    2894:	df 93       	push	r29
    2896:	cf 93       	push	r28
    2898:	00 d0       	rcall	.+0      	; 0x289a <_ZN6String6concatEh+0xe>
    289a:	00 d0       	rcall	.+0      	; 0x289c <_ZN6String6concatEh+0x10>
    289c:	cd b7       	in	r28, 0x3d	; 61
    289e:	de b7       	in	r29, 0x3e	; 62
    28a0:	7c 01       	movw	r14, r24
    28a2:	86 2f       	mov	r24, r22
    28a4:	90 e0       	ldi	r25, 0x00	; 0
    28a6:	8e 01       	movw	r16, r28
    28a8:	0f 5f       	subi	r16, 0xFF	; 255
    28aa:	1f 4f       	sbci	r17, 0xFF	; 255
    28ac:	b8 01       	movw	r22, r16
    28ae:	4a e0       	ldi	r20, 0x0A	; 10
    28b0:	50 e0       	ldi	r21, 0x00	; 0
    28b2:	0e 94 2e 2e 	call	0x5c5c	; 0x5c5c <itoa>
    28b6:	f8 01       	movw	r30, r16
    28b8:	01 90       	ld	r0, Z+
    28ba:	00 20       	and	r0, r0
    28bc:	e9 f7       	brne	.-6      	; 0x28b8 <_ZN6String6concatEh+0x2c>
    28be:	af 01       	movw	r20, r30
    28c0:	41 50       	subi	r20, 0x01	; 1
    28c2:	50 40       	sbci	r21, 0x00	; 0
    28c4:	40 1b       	sub	r20, r16
    28c6:	51 0b       	sbc	r21, r17
    28c8:	c7 01       	movw	r24, r14
    28ca:	b8 01       	movw	r22, r16
    28cc:	0e 94 ee 13 	call	0x27dc	; 0x27dc <_ZN6String6concatEPKcj>
    28d0:	0f 90       	pop	r0
    28d2:	0f 90       	pop	r0
    28d4:	0f 90       	pop	r0
    28d6:	0f 90       	pop	r0
    28d8:	cf 91       	pop	r28
    28da:	df 91       	pop	r29
    28dc:	1f 91       	pop	r17
    28de:	0f 91       	pop	r16
    28e0:	ff 90       	pop	r15
    28e2:	ef 90       	pop	r14
    28e4:	08 95       	ret

000028e6 <_ZN6String6concatEi>:
    28e6:	ef 92       	push	r14
    28e8:	ff 92       	push	r15
    28ea:	0f 93       	push	r16
    28ec:	1f 93       	push	r17
    28ee:	df 93       	push	r29
    28f0:	cf 93       	push	r28
    28f2:	cd b7       	in	r28, 0x3d	; 61
    28f4:	de b7       	in	r29, 0x3e	; 62
    28f6:	27 97       	sbiw	r28, 0x07	; 7
    28f8:	0f b6       	in	r0, 0x3f	; 63
    28fa:	f8 94       	cli
    28fc:	de bf       	out	0x3e, r29	; 62
    28fe:	0f be       	out	0x3f, r0	; 63
    2900:	cd bf       	out	0x3d, r28	; 61
    2902:	7c 01       	movw	r14, r24
    2904:	cb 01       	movw	r24, r22
    2906:	8e 01       	movw	r16, r28
    2908:	0f 5f       	subi	r16, 0xFF	; 255
    290a:	1f 4f       	sbci	r17, 0xFF	; 255
    290c:	b8 01       	movw	r22, r16
    290e:	4a e0       	ldi	r20, 0x0A	; 10
    2910:	50 e0       	ldi	r21, 0x00	; 0
    2912:	0e 94 2e 2e 	call	0x5c5c	; 0x5c5c <itoa>
    2916:	f8 01       	movw	r30, r16
    2918:	01 90       	ld	r0, Z+
    291a:	00 20       	and	r0, r0
    291c:	e9 f7       	brne	.-6      	; 0x2918 <_ZN6String6concatEi+0x32>
    291e:	af 01       	movw	r20, r30
    2920:	41 50       	subi	r20, 0x01	; 1
    2922:	50 40       	sbci	r21, 0x00	; 0
    2924:	40 1b       	sub	r20, r16
    2926:	51 0b       	sbc	r21, r17
    2928:	c7 01       	movw	r24, r14
    292a:	b8 01       	movw	r22, r16
    292c:	0e 94 ee 13 	call	0x27dc	; 0x27dc <_ZN6String6concatEPKcj>
    2930:	27 96       	adiw	r28, 0x07	; 7
    2932:	0f b6       	in	r0, 0x3f	; 63
    2934:	f8 94       	cli
    2936:	de bf       	out	0x3e, r29	; 62
    2938:	0f be       	out	0x3f, r0	; 63
    293a:	cd bf       	out	0x3d, r28	; 61
    293c:	cf 91       	pop	r28
    293e:	df 91       	pop	r29
    2940:	1f 91       	pop	r17
    2942:	0f 91       	pop	r16
    2944:	ff 90       	pop	r15
    2946:	ef 90       	pop	r14
    2948:	08 95       	ret

0000294a <_ZN6String6concatEj>:
    294a:	ef 92       	push	r14
    294c:	ff 92       	push	r15
    294e:	0f 93       	push	r16
    2950:	1f 93       	push	r17
    2952:	df 93       	push	r29
    2954:	cf 93       	push	r28
    2956:	00 d0       	rcall	.+0      	; 0x2958 <_ZN6String6concatEj+0xe>
    2958:	00 d0       	rcall	.+0      	; 0x295a <_ZN6String6concatEj+0x10>
    295a:	00 d0       	rcall	.+0      	; 0x295c <_ZN6String6concatEj+0x12>
    295c:	cd b7       	in	r28, 0x3d	; 61
    295e:	de b7       	in	r29, 0x3e	; 62
    2960:	7c 01       	movw	r14, r24
    2962:	cb 01       	movw	r24, r22
    2964:	8e 01       	movw	r16, r28
    2966:	0f 5f       	subi	r16, 0xFF	; 255
    2968:	1f 4f       	sbci	r17, 0xFF	; 255
    296a:	b8 01       	movw	r22, r16
    296c:	4a e0       	ldi	r20, 0x0A	; 10
    296e:	50 e0       	ldi	r21, 0x00	; 0
    2970:	0e 94 bd 2e 	call	0x5d7a	; 0x5d7a <utoa>
    2974:	f8 01       	movw	r30, r16
    2976:	01 90       	ld	r0, Z+
    2978:	00 20       	and	r0, r0
    297a:	e9 f7       	brne	.-6      	; 0x2976 <_ZN6String6concatEj+0x2c>
    297c:	af 01       	movw	r20, r30
    297e:	41 50       	subi	r20, 0x01	; 1
    2980:	50 40       	sbci	r21, 0x00	; 0
    2982:	40 1b       	sub	r20, r16
    2984:	51 0b       	sbc	r21, r17
    2986:	c7 01       	movw	r24, r14
    2988:	b8 01       	movw	r22, r16
    298a:	0e 94 ee 13 	call	0x27dc	; 0x27dc <_ZN6String6concatEPKcj>
    298e:	26 96       	adiw	r28, 0x06	; 6
    2990:	0f b6       	in	r0, 0x3f	; 63
    2992:	f8 94       	cli
    2994:	de bf       	out	0x3e, r29	; 62
    2996:	0f be       	out	0x3f, r0	; 63
    2998:	cd bf       	out	0x3d, r28	; 61
    299a:	cf 91       	pop	r28
    299c:	df 91       	pop	r29
    299e:	1f 91       	pop	r17
    29a0:	0f 91       	pop	r16
    29a2:	ff 90       	pop	r15
    29a4:	ef 90       	pop	r14
    29a6:	08 95       	ret

000029a8 <_ZN6String6concatEl>:
    29a8:	ef 92       	push	r14
    29aa:	ff 92       	push	r15
    29ac:	0f 93       	push	r16
    29ae:	1f 93       	push	r17
    29b0:	df 93       	push	r29
    29b2:	cf 93       	push	r28
    29b4:	cd b7       	in	r28, 0x3d	; 61
    29b6:	de b7       	in	r29, 0x3e	; 62
    29b8:	2c 97       	sbiw	r28, 0x0c	; 12
    29ba:	0f b6       	in	r0, 0x3f	; 63
    29bc:	f8 94       	cli
    29be:	de bf       	out	0x3e, r29	; 62
    29c0:	0f be       	out	0x3f, r0	; 63
    29c2:	cd bf       	out	0x3d, r28	; 61
    29c4:	7c 01       	movw	r14, r24
    29c6:	cb 01       	movw	r24, r22
    29c8:	ba 01       	movw	r22, r20
    29ca:	8e 01       	movw	r16, r28
    29cc:	0f 5f       	subi	r16, 0xFF	; 255
    29ce:	1f 4f       	sbci	r17, 0xFF	; 255
    29d0:	a8 01       	movw	r20, r16
    29d2:	2a e0       	ldi	r18, 0x0A	; 10
    29d4:	30 e0       	ldi	r19, 0x00	; 0
    29d6:	0e 94 4f 2e 	call	0x5c9e	; 0x5c9e <ltoa>
    29da:	f8 01       	movw	r30, r16
    29dc:	01 90       	ld	r0, Z+
    29de:	00 20       	and	r0, r0
    29e0:	e9 f7       	brne	.-6      	; 0x29dc <_ZN6String6concatEl+0x34>
    29e2:	af 01       	movw	r20, r30
    29e4:	41 50       	subi	r20, 0x01	; 1
    29e6:	50 40       	sbci	r21, 0x00	; 0
    29e8:	40 1b       	sub	r20, r16
    29ea:	51 0b       	sbc	r21, r17
    29ec:	c7 01       	movw	r24, r14
    29ee:	b8 01       	movw	r22, r16
    29f0:	0e 94 ee 13 	call	0x27dc	; 0x27dc <_ZN6String6concatEPKcj>
    29f4:	2c 96       	adiw	r28, 0x0c	; 12
    29f6:	0f b6       	in	r0, 0x3f	; 63
    29f8:	f8 94       	cli
    29fa:	de bf       	out	0x3e, r29	; 62
    29fc:	0f be       	out	0x3f, r0	; 63
    29fe:	cd bf       	out	0x3d, r28	; 61
    2a00:	cf 91       	pop	r28
    2a02:	df 91       	pop	r29
    2a04:	1f 91       	pop	r17
    2a06:	0f 91       	pop	r16
    2a08:	ff 90       	pop	r15
    2a0a:	ef 90       	pop	r14
    2a0c:	08 95       	ret

00002a0e <_ZN6String6concatEm>:
    2a0e:	ef 92       	push	r14
    2a10:	ff 92       	push	r15
    2a12:	0f 93       	push	r16
    2a14:	1f 93       	push	r17
    2a16:	df 93       	push	r29
    2a18:	cf 93       	push	r28
    2a1a:	cd b7       	in	r28, 0x3d	; 61
    2a1c:	de b7       	in	r29, 0x3e	; 62
    2a1e:	2b 97       	sbiw	r28, 0x0b	; 11
    2a20:	0f b6       	in	r0, 0x3f	; 63
    2a22:	f8 94       	cli
    2a24:	de bf       	out	0x3e, r29	; 62
    2a26:	0f be       	out	0x3f, r0	; 63
    2a28:	cd bf       	out	0x3d, r28	; 61
    2a2a:	7c 01       	movw	r14, r24
    2a2c:	cb 01       	movw	r24, r22
    2a2e:	ba 01       	movw	r22, r20
    2a30:	8e 01       	movw	r16, r28
    2a32:	0f 5f       	subi	r16, 0xFF	; 255
    2a34:	1f 4f       	sbci	r17, 0xFF	; 255
    2a36:	a8 01       	movw	r20, r16
    2a38:	2a e0       	ldi	r18, 0x0A	; 10
    2a3a:	30 e0       	ldi	r19, 0x00	; 0
    2a3c:	0e 94 98 2e 	call	0x5d30	; 0x5d30 <ultoa>
    2a40:	f8 01       	movw	r30, r16
    2a42:	01 90       	ld	r0, Z+
    2a44:	00 20       	and	r0, r0
    2a46:	e9 f7       	brne	.-6      	; 0x2a42 <_ZN6String6concatEm+0x34>
    2a48:	af 01       	movw	r20, r30
    2a4a:	41 50       	subi	r20, 0x01	; 1
    2a4c:	50 40       	sbci	r21, 0x00	; 0
    2a4e:	40 1b       	sub	r20, r16
    2a50:	51 0b       	sbc	r21, r17
    2a52:	c7 01       	movw	r24, r14
    2a54:	b8 01       	movw	r22, r16
    2a56:	0e 94 ee 13 	call	0x27dc	; 0x27dc <_ZN6String6concatEPKcj>
    2a5a:	2b 96       	adiw	r28, 0x0b	; 11
    2a5c:	0f b6       	in	r0, 0x3f	; 63
    2a5e:	f8 94       	cli
    2a60:	de bf       	out	0x3e, r29	; 62
    2a62:	0f be       	out	0x3f, r0	; 63
    2a64:	cd bf       	out	0x3d, r28	; 61
    2a66:	cf 91       	pop	r28
    2a68:	df 91       	pop	r29
    2a6a:	1f 91       	pop	r17
    2a6c:	0f 91       	pop	r16
    2a6e:	ff 90       	pop	r15
    2a70:	ef 90       	pop	r14
    2a72:	08 95       	ret

00002a74 <_ZplRK15StringSumHelperRK6String>:
    2a74:	0f 93       	push	r16
    2a76:	1f 93       	push	r17
    2a78:	8c 01       	movw	r16, r24
    2a7a:	fb 01       	movw	r30, r22
    2a7c:	60 81       	ld	r22, Z
    2a7e:	71 81       	ldd	r23, Z+1	; 0x01
    2a80:	44 81       	ldd	r20, Z+4	; 0x04
    2a82:	55 81       	ldd	r21, Z+5	; 0x05
    2a84:	0e 94 ee 13 	call	0x27dc	; 0x27dc <_ZN6String6concatEPKcj>
    2a88:	88 23       	and	r24, r24
    2a8a:	19 f4       	brne	.+6      	; 0x2a92 <_ZplRK15StringSumHelperRK6String+0x1e>
    2a8c:	c8 01       	movw	r24, r16
    2a8e:	0e 94 1d 12 	call	0x243a	; 0x243a <_ZN6String10invalidateEv>
    2a92:	c8 01       	movw	r24, r16
    2a94:	1f 91       	pop	r17
    2a96:	0f 91       	pop	r16
    2a98:	08 95       	ret

00002a9a <_ZplRK15StringSumHelperPKc>:
    2a9a:	0f 93       	push	r16
    2a9c:	1f 93       	push	r17
    2a9e:	8c 01       	movw	r16, r24
    2aa0:	61 15       	cp	r22, r1
    2aa2:	71 05       	cpc	r23, r1
    2aa4:	69 f0       	breq	.+26     	; 0x2ac0 <_ZplRK15StringSumHelperPKc+0x26>
    2aa6:	db 01       	movw	r26, r22
    2aa8:	0d 90       	ld	r0, X+
    2aaa:	00 20       	and	r0, r0
    2aac:	e9 f7       	brne	.-6      	; 0x2aa8 <_ZplRK15StringSumHelperPKc+0xe>
    2aae:	ad 01       	movw	r20, r26
    2ab0:	41 50       	subi	r20, 0x01	; 1
    2ab2:	50 40       	sbci	r21, 0x00	; 0
    2ab4:	46 1b       	sub	r20, r22
    2ab6:	57 0b       	sbc	r21, r23
    2ab8:	0e 94 ee 13 	call	0x27dc	; 0x27dc <_ZN6String6concatEPKcj>
    2abc:	88 23       	and	r24, r24
    2abe:	19 f4       	brne	.+6      	; 0x2ac6 <_ZplRK15StringSumHelperPKc+0x2c>
    2ac0:	c8 01       	movw	r24, r16
    2ac2:	0e 94 1d 12 	call	0x243a	; 0x243a <_ZN6String10invalidateEv>
    2ac6:	c8 01       	movw	r24, r16
    2ac8:	1f 91       	pop	r17
    2aca:	0f 91       	pop	r16
    2acc:	08 95       	ret

00002ace <_ZplRK15StringSumHelperc>:
    2ace:	0f 93       	push	r16
    2ad0:	1f 93       	push	r17
    2ad2:	8c 01       	movw	r16, r24
    2ad4:	0e 94 33 14 	call	0x2866	; 0x2866 <_ZN6String6concatEc>
    2ad8:	88 23       	and	r24, r24
    2ada:	19 f4       	brne	.+6      	; 0x2ae2 <_ZplRK15StringSumHelperc+0x14>
    2adc:	c8 01       	movw	r24, r16
    2ade:	0e 94 1d 12 	call	0x243a	; 0x243a <_ZN6String10invalidateEv>
    2ae2:	c8 01       	movw	r24, r16
    2ae4:	1f 91       	pop	r17
    2ae6:	0f 91       	pop	r16
    2ae8:	08 95       	ret

00002aea <_ZplRK15StringSumHelperh>:
    2aea:	0f 93       	push	r16
    2aec:	1f 93       	push	r17
    2aee:	8c 01       	movw	r16, r24
    2af0:	0e 94 46 14 	call	0x288c	; 0x288c <_ZN6String6concatEh>
    2af4:	88 23       	and	r24, r24
    2af6:	19 f4       	brne	.+6      	; 0x2afe <_ZplRK15StringSumHelperh+0x14>
    2af8:	c8 01       	movw	r24, r16
    2afa:	0e 94 1d 12 	call	0x243a	; 0x243a <_ZN6String10invalidateEv>
    2afe:	c8 01       	movw	r24, r16
    2b00:	1f 91       	pop	r17
    2b02:	0f 91       	pop	r16
    2b04:	08 95       	ret

00002b06 <_ZplRK15StringSumHelperi>:
    2b06:	0f 93       	push	r16
    2b08:	1f 93       	push	r17
    2b0a:	8c 01       	movw	r16, r24
    2b0c:	0e 94 73 14 	call	0x28e6	; 0x28e6 <_ZN6String6concatEi>
    2b10:	88 23       	and	r24, r24
    2b12:	19 f4       	brne	.+6      	; 0x2b1a <_ZplRK15StringSumHelperi+0x14>
    2b14:	c8 01       	movw	r24, r16
    2b16:	0e 94 1d 12 	call	0x243a	; 0x243a <_ZN6String10invalidateEv>
    2b1a:	c8 01       	movw	r24, r16
    2b1c:	1f 91       	pop	r17
    2b1e:	0f 91       	pop	r16
    2b20:	08 95       	ret

00002b22 <_ZplRK15StringSumHelperj>:
    2b22:	0f 93       	push	r16
    2b24:	1f 93       	push	r17
    2b26:	8c 01       	movw	r16, r24
    2b28:	0e 94 a5 14 	call	0x294a	; 0x294a <_ZN6String6concatEj>
    2b2c:	88 23       	and	r24, r24
    2b2e:	19 f4       	brne	.+6      	; 0x2b36 <_ZplRK15StringSumHelperj+0x14>
    2b30:	c8 01       	movw	r24, r16
    2b32:	0e 94 1d 12 	call	0x243a	; 0x243a <_ZN6String10invalidateEv>
    2b36:	c8 01       	movw	r24, r16
    2b38:	1f 91       	pop	r17
    2b3a:	0f 91       	pop	r16
    2b3c:	08 95       	ret

00002b3e <_ZplRK15StringSumHelperl>:
    2b3e:	0f 93       	push	r16
    2b40:	1f 93       	push	r17
    2b42:	8c 01       	movw	r16, r24
    2b44:	0e 94 d4 14 	call	0x29a8	; 0x29a8 <_ZN6String6concatEl>
    2b48:	88 23       	and	r24, r24
    2b4a:	19 f4       	brne	.+6      	; 0x2b52 <_ZplRK15StringSumHelperl+0x14>
    2b4c:	c8 01       	movw	r24, r16
    2b4e:	0e 94 1d 12 	call	0x243a	; 0x243a <_ZN6String10invalidateEv>
    2b52:	c8 01       	movw	r24, r16
    2b54:	1f 91       	pop	r17
    2b56:	0f 91       	pop	r16
    2b58:	08 95       	ret

00002b5a <_ZplRK15StringSumHelperm>:
    2b5a:	0f 93       	push	r16
    2b5c:	1f 93       	push	r17
    2b5e:	8c 01       	movw	r16, r24
    2b60:	0e 94 07 15 	call	0x2a0e	; 0x2a0e <_ZN6String6concatEm>
    2b64:	88 23       	and	r24, r24
    2b66:	19 f4       	brne	.+6      	; 0x2b6e <_ZplRK15StringSumHelperm+0x14>
    2b68:	c8 01       	movw	r24, r16
    2b6a:	0e 94 1d 12 	call	0x243a	; 0x243a <_ZN6String10invalidateEv>
    2b6e:	c8 01       	movw	r24, r16
    2b70:	1f 91       	pop	r17
    2b72:	0f 91       	pop	r16
    2b74:	08 95       	ret

00002b76 <_ZNK6String9compareToERKS_>:
    2b76:	cf 93       	push	r28
    2b78:	df 93       	push	r29
    2b7a:	fc 01       	movw	r30, r24
    2b7c:	db 01       	movw	r26, r22
    2b7e:	80 81       	ld	r24, Z
    2b80:	91 81       	ldd	r25, Z+1	; 0x01
    2b82:	00 97       	sbiw	r24, 0x00	; 0
    2b84:	31 f0       	breq	.+12     	; 0x2b92 <_ZNK6String9compareToERKS_+0x1c>
    2b86:	6d 91       	ld	r22, X+
    2b88:	7c 91       	ld	r23, X
    2b8a:	11 97       	sbiw	r26, 0x01	; 1
    2b8c:	61 15       	cp	r22, r1
    2b8e:	71 05       	cpc	r23, r1
    2b90:	e9 f4       	brne	.+58     	; 0x2bcc <_ZNK6String9compareToERKS_+0x56>
    2b92:	cd 91       	ld	r28, X+
    2b94:	dc 91       	ld	r29, X
    2b96:	11 97       	sbiw	r26, 0x01	; 1
    2b98:	20 97       	sbiw	r28, 0x00	; 0
    2b9a:	69 f0       	breq	.+26     	; 0x2bb6 <_ZNK6String9compareToERKS_+0x40>
    2b9c:	14 96       	adiw	r26, 0x04	; 4
    2b9e:	2d 91       	ld	r18, X+
    2ba0:	3c 91       	ld	r19, X
    2ba2:	15 97       	sbiw	r26, 0x05	; 5
    2ba4:	21 15       	cp	r18, r1
    2ba6:	31 05       	cpc	r19, r1
    2ba8:	31 f0       	breq	.+12     	; 0x2bb6 <_ZNK6String9compareToERKS_+0x40>
    2baa:	28 81       	ld	r18, Y
    2bac:	30 e0       	ldi	r19, 0x00	; 0
    2bae:	30 95       	com	r19
    2bb0:	21 95       	neg	r18
    2bb2:	3f 4f       	sbci	r19, 0xFF	; 255
    2bb4:	12 c0       	rjmp	.+36     	; 0x2bda <_ZNK6String9compareToERKS_+0x64>
    2bb6:	00 97       	sbiw	r24, 0x00	; 0
    2bb8:	71 f0       	breq	.+28     	; 0x2bd6 <_ZNK6String9compareToERKS_+0x60>
    2bba:	24 81       	ldd	r18, Z+4	; 0x04
    2bbc:	35 81       	ldd	r19, Z+5	; 0x05
    2bbe:	21 15       	cp	r18, r1
    2bc0:	31 05       	cpc	r19, r1
    2bc2:	49 f0       	breq	.+18     	; 0x2bd6 <_ZNK6String9compareToERKS_+0x60>
    2bc4:	fc 01       	movw	r30, r24
    2bc6:	20 81       	ld	r18, Z
    2bc8:	30 e0       	ldi	r19, 0x00	; 0
    2bca:	07 c0       	rjmp	.+14     	; 0x2bda <_ZNK6String9compareToERKS_+0x64>
    2bcc:	0e 94 dc 2d 	call	0x5bb8	; 0x5bb8 <strcmp>
    2bd0:	28 2f       	mov	r18, r24
    2bd2:	39 2f       	mov	r19, r25
    2bd4:	02 c0       	rjmp	.+4      	; 0x2bda <_ZNK6String9compareToERKS_+0x64>
    2bd6:	20 e0       	ldi	r18, 0x00	; 0
    2bd8:	30 e0       	ldi	r19, 0x00	; 0
    2bda:	c9 01       	movw	r24, r18
    2bdc:	df 91       	pop	r29
    2bde:	cf 91       	pop	r28
    2be0:	08 95       	ret

00002be2 <_ZNK6String6equalsERKS_>:
    2be2:	fc 01       	movw	r30, r24
    2be4:	44 81       	ldd	r20, Z+4	; 0x04
    2be6:	55 81       	ldd	r21, Z+5	; 0x05
    2be8:	fb 01       	movw	r30, r22
    2bea:	24 81       	ldd	r18, Z+4	; 0x04
    2bec:	35 81       	ldd	r19, Z+5	; 0x05
    2bee:	42 17       	cp	r20, r18
    2bf0:	53 07       	cpc	r21, r19
    2bf2:	29 f4       	brne	.+10     	; 0x2bfe <_ZNK6String6equalsERKS_+0x1c>
    2bf4:	0e 94 bb 15 	call	0x2b76	; 0x2b76 <_ZNK6String9compareToERKS_>
    2bf8:	21 e0       	ldi	r18, 0x01	; 1
    2bfa:	00 97       	sbiw	r24, 0x00	; 0
    2bfc:	09 f0       	breq	.+2      	; 0x2c00 <_ZNK6String6equalsERKS_+0x1e>
    2bfe:	20 e0       	ldi	r18, 0x00	; 0
    2c00:	82 2f       	mov	r24, r18
    2c02:	08 95       	ret

00002c04 <_ZNK6String6equalsEPKc>:
    2c04:	fc 01       	movw	r30, r24
    2c06:	84 81       	ldd	r24, Z+4	; 0x04
    2c08:	95 81       	ldd	r25, Z+5	; 0x05
    2c0a:	00 97       	sbiw	r24, 0x00	; 0
    2c0c:	41 f4       	brne	.+16     	; 0x2c1e <_ZNK6String6equalsEPKc+0x1a>
    2c0e:	61 15       	cp	r22, r1
    2c10:	71 05       	cpc	r23, r1
    2c12:	19 f0       	breq	.+6      	; 0x2c1a <_ZNK6String6equalsEPKc+0x16>
    2c14:	81 e0       	ldi	r24, 0x01	; 1
    2c16:	fb 01       	movw	r30, r22
    2c18:	09 c0       	rjmp	.+18     	; 0x2c2c <_ZNK6String6equalsEPKc+0x28>
    2c1a:	81 e0       	ldi	r24, 0x01	; 1
    2c1c:	08 95       	ret
    2c1e:	01 90       	ld	r0, Z+
    2c20:	f0 81       	ld	r31, Z
    2c22:	e0 2d       	mov	r30, r0
    2c24:	61 15       	cp	r22, r1
    2c26:	71 05       	cpc	r23, r1
    2c28:	31 f4       	brne	.+12     	; 0x2c36 <_ZNK6String6equalsEPKc+0x32>
    2c2a:	81 e0       	ldi	r24, 0x01	; 1
    2c2c:	90 81       	ld	r25, Z
    2c2e:	99 23       	and	r25, r25
    2c30:	59 f0       	breq	.+22     	; 0x2c48 <_ZNK6String6equalsEPKc+0x44>
    2c32:	80 e0       	ldi	r24, 0x00	; 0
    2c34:	08 95       	ret
    2c36:	cf 01       	movw	r24, r30
    2c38:	0e 94 dc 2d 	call	0x5bb8	; 0x5bb8 <strcmp>
    2c3c:	9c 01       	movw	r18, r24
    2c3e:	81 e0       	ldi	r24, 0x01	; 1
    2c40:	21 15       	cp	r18, r1
    2c42:	31 05       	cpc	r19, r1
    2c44:	09 f0       	breq	.+2      	; 0x2c48 <_ZNK6String6equalsEPKc+0x44>
    2c46:	80 e0       	ldi	r24, 0x00	; 0
    2c48:	08 95       	ret

00002c4a <_ZNK6StringltERKS_>:
    2c4a:	0e 94 bb 15 	call	0x2b76	; 0x2b76 <_ZNK6String9compareToERKS_>
    2c4e:	89 2f       	mov	r24, r25
    2c50:	88 1f       	adc	r24, r24
    2c52:	88 27       	eor	r24, r24
    2c54:	88 1f       	adc	r24, r24
    2c56:	08 95       	ret

00002c58 <_ZNK6StringgtERKS_>:
    2c58:	0e 94 bb 15 	call	0x2b76	; 0x2b76 <_ZNK6String9compareToERKS_>
    2c5c:	21 e0       	ldi	r18, 0x01	; 1
    2c5e:	18 16       	cp	r1, r24
    2c60:	19 06       	cpc	r1, r25
    2c62:	0c f0       	brlt	.+2      	; 0x2c66 <_ZNK6StringgtERKS_+0xe>
    2c64:	20 e0       	ldi	r18, 0x00	; 0
    2c66:	82 2f       	mov	r24, r18
    2c68:	08 95       	ret

00002c6a <_ZNK6StringleERKS_>:
    2c6a:	0e 94 bb 15 	call	0x2b76	; 0x2b76 <_ZNK6String9compareToERKS_>
    2c6e:	21 e0       	ldi	r18, 0x01	; 1
    2c70:	18 16       	cp	r1, r24
    2c72:	19 06       	cpc	r1, r25
    2c74:	0c f4       	brge	.+2      	; 0x2c78 <_ZNK6StringleERKS_+0xe>
    2c76:	20 e0       	ldi	r18, 0x00	; 0
    2c78:	82 2f       	mov	r24, r18
    2c7a:	08 95       	ret

00002c7c <_ZNK6StringgeERKS_>:
    2c7c:	0e 94 bb 15 	call	0x2b76	; 0x2b76 <_ZNK6String9compareToERKS_>
    2c80:	89 2f       	mov	r24, r25
    2c82:	80 95       	com	r24
    2c84:	88 1f       	adc	r24, r24
    2c86:	88 27       	eor	r24, r24
    2c88:	88 1f       	adc	r24, r24
    2c8a:	08 95       	ret

00002c8c <_ZNK6String16equalsIgnoreCaseERKS_>:
    2c8c:	ef 92       	push	r14
    2c8e:	ff 92       	push	r15
    2c90:	0f 93       	push	r16
    2c92:	1f 93       	push	r17
    2c94:	cf 93       	push	r28
    2c96:	df 93       	push	r29
    2c98:	fc 01       	movw	r30, r24
    2c9a:	db 01       	movw	r26, r22
    2c9c:	86 17       	cp	r24, r22
    2c9e:	97 07       	cpc	r25, r23
    2ca0:	29 f1       	breq	.+74     	; 0x2cec <_ZNK6String16equalsIgnoreCaseERKS_+0x60>
    2ca2:	84 81       	ldd	r24, Z+4	; 0x04
    2ca4:	95 81       	ldd	r25, Z+5	; 0x05
    2ca6:	14 96       	adiw	r26, 0x04	; 4
    2ca8:	2d 91       	ld	r18, X+
    2caa:	3c 91       	ld	r19, X
    2cac:	15 97       	sbiw	r26, 0x05	; 5
    2cae:	82 17       	cp	r24, r18
    2cb0:	93 07       	cpc	r25, r19
    2cb2:	f1 f4       	brne	.+60     	; 0x2cf0 <_ZNK6String16equalsIgnoreCaseERKS_+0x64>
    2cb4:	00 97       	sbiw	r24, 0x00	; 0
    2cb6:	d1 f0       	breq	.+52     	; 0x2cec <_ZNK6String16equalsIgnoreCaseERKS_+0x60>
    2cb8:	00 81       	ld	r16, Z
    2cba:	11 81       	ldd	r17, Z+1	; 0x01
    2cbc:	cd 91       	ld	r28, X+
    2cbe:	dc 91       	ld	r29, X
    2cc0:	11 97       	sbiw	r26, 0x01	; 1
    2cc2:	0f c0       	rjmp	.+30     	; 0x2ce2 <_ZNK6String16equalsIgnoreCaseERKS_+0x56>
    2cc4:	99 27       	eor	r25, r25
    2cc6:	87 fd       	sbrc	r24, 7
    2cc8:	90 95       	com	r25
    2cca:	0e 94 a6 2d 	call	0x5b4c	; 0x5b4c <tolower>
    2cce:	7c 01       	movw	r14, r24
    2cd0:	89 91       	ld	r24, Y+
    2cd2:	99 27       	eor	r25, r25
    2cd4:	87 fd       	sbrc	r24, 7
    2cd6:	90 95       	com	r25
    2cd8:	0e 94 a6 2d 	call	0x5b4c	; 0x5b4c <tolower>
    2cdc:	e8 16       	cp	r14, r24
    2cde:	f9 06       	cpc	r15, r25
    2ce0:	39 f4       	brne	.+14     	; 0x2cf0 <_ZNK6String16equalsIgnoreCaseERKS_+0x64>
    2ce2:	f8 01       	movw	r30, r16
    2ce4:	81 91       	ld	r24, Z+
    2ce6:	8f 01       	movw	r16, r30
    2ce8:	88 23       	and	r24, r24
    2cea:	61 f7       	brne	.-40     	; 0x2cc4 <_ZNK6String16equalsIgnoreCaseERKS_+0x38>
    2cec:	81 e0       	ldi	r24, 0x01	; 1
    2cee:	01 c0       	rjmp	.+2      	; 0x2cf2 <_ZNK6String16equalsIgnoreCaseERKS_+0x66>
    2cf0:	80 e0       	ldi	r24, 0x00	; 0
    2cf2:	df 91       	pop	r29
    2cf4:	cf 91       	pop	r28
    2cf6:	1f 91       	pop	r17
    2cf8:	0f 91       	pop	r16
    2cfa:	ff 90       	pop	r15
    2cfc:	ef 90       	pop	r14
    2cfe:	08 95       	ret

00002d00 <_ZNK6String10startsWithERKS_j>:
    2d00:	fc 01       	movw	r30, r24
    2d02:	db 01       	movw	r26, r22
    2d04:	ca 01       	movw	r24, r20
    2d06:	14 96       	adiw	r26, 0x04	; 4
    2d08:	4d 91       	ld	r20, X+
    2d0a:	5c 91       	ld	r21, X
    2d0c:	15 97       	sbiw	r26, 0x05	; 5
    2d0e:	24 81       	ldd	r18, Z+4	; 0x04
    2d10:	35 81       	ldd	r19, Z+5	; 0x05
    2d12:	24 1b       	sub	r18, r20
    2d14:	35 0b       	sbc	r19, r21
    2d16:	28 17       	cp	r18, r24
    2d18:	39 07       	cpc	r19, r25
    2d1a:	a0 f0       	brcs	.+40     	; 0x2d44 <_ZNK6String10startsWithERKS_j+0x44>
    2d1c:	20 81       	ld	r18, Z
    2d1e:	31 81       	ldd	r19, Z+1	; 0x01
    2d20:	21 15       	cp	r18, r1
    2d22:	31 05       	cpc	r19, r1
    2d24:	79 f0       	breq	.+30     	; 0x2d44 <_ZNK6String10startsWithERKS_j+0x44>
    2d26:	6d 91       	ld	r22, X+
    2d28:	7c 91       	ld	r23, X
    2d2a:	11 97       	sbiw	r26, 0x01	; 1
    2d2c:	61 15       	cp	r22, r1
    2d2e:	71 05       	cpc	r23, r1
    2d30:	59 f0       	breq	.+22     	; 0x2d48 <_ZNK6String10startsWithERKS_j+0x48>
    2d32:	82 0f       	add	r24, r18
    2d34:	93 1f       	adc	r25, r19
    2d36:	0e 94 ec 2d 	call	0x5bd8	; 0x5bd8 <strncmp>
    2d3a:	9c 01       	movw	r18, r24
    2d3c:	81 e0       	ldi	r24, 0x01	; 1
    2d3e:	21 15       	cp	r18, r1
    2d40:	31 05       	cpc	r19, r1
    2d42:	19 f0       	breq	.+6      	; 0x2d4a <_ZNK6String10startsWithERKS_j+0x4a>
    2d44:	80 e0       	ldi	r24, 0x00	; 0
    2d46:	08 95       	ret
    2d48:	80 e0       	ldi	r24, 0x00	; 0
    2d4a:	08 95       	ret

00002d4c <_ZNK6String10startsWithERKS_>:
    2d4c:	fc 01       	movw	r30, r24
    2d4e:	44 81       	ldd	r20, Z+4	; 0x04
    2d50:	55 81       	ldd	r21, Z+5	; 0x05
    2d52:	fb 01       	movw	r30, r22
    2d54:	24 81       	ldd	r18, Z+4	; 0x04
    2d56:	35 81       	ldd	r19, Z+5	; 0x05
    2d58:	42 17       	cp	r20, r18
    2d5a:	53 07       	cpc	r21, r19
    2d5c:	28 f0       	brcs	.+10     	; 0x2d68 <_ZNK6String10startsWithERKS_+0x1c>
    2d5e:	40 e0       	ldi	r20, 0x00	; 0
    2d60:	50 e0       	ldi	r21, 0x00	; 0
    2d62:	0e 94 80 16 	call	0x2d00	; 0x2d00 <_ZNK6String10startsWithERKS_j>
    2d66:	08 95       	ret
    2d68:	80 e0       	ldi	r24, 0x00	; 0
    2d6a:	08 95       	ret

00002d6c <_ZNK6String8endsWithERKS_>:
    2d6c:	fc 01       	movw	r30, r24
    2d6e:	db 01       	movw	r26, r22
    2d70:	84 81       	ldd	r24, Z+4	; 0x04
    2d72:	95 81       	ldd	r25, Z+5	; 0x05
    2d74:	14 96       	adiw	r26, 0x04	; 4
    2d76:	4d 91       	ld	r20, X+
    2d78:	5c 91       	ld	r21, X
    2d7a:	15 97       	sbiw	r26, 0x05	; 5
    2d7c:	84 17       	cp	r24, r20
    2d7e:	95 07       	cpc	r25, r21
    2d80:	b0 f0       	brcs	.+44     	; 0x2dae <_ZNK6String8endsWithERKS_+0x42>
    2d82:	20 81       	ld	r18, Z
    2d84:	31 81       	ldd	r19, Z+1	; 0x01
    2d86:	21 15       	cp	r18, r1
    2d88:	31 05       	cpc	r19, r1
    2d8a:	89 f0       	breq	.+34     	; 0x2dae <_ZNK6String8endsWithERKS_+0x42>
    2d8c:	6d 91       	ld	r22, X+
    2d8e:	7c 91       	ld	r23, X
    2d90:	11 97       	sbiw	r26, 0x01	; 1
    2d92:	61 15       	cp	r22, r1
    2d94:	71 05       	cpc	r23, r1
    2d96:	69 f0       	breq	.+26     	; 0x2db2 <_ZNK6String8endsWithERKS_+0x46>
    2d98:	84 1b       	sub	r24, r20
    2d9a:	95 0b       	sbc	r25, r21
    2d9c:	82 0f       	add	r24, r18
    2d9e:	93 1f       	adc	r25, r19
    2da0:	0e 94 dc 2d 	call	0x5bb8	; 0x5bb8 <strcmp>
    2da4:	9c 01       	movw	r18, r24
    2da6:	81 e0       	ldi	r24, 0x01	; 1
    2da8:	21 15       	cp	r18, r1
    2daa:	31 05       	cpc	r19, r1
    2dac:	19 f0       	breq	.+6      	; 0x2db4 <_ZNK6String8endsWithERKS_+0x48>
    2dae:	80 e0       	ldi	r24, 0x00	; 0
    2db0:	08 95       	ret
    2db2:	80 e0       	ldi	r24, 0x00	; 0
    2db4:	08 95       	ret

00002db6 <_ZN6String9setCharAtEjc>:
    2db6:	fc 01       	movw	r30, r24
    2db8:	84 81       	ldd	r24, Z+4	; 0x04
    2dba:	95 81       	ldd	r25, Z+5	; 0x05
    2dbc:	68 17       	cp	r22, r24
    2dbe:	79 07       	cpc	r23, r25
    2dc0:	30 f4       	brcc	.+12     	; 0x2dce <_ZN6String9setCharAtEjc+0x18>
    2dc2:	01 90       	ld	r0, Z+
    2dc4:	f0 81       	ld	r31, Z
    2dc6:	e0 2d       	mov	r30, r0
    2dc8:	e6 0f       	add	r30, r22
    2dca:	f7 1f       	adc	r31, r23
    2dcc:	40 83       	st	Z, r20
    2dce:	08 95       	ret

00002dd0 <_ZN6StringixEj>:
    2dd0:	fc 01       	movw	r30, r24
    2dd2:	84 81       	ldd	r24, Z+4	; 0x04
    2dd4:	95 81       	ldd	r25, Z+5	; 0x05
    2dd6:	68 17       	cp	r22, r24
    2dd8:	79 07       	cpc	r23, r25
    2dda:	20 f4       	brcc	.+8      	; 0x2de4 <_ZN6StringixEj+0x14>
    2ddc:	80 81       	ld	r24, Z
    2dde:	91 81       	ldd	r25, Z+1	; 0x01
    2de0:	00 97       	sbiw	r24, 0x00	; 0
    2de2:	29 f4       	brne	.+10     	; 0x2dee <_ZN6StringixEj+0x1e>
    2de4:	10 92 c3 03 	sts	0x03C3, r1
    2de8:	63 ec       	ldi	r22, 0xC3	; 195
    2dea:	73 e0       	ldi	r23, 0x03	; 3
    2dec:	02 c0       	rjmp	.+4      	; 0x2df2 <_ZN6StringixEj+0x22>
    2dee:	68 0f       	add	r22, r24
    2df0:	79 1f       	adc	r23, r25
    2df2:	cb 01       	movw	r24, r22
    2df4:	08 95       	ret

00002df6 <_ZNK6StringixEj>:
    2df6:	fc 01       	movw	r30, r24
    2df8:	84 81       	ldd	r24, Z+4	; 0x04
    2dfa:	95 81       	ldd	r25, Z+5	; 0x05
    2dfc:	68 17       	cp	r22, r24
    2dfe:	79 07       	cpc	r23, r25
    2e00:	48 f4       	brcc	.+18     	; 0x2e14 <_ZNK6StringixEj+0x1e>
    2e02:	80 81       	ld	r24, Z
    2e04:	91 81       	ldd	r25, Z+1	; 0x01
    2e06:	00 97       	sbiw	r24, 0x00	; 0
    2e08:	39 f0       	breq	.+14     	; 0x2e18 <_ZNK6StringixEj+0x22>
    2e0a:	68 0f       	add	r22, r24
    2e0c:	79 1f       	adc	r23, r25
    2e0e:	fb 01       	movw	r30, r22
    2e10:	80 81       	ld	r24, Z
    2e12:	08 95       	ret
    2e14:	80 e0       	ldi	r24, 0x00	; 0
    2e16:	08 95       	ret
    2e18:	80 e0       	ldi	r24, 0x00	; 0
    2e1a:	08 95       	ret

00002e1c <_ZNK6String6charAtEj>:
    2e1c:	0e 94 fb 16 	call	0x2df6	; 0x2df6 <_ZNK6StringixEj>
    2e20:	08 95       	ret

00002e22 <_ZNK6String8getBytesEPhjj>:
    2e22:	0f 93       	push	r16
    2e24:	1f 93       	push	r17
    2e26:	cf 93       	push	r28
    2e28:	df 93       	push	r29
    2e2a:	fc 01       	movw	r30, r24
    2e2c:	8b 01       	movw	r16, r22
    2e2e:	41 15       	cp	r20, r1
    2e30:	51 05       	cpc	r21, r1
    2e32:	f1 f0       	breq	.+60     	; 0x2e70 <_ZNK6String8getBytesEPhjj+0x4e>
    2e34:	61 15       	cp	r22, r1
    2e36:	71 05       	cpc	r23, r1
    2e38:	d9 f0       	breq	.+54     	; 0x2e70 <_ZNK6String8getBytesEPhjj+0x4e>
    2e3a:	c4 81       	ldd	r28, Z+4	; 0x04
    2e3c:	d5 81       	ldd	r29, Z+5	; 0x05
    2e3e:	2c 17       	cp	r18, r28
    2e40:	3d 07       	cpc	r19, r29
    2e42:	18 f0       	brcs	.+6      	; 0x2e4a <_ZNK6String8getBytesEPhjj+0x28>
    2e44:	fb 01       	movw	r30, r22
    2e46:	10 82       	st	Z, r1
    2e48:	13 c0       	rjmp	.+38     	; 0x2e70 <_ZNK6String8getBytesEPhjj+0x4e>
    2e4a:	41 50       	subi	r20, 0x01	; 1
    2e4c:	50 40       	sbci	r21, 0x00	; 0
    2e4e:	c2 1b       	sub	r28, r18
    2e50:	d3 0b       	sbc	r29, r19
    2e52:	4c 17       	cp	r20, r28
    2e54:	5d 07       	cpc	r21, r29
    2e56:	08 f4       	brcc	.+2      	; 0x2e5a <_ZNK6String8getBytesEPhjj+0x38>
    2e58:	ea 01       	movw	r28, r20
    2e5a:	60 81       	ld	r22, Z
    2e5c:	71 81       	ldd	r23, Z+1	; 0x01
    2e5e:	62 0f       	add	r22, r18
    2e60:	73 1f       	adc	r23, r19
    2e62:	c8 01       	movw	r24, r16
    2e64:	ae 01       	movw	r20, r28
    2e66:	0e 94 fa 2d 	call	0x5bf4	; 0x5bf4 <strncpy>
    2e6a:	c0 0f       	add	r28, r16
    2e6c:	d1 1f       	adc	r29, r17
    2e6e:	18 82       	st	Y, r1
    2e70:	df 91       	pop	r29
    2e72:	cf 91       	pop	r28
    2e74:	1f 91       	pop	r17
    2e76:	0f 91       	pop	r16
    2e78:	08 95       	ret

00002e7a <_ZNK6String7indexOfEcj>:
    2e7a:	cf 93       	push	r28
    2e7c:	df 93       	push	r29
    2e7e:	fc 01       	movw	r30, r24
    2e80:	ca 01       	movw	r24, r20
    2e82:	24 81       	ldd	r18, Z+4	; 0x04
    2e84:	35 81       	ldd	r19, Z+5	; 0x05
    2e86:	42 17       	cp	r20, r18
    2e88:	53 07       	cpc	r21, r19
    2e8a:	78 f4       	brcc	.+30     	; 0x2eaa <_ZNK6String7indexOfEcj+0x30>
    2e8c:	c0 81       	ld	r28, Z
    2e8e:	d1 81       	ldd	r29, Z+1	; 0x01
    2e90:	77 27       	eor	r23, r23
    2e92:	67 fd       	sbrc	r22, 7
    2e94:	70 95       	com	r23
    2e96:	8c 0f       	add	r24, r28
    2e98:	9d 1f       	adc	r25, r29
    2e9a:	0e 94 d1 2d 	call	0x5ba2	; 0x5ba2 <strchr>
    2e9e:	00 97       	sbiw	r24, 0x00	; 0
    2ea0:	21 f0       	breq	.+8      	; 0x2eaa <_ZNK6String7indexOfEcj+0x30>
    2ea2:	9c 01       	movw	r18, r24
    2ea4:	2c 1b       	sub	r18, r28
    2ea6:	3d 0b       	sbc	r19, r29
    2ea8:	02 c0       	rjmp	.+4      	; 0x2eae <_ZNK6String7indexOfEcj+0x34>
    2eaa:	2f ef       	ldi	r18, 0xFF	; 255
    2eac:	3f ef       	ldi	r19, 0xFF	; 255
    2eae:	c9 01       	movw	r24, r18
    2eb0:	df 91       	pop	r29
    2eb2:	cf 91       	pop	r28
    2eb4:	08 95       	ret

00002eb6 <_ZNK6String7indexOfEc>:
    2eb6:	40 e0       	ldi	r20, 0x00	; 0
    2eb8:	50 e0       	ldi	r21, 0x00	; 0
    2eba:	0e 94 3d 17 	call	0x2e7a	; 0x2e7a <_ZNK6String7indexOfEcj>
    2ebe:	08 95       	ret

00002ec0 <_ZNK6String7indexOfERKS_j>:
    2ec0:	cf 93       	push	r28
    2ec2:	df 93       	push	r29
    2ec4:	fc 01       	movw	r30, r24
    2ec6:	ca 01       	movw	r24, r20
    2ec8:	24 81       	ldd	r18, Z+4	; 0x04
    2eca:	35 81       	ldd	r19, Z+5	; 0x05
    2ecc:	42 17       	cp	r20, r18
    2ece:	53 07       	cpc	r21, r19
    2ed0:	78 f4       	brcc	.+30     	; 0x2ef0 <_ZNK6String7indexOfERKS_j+0x30>
    2ed2:	c0 81       	ld	r28, Z
    2ed4:	d1 81       	ldd	r29, Z+1	; 0x01
    2ed6:	fb 01       	movw	r30, r22
    2ed8:	60 81       	ld	r22, Z
    2eda:	71 81       	ldd	r23, Z+1	; 0x01
    2edc:	8c 0f       	add	r24, r28
    2ede:	9d 1f       	adc	r25, r29
    2ee0:	0e 94 14 2e 	call	0x5c28	; 0x5c28 <strstr>
    2ee4:	00 97       	sbiw	r24, 0x00	; 0
    2ee6:	21 f0       	breq	.+8      	; 0x2ef0 <_ZNK6String7indexOfERKS_j+0x30>
    2ee8:	9c 01       	movw	r18, r24
    2eea:	2c 1b       	sub	r18, r28
    2eec:	3d 0b       	sbc	r19, r29
    2eee:	02 c0       	rjmp	.+4      	; 0x2ef4 <_ZNK6String7indexOfERKS_j+0x34>
    2ef0:	2f ef       	ldi	r18, 0xFF	; 255
    2ef2:	3f ef       	ldi	r19, 0xFF	; 255
    2ef4:	c9 01       	movw	r24, r18
    2ef6:	df 91       	pop	r29
    2ef8:	cf 91       	pop	r28
    2efa:	08 95       	ret

00002efc <_ZNK6String7indexOfERKS_>:
    2efc:	40 e0       	ldi	r20, 0x00	; 0
    2efe:	50 e0       	ldi	r21, 0x00	; 0
    2f00:	0e 94 60 17 	call	0x2ec0	; 0x2ec0 <_ZNK6String7indexOfERKS_j>
    2f04:	08 95       	ret

00002f06 <_ZNK6String11lastIndexOfEcj>:
    2f06:	df 92       	push	r13
    2f08:	ef 92       	push	r14
    2f0a:	ff 92       	push	r15
    2f0c:	0f 93       	push	r16
    2f0e:	1f 93       	push	r17
    2f10:	cf 93       	push	r28
    2f12:	df 93       	push	r29
    2f14:	ec 01       	movw	r28, r24
    2f16:	8c 81       	ldd	r24, Y+4	; 0x04
    2f18:	9d 81       	ldd	r25, Y+5	; 0x05
    2f1a:	48 17       	cp	r20, r24
    2f1c:	59 07       	cpc	r21, r25
    2f1e:	f8 f4       	brcc	.+62     	; 0x2f5e <_ZNK6String11lastIndexOfEcj+0x58>
    2f20:	7a 01       	movw	r14, r20
    2f22:	08 94       	sec
    2f24:	e1 1c       	adc	r14, r1
    2f26:	f1 1c       	adc	r15, r1
    2f28:	e8 81       	ld	r30, Y
    2f2a:	f9 81       	ldd	r31, Y+1	; 0x01
    2f2c:	ee 0d       	add	r30, r14
    2f2e:	ff 1d       	adc	r31, r15
    2f30:	d0 80       	ld	r13, Z
    2f32:	10 82       	st	Z, r1
    2f34:	08 81       	ld	r16, Y
    2f36:	19 81       	ldd	r17, Y+1	; 0x01
    2f38:	77 27       	eor	r23, r23
    2f3a:	67 fd       	sbrc	r22, 7
    2f3c:	70 95       	com	r23
    2f3e:	c8 01       	movw	r24, r16
    2f40:	0e 94 09 2e 	call	0x5c12	; 0x5c12 <strrchr>
    2f44:	0e 0d       	add	r16, r14
    2f46:	1f 1d       	adc	r17, r15
    2f48:	f8 01       	movw	r30, r16
    2f4a:	d0 82       	st	Z, r13
    2f4c:	00 97       	sbiw	r24, 0x00	; 0
    2f4e:	39 f0       	breq	.+14     	; 0x2f5e <_ZNK6String11lastIndexOfEcj+0x58>
    2f50:	28 81       	ld	r18, Y
    2f52:	39 81       	ldd	r19, Y+1	; 0x01
    2f54:	ac 01       	movw	r20, r24
    2f56:	42 1b       	sub	r20, r18
    2f58:	53 0b       	sbc	r21, r19
    2f5a:	9a 01       	movw	r18, r20
    2f5c:	02 c0       	rjmp	.+4      	; 0x2f62 <_ZNK6String11lastIndexOfEcj+0x5c>
    2f5e:	2f ef       	ldi	r18, 0xFF	; 255
    2f60:	3f ef       	ldi	r19, 0xFF	; 255
    2f62:	c9 01       	movw	r24, r18
    2f64:	df 91       	pop	r29
    2f66:	cf 91       	pop	r28
    2f68:	1f 91       	pop	r17
    2f6a:	0f 91       	pop	r16
    2f6c:	ff 90       	pop	r15
    2f6e:	ef 90       	pop	r14
    2f70:	df 90       	pop	r13
    2f72:	08 95       	ret

00002f74 <_ZNK6String11lastIndexOfEc>:
    2f74:	fc 01       	movw	r30, r24
    2f76:	44 81       	ldd	r20, Z+4	; 0x04
    2f78:	55 81       	ldd	r21, Z+5	; 0x05
    2f7a:	41 50       	subi	r20, 0x01	; 1
    2f7c:	50 40       	sbci	r21, 0x00	; 0
    2f7e:	0e 94 83 17 	call	0x2f06	; 0x2f06 <_ZNK6String11lastIndexOfEcj>
    2f82:	08 95       	ret

00002f84 <_ZNK6String11lastIndexOfERKS_j>:
    2f84:	af 92       	push	r10
    2f86:	bf 92       	push	r11
    2f88:	cf 92       	push	r12
    2f8a:	df 92       	push	r13
    2f8c:	ef 92       	push	r14
    2f8e:	ff 92       	push	r15
    2f90:	0f 93       	push	r16
    2f92:	1f 93       	push	r17
    2f94:	cf 93       	push	r28
    2f96:	df 93       	push	r29
    2f98:	fc 01       	movw	r30, r24
    2f9a:	6b 01       	movw	r12, r22
    2f9c:	8a 01       	movw	r16, r20
    2f9e:	db 01       	movw	r26, r22
    2fa0:	14 96       	adiw	r26, 0x04	; 4
    2fa2:	2d 91       	ld	r18, X+
    2fa4:	3c 91       	ld	r19, X
    2fa6:	15 97       	sbiw	r26, 0x05	; 5
    2fa8:	21 15       	cp	r18, r1
    2faa:	31 05       	cpc	r19, r1
    2fac:	51 f1       	breq	.+84     	; 0x3002 <_ZNK6String11lastIndexOfERKS_j+0x7e>
    2fae:	84 81       	ldd	r24, Z+4	; 0x04
    2fb0:	95 81       	ldd	r25, Z+5	; 0x05
    2fb2:	00 97       	sbiw	r24, 0x00	; 0
    2fb4:	31 f1       	breq	.+76     	; 0x3002 <_ZNK6String11lastIndexOfERKS_j+0x7e>
    2fb6:	82 17       	cp	r24, r18
    2fb8:	93 07       	cpc	r25, r19
    2fba:	18 f1       	brcs	.+70     	; 0x3002 <_ZNK6String11lastIndexOfERKS_j+0x7e>
    2fbc:	48 17       	cp	r20, r24
    2fbe:	59 07       	cpc	r21, r25
    2fc0:	18 f0       	brcs	.+6      	; 0x2fc8 <_ZNK6String11lastIndexOfERKS_j+0x44>
    2fc2:	8c 01       	movw	r16, r24
    2fc4:	01 50       	subi	r16, 0x01	; 1
    2fc6:	10 40       	sbci	r17, 0x00	; 0
    2fc8:	e0 80       	ld	r14, Z
    2fca:	f1 80       	ldd	r15, Z+1	; 0x01
    2fcc:	c7 01       	movw	r24, r14
    2fce:	cf ef       	ldi	r28, 0xFF	; 255
    2fd0:	df ef       	ldi	r29, 0xFF	; 255
    2fd2:	57 01       	movw	r10, r14
    2fd4:	a0 0e       	add	r10, r16
    2fd6:	b1 1e       	adc	r11, r17
    2fd8:	10 c0       	rjmp	.+32     	; 0x2ffa <_ZNK6String11lastIndexOfERKS_j+0x76>
    2fda:	f6 01       	movw	r30, r12
    2fdc:	60 81       	ld	r22, Z
    2fde:	71 81       	ldd	r23, Z+1	; 0x01
    2fe0:	0e 94 14 2e 	call	0x5c28	; 0x5c28 <strstr>
    2fe4:	00 97       	sbiw	r24, 0x00	; 0
    2fe6:	79 f0       	breq	.+30     	; 0x3006 <_ZNK6String11lastIndexOfERKS_j+0x82>
    2fe8:	9c 01       	movw	r18, r24
    2fea:	2e 19       	sub	r18, r14
    2fec:	3f 09       	sbc	r19, r15
    2fee:	02 17       	cp	r16, r18
    2ff0:	13 07       	cpc	r17, r19
    2ff2:	08 f4       	brcc	.+2      	; 0x2ff6 <_ZNK6String11lastIndexOfERKS_j+0x72>
    2ff4:	9e 01       	movw	r18, r28
    2ff6:	01 96       	adiw	r24, 0x01	; 1
    2ff8:	e9 01       	movw	r28, r18
    2ffa:	a8 16       	cp	r10, r24
    2ffc:	b9 06       	cpc	r11, r25
    2ffe:	68 f7       	brcc	.-38     	; 0x2fda <_ZNK6String11lastIndexOfERKS_j+0x56>
    3000:	02 c0       	rjmp	.+4      	; 0x3006 <_ZNK6String11lastIndexOfERKS_j+0x82>
    3002:	cf ef       	ldi	r28, 0xFF	; 255
    3004:	df ef       	ldi	r29, 0xFF	; 255
    3006:	ce 01       	movw	r24, r28
    3008:	df 91       	pop	r29
    300a:	cf 91       	pop	r28
    300c:	1f 91       	pop	r17
    300e:	0f 91       	pop	r16
    3010:	ff 90       	pop	r15
    3012:	ef 90       	pop	r14
    3014:	df 90       	pop	r13
    3016:	cf 90       	pop	r12
    3018:	bf 90       	pop	r11
    301a:	af 90       	pop	r10
    301c:	08 95       	ret

0000301e <_ZNK6String11lastIndexOfERKS_>:
    301e:	fc 01       	movw	r30, r24
    3020:	44 81       	ldd	r20, Z+4	; 0x04
    3022:	55 81       	ldd	r21, Z+5	; 0x05
    3024:	fb 01       	movw	r30, r22
    3026:	24 81       	ldd	r18, Z+4	; 0x04
    3028:	35 81       	ldd	r19, Z+5	; 0x05
    302a:	42 1b       	sub	r20, r18
    302c:	53 0b       	sbc	r21, r19
    302e:	0e 94 c2 17 	call	0x2f84	; 0x2f84 <_ZNK6String11lastIndexOfERKS_j>
    3032:	08 95       	ret

00003034 <_ZNK6String9substringEjj>:
    3034:	af 92       	push	r10
    3036:	bf 92       	push	r11
    3038:	cf 92       	push	r12
    303a:	df 92       	push	r13
    303c:	ef 92       	push	r14
    303e:	ff 92       	push	r15
    3040:	0f 93       	push	r16
    3042:	1f 93       	push	r17
    3044:	cf 93       	push	r28
    3046:	df 93       	push	r29
    3048:	f8 2e       	mov	r15, r24
    304a:	e9 2e       	mov	r14, r25
    304c:	6b 01       	movw	r12, r22
    304e:	8a 01       	movw	r16, r20
    3050:	e9 01       	movw	r28, r18
    3052:	24 17       	cp	r18, r20
    3054:	35 07       	cpc	r19, r21
    3056:	48 f4       	brcc	.+18     	; 0x306a <_ZNK6String9substringEjj+0x36>
    3058:	34 2f       	mov	r19, r20
    305a:	21 2f       	mov	r18, r17
    305c:	8e 01       	movw	r16, r28
    305e:	c9 01       	movw	r24, r18
    3060:	a9 2e       	mov	r10, r25
    3062:	e5 01       	movw	r28, r10
    3064:	5e 01       	movw	r10, r28
    3066:	b2 2e       	mov	r11, r18
    3068:	e5 01       	movw	r28, r10
    306a:	8f 2d       	mov	r24, r15
    306c:	9e 2d       	mov	r25, r14
    306e:	66 e3       	ldi	r22, 0x36	; 54
    3070:	71 e0       	ldi	r23, 0x01	; 1
    3072:	0e 94 89 12 	call	0x2512	; 0x2512 <_ZN6StringC1EPKc>
    3076:	d6 01       	movw	r26, r12
    3078:	14 96       	adiw	r26, 0x04	; 4
    307a:	8d 91       	ld	r24, X+
    307c:	9c 91       	ld	r25, X
    307e:	15 97       	sbiw	r26, 0x05	; 5
    3080:	80 17       	cp	r24, r16
    3082:	91 07       	cpc	r25, r17
    3084:	d8 f0       	brcs	.+54     	; 0x30bc <_ZNK6String9substringEjj+0x88>
    3086:	8c 17       	cp	r24, r28
    3088:	9d 07       	cpc	r25, r29
    308a:	08 f4       	brcc	.+2      	; 0x308e <_ZNK6String9substringEjj+0x5a>
    308c:	ec 01       	movw	r28, r24
    308e:	d6 01       	movw	r26, r12
    3090:	ed 91       	ld	r30, X+
    3092:	fc 91       	ld	r31, X
    3094:	11 97       	sbiw	r26, 0x01	; 1
    3096:	ec 0f       	add	r30, r28
    3098:	fd 1f       	adc	r31, r29
    309a:	b0 80       	ld	r11, Z
    309c:	10 82       	st	Z, r1
    309e:	6d 91       	ld	r22, X+
    30a0:	7c 91       	ld	r23, X
    30a2:	60 0f       	add	r22, r16
    30a4:	71 1f       	adc	r23, r17
    30a6:	8f 2d       	mov	r24, r15
    30a8:	9e 2d       	mov	r25, r14
    30aa:	0e 94 ca 12 	call	0x2594	; 0x2594 <_ZN6StringaSEPKc>
    30ae:	d6 01       	movw	r26, r12
    30b0:	ed 91       	ld	r30, X+
    30b2:	fc 91       	ld	r31, X
    30b4:	11 97       	sbiw	r26, 0x01	; 1
    30b6:	ec 0f       	add	r30, r28
    30b8:	fd 1f       	adc	r31, r29
    30ba:	b0 82       	st	Z, r11
    30bc:	8f 2d       	mov	r24, r15
    30be:	9e 2d       	mov	r25, r14
    30c0:	df 91       	pop	r29
    30c2:	cf 91       	pop	r28
    30c4:	1f 91       	pop	r17
    30c6:	0f 91       	pop	r16
    30c8:	ff 90       	pop	r15
    30ca:	ef 90       	pop	r14
    30cc:	df 90       	pop	r13
    30ce:	cf 90       	pop	r12
    30d0:	bf 90       	pop	r11
    30d2:	af 90       	pop	r10
    30d4:	08 95       	ret

000030d6 <_ZNK6String9substringEj>:
    30d6:	cf 93       	push	r28
    30d8:	df 93       	push	r29
    30da:	ec 01       	movw	r28, r24
    30dc:	fb 01       	movw	r30, r22
    30de:	24 81       	ldd	r18, Z+4	; 0x04
    30e0:	35 81       	ldd	r19, Z+5	; 0x05
    30e2:	0e 94 1a 18 	call	0x3034	; 0x3034 <_ZNK6String9substringEjj>
    30e6:	ce 01       	movw	r24, r28
    30e8:	df 91       	pop	r29
    30ea:	cf 91       	pop	r28
    30ec:	08 95       	ret

000030ee <_ZN6String7replaceEcc>:
    30ee:	dc 01       	movw	r26, r24
    30f0:	ed 91       	ld	r30, X+
    30f2:	fc 91       	ld	r31, X
    30f4:	11 97       	sbiw	r26, 0x01	; 1
    30f6:	30 97       	sbiw	r30, 0x00	; 0
    30f8:	29 f4       	brne	.+10     	; 0x3104 <_ZN6String7replaceEcc+0x16>
    30fa:	08 95       	ret
    30fc:	86 17       	cp	r24, r22
    30fe:	09 f4       	brne	.+2      	; 0x3102 <_ZN6String7replaceEcc+0x14>
    3100:	40 83       	st	Z, r20
    3102:	31 96       	adiw	r30, 0x01	; 1
    3104:	80 81       	ld	r24, Z
    3106:	88 23       	and	r24, r24
    3108:	c9 f7       	brne	.-14     	; 0x30fc <_ZN6String7replaceEcc+0xe>
    310a:	08 95       	ret

0000310c <_ZN6String7replaceERKS_S1_>:
    310c:	2f 92       	push	r2
    310e:	3f 92       	push	r3
    3110:	4f 92       	push	r4
    3112:	5f 92       	push	r5
    3114:	6f 92       	push	r6
    3116:	7f 92       	push	r7
    3118:	8f 92       	push	r8
    311a:	9f 92       	push	r9
    311c:	af 92       	push	r10
    311e:	bf 92       	push	r11
    3120:	cf 92       	push	r12
    3122:	df 92       	push	r13
    3124:	ef 92       	push	r14
    3126:	ff 92       	push	r15
    3128:	0f 93       	push	r16
    312a:	1f 93       	push	r17
    312c:	cf 93       	push	r28
    312e:	df 93       	push	r29
    3130:	7c 01       	movw	r14, r24
    3132:	2b 01       	movw	r4, r22
    3134:	6a 01       	movw	r12, r20
    3136:	dc 01       	movw	r26, r24
    3138:	14 96       	adiw	r26, 0x04	; 4
    313a:	6d 90       	ld	r6, X+
    313c:	7c 90       	ld	r7, X
    313e:	15 97       	sbiw	r26, 0x05	; 5
    3140:	61 14       	cp	r6, r1
    3142:	71 04       	cpc	r7, r1
    3144:	09 f4       	brne	.+2      	; 0x3148 <_ZN6String7replaceERKS_S1_+0x3c>
    3146:	d9 c0       	rjmp	.+434    	; 0x32fa <_ZN6String7replaceERKS_S1_+0x1ee>
    3148:	fb 01       	movw	r30, r22
    314a:	84 80       	ldd	r8, Z+4	; 0x04
    314c:	95 80       	ldd	r9, Z+5	; 0x05
    314e:	81 14       	cp	r8, r1
    3150:	91 04       	cpc	r9, r1
    3152:	09 f4       	brne	.+2      	; 0x3156 <_ZN6String7replaceERKS_S1_+0x4a>
    3154:	d2 c0       	rjmp	.+420    	; 0x32fa <_ZN6String7replaceERKS_S1_+0x1ee>
    3156:	da 01       	movw	r26, r20
    3158:	14 96       	adiw	r26, 0x04	; 4
    315a:	ad 90       	ld	r10, X+
    315c:	bc 90       	ld	r11, X
    315e:	15 97       	sbiw	r26, 0x05	; 5
    3160:	a8 18       	sub	r10, r8
    3162:	b9 08       	sbc	r11, r9
    3164:	fc 01       	movw	r30, r24
    3166:	00 81       	ld	r16, Z
    3168:	11 81       	ldd	r17, Z+1	; 0x01
    316a:	a1 14       	cp	r10, r1
    316c:	b1 04       	cpc	r11, r1
    316e:	f1 f4       	brne	.+60     	; 0x31ac <_ZN6String7replaceERKS_S1_+0xa0>
    3170:	13 c0       	rjmp	.+38     	; 0x3198 <_ZN6String7replaceERKS_S1_+0x8c>
    3172:	d6 01       	movw	r26, r12
    3174:	6c 91       	ld	r22, X
    3176:	11 96       	adiw	r26, 0x01	; 1
    3178:	7c 91       	ld	r23, X
    317a:	11 97       	sbiw	r26, 0x01	; 1
    317c:	14 96       	adiw	r26, 0x04	; 4
    317e:	4d 91       	ld	r20, X+
    3180:	5c 91       	ld	r21, X
    3182:	15 97       	sbiw	r26, 0x05	; 5
    3184:	ce 01       	movw	r24, r28
    3186:	0e 94 b6 2d 	call	0x5b6c	; 0x5b6c <memcpy>
    318a:	d6 01       	movw	r26, r12
    318c:	14 96       	adiw	r26, 0x04	; 4
    318e:	0d 91       	ld	r16, X+
    3190:	1c 91       	ld	r17, X
    3192:	15 97       	sbiw	r26, 0x05	; 5
    3194:	0c 0f       	add	r16, r28
    3196:	1d 1f       	adc	r17, r29
    3198:	f2 01       	movw	r30, r4
    319a:	60 81       	ld	r22, Z
    319c:	71 81       	ldd	r23, Z+1	; 0x01
    319e:	c8 01       	movw	r24, r16
    31a0:	0e 94 14 2e 	call	0x5c28	; 0x5c28 <strstr>
    31a4:	ec 01       	movw	r28, r24
    31a6:	00 97       	sbiw	r24, 0x00	; 0
    31a8:	21 f7       	brne	.-56     	; 0x3172 <_ZN6String7replaceERKS_S1_+0x66>
    31aa:	a7 c0       	rjmp	.+334    	; 0x32fa <_ZN6String7replaceERKS_S1_+0x1ee>
    31ac:	b7 fc       	sbrc	r11, 7
    31ae:	02 c0       	rjmp	.+4      	; 0x31b4 <_ZN6String7replaceERKS_S1_+0xa8>
    31b0:	e3 01       	movw	r28, r6
    31b2:	42 c0       	rjmp	.+132    	; 0x3238 <_ZN6String7replaceERKS_S1_+0x12c>
    31b4:	48 01       	movw	r8, r16
    31b6:	2d c0       	rjmp	.+90     	; 0x3212 <_ZN6String7replaceERKS_S1_+0x106>
    31b8:	e3 01       	movw	r28, r6
    31ba:	c0 1b       	sub	r28, r16
    31bc:	d1 0b       	sbc	r29, r17
    31be:	c4 01       	movw	r24, r8
    31c0:	b8 01       	movw	r22, r16
    31c2:	ae 01       	movw	r20, r28
    31c4:	0e 94 b6 2d 	call	0x5b6c	; 0x5b6c <memcpy>
    31c8:	c8 0d       	add	r28, r8
    31ca:	d9 1d       	adc	r29, r9
    31cc:	d6 01       	movw	r26, r12
    31ce:	6c 91       	ld	r22, X
    31d0:	11 96       	adiw	r26, 0x01	; 1
    31d2:	7c 91       	ld	r23, X
    31d4:	11 97       	sbiw	r26, 0x01	; 1
    31d6:	14 96       	adiw	r26, 0x04	; 4
    31d8:	4d 91       	ld	r20, X+
    31da:	5c 91       	ld	r21, X
    31dc:	15 97       	sbiw	r26, 0x05	; 5
    31de:	ce 01       	movw	r24, r28
    31e0:	0e 94 b6 2d 	call	0x5b6c	; 0x5b6c <memcpy>
    31e4:	d6 01       	movw	r26, r12
    31e6:	14 96       	adiw	r26, 0x04	; 4
    31e8:	8d 90       	ld	r8, X+
    31ea:	9c 90       	ld	r9, X
    31ec:	15 97       	sbiw	r26, 0x05	; 5
    31ee:	8c 0e       	add	r8, r28
    31f0:	9d 1e       	adc	r9, r29
    31f2:	f2 01       	movw	r30, r4
    31f4:	04 81       	ldd	r16, Z+4	; 0x04
    31f6:	15 81       	ldd	r17, Z+5	; 0x05
    31f8:	06 0d       	add	r16, r6
    31fa:	17 1d       	adc	r17, r7
    31fc:	d7 01       	movw	r26, r14
    31fe:	14 96       	adiw	r26, 0x04	; 4
    3200:	8d 91       	ld	r24, X+
    3202:	9c 91       	ld	r25, X
    3204:	15 97       	sbiw	r26, 0x05	; 5
    3206:	8a 0d       	add	r24, r10
    3208:	9b 1d       	adc	r25, r11
    320a:	15 96       	adiw	r26, 0x05	; 5
    320c:	9c 93       	st	X, r25
    320e:	8e 93       	st	-X, r24
    3210:	14 97       	sbiw	r26, 0x04	; 4
    3212:	f2 01       	movw	r30, r4
    3214:	60 81       	ld	r22, Z
    3216:	71 81       	ldd	r23, Z+1	; 0x01
    3218:	c8 01       	movw	r24, r16
    321a:	0e 94 14 2e 	call	0x5c28	; 0x5c28 <strstr>
    321e:	3c 01       	movw	r6, r24
    3220:	00 97       	sbiw	r24, 0x00	; 0
    3222:	51 f6       	brne	.-108    	; 0x31b8 <_ZN6String7replaceERKS_S1_+0xac>
    3224:	c4 01       	movw	r24, r8
    3226:	b8 01       	movw	r22, r16
    3228:	0e 94 e5 2d 	call	0x5bca	; 0x5bca <strcpy>
    322c:	66 c0       	rjmp	.+204    	; 0x32fa <_ZN6String7replaceERKS_S1_+0x1ee>
    322e:	8c 01       	movw	r16, r24
    3230:	08 0d       	add	r16, r8
    3232:	19 1d       	adc	r17, r9
    3234:	ca 0d       	add	r28, r10
    3236:	db 1d       	adc	r29, r11
    3238:	d2 01       	movw	r26, r4
    323a:	6d 91       	ld	r22, X+
    323c:	7c 91       	ld	r23, X
    323e:	c8 01       	movw	r24, r16
    3240:	0e 94 14 2e 	call	0x5c28	; 0x5c28 <strstr>
    3244:	00 97       	sbiw	r24, 0x00	; 0
    3246:	99 f7       	brne	.-26     	; 0x322e <_ZN6String7replaceERKS_S1_+0x122>
    3248:	c6 15       	cp	r28, r6
    324a:	d7 05       	cpc	r29, r7
    324c:	09 f4       	brne	.+2      	; 0x3250 <_ZN6String7replaceERKS_S1_+0x144>
    324e:	55 c0       	rjmp	.+170    	; 0x32fa <_ZN6String7replaceERKS_S1_+0x1ee>
    3250:	f7 01       	movw	r30, r14
    3252:	82 81       	ldd	r24, Z+2	; 0x02
    3254:	93 81       	ldd	r25, Z+3	; 0x03
    3256:	8c 17       	cp	r24, r28
    3258:	9d 07       	cpc	r25, r29
    325a:	08 f0       	brcs	.+2      	; 0x325e <_ZN6String7replaceERKS_S1_+0x152>
    325c:	45 c0       	rjmp	.+138    	; 0x32e8 <_ZN6String7replaceERKS_S1_+0x1dc>
    325e:	c7 01       	movw	r24, r14
    3260:	be 01       	movw	r22, r28
    3262:	0e 94 2f 12 	call	0x245e	; 0x245e <_ZN6String12changeBufferEj>
    3266:	88 23       	and	r24, r24
    3268:	09 f4       	brne	.+2      	; 0x326c <_ZN6String7replaceERKS_S1_+0x160>
    326a:	47 c0       	rjmp	.+142    	; 0x32fa <_ZN6String7replaceERKS_S1_+0x1ee>
    326c:	3d c0       	rjmp	.+122    	; 0x32e8 <_ZN6String7replaceERKS_S1_+0x1dc>
    326e:	c7 01       	movw	r24, r14
    3270:	b2 01       	movw	r22, r4
    3272:	a9 01       	movw	r20, r18
    3274:	0e 94 c2 17 	call	0x2f84	; 0x2f84 <_ZNK6String11lastIndexOfERKS_j>
    3278:	ec 01       	movw	r28, r24
    327a:	97 fd       	sbrc	r25, 7
    327c:	3e c0       	rjmp	.+124    	; 0x32fa <_ZN6String7replaceERKS_S1_+0x1ee>
    327e:	d7 01       	movw	r26, r14
    3280:	6d 91       	ld	r22, X+
    3282:	7c 91       	ld	r23, X
    3284:	11 97       	sbiw	r26, 0x01	; 1
    3286:	f2 01       	movw	r30, r4
    3288:	84 81       	ldd	r24, Z+4	; 0x04
    328a:	95 81       	ldd	r25, Z+5	; 0x05
    328c:	8c 0f       	add	r24, r28
    328e:	9d 1f       	adc	r25, r29
    3290:	68 0f       	add	r22, r24
    3292:	79 1f       	adc	r23, r25
    3294:	14 96       	adiw	r26, 0x04	; 4
    3296:	4d 91       	ld	r20, X+
    3298:	5c 91       	ld	r21, X
    329a:	15 97       	sbiw	r26, 0x05	; 5
    329c:	48 1b       	sub	r20, r24
    329e:	59 0b       	sbc	r21, r25
    32a0:	cb 01       	movw	r24, r22
    32a2:	8a 0d       	add	r24, r10
    32a4:	9b 1d       	adc	r25, r11
    32a6:	0e 94 bf 2d 	call	0x5b7e	; 0x5b7e <memmove>
    32aa:	d7 01       	movw	r26, r14
    32ac:	14 96       	adiw	r26, 0x04	; 4
    32ae:	8d 91       	ld	r24, X+
    32b0:	9c 91       	ld	r25, X
    32b2:	15 97       	sbiw	r26, 0x05	; 5
    32b4:	8a 0d       	add	r24, r10
    32b6:	9b 1d       	adc	r25, r11
    32b8:	15 96       	adiw	r26, 0x05	; 5
    32ba:	9c 93       	st	X, r25
    32bc:	8e 93       	st	-X, r24
    32be:	14 97       	sbiw	r26, 0x04	; 4
    32c0:	ed 91       	ld	r30, X+
    32c2:	fc 91       	ld	r31, X
    32c4:	11 97       	sbiw	r26, 0x01	; 1
    32c6:	e8 0f       	add	r30, r24
    32c8:	f9 1f       	adc	r31, r25
    32ca:	10 82       	st	Z, r1
    32cc:	2d 91       	ld	r18, X+
    32ce:	3c 91       	ld	r19, X
    32d0:	2c 0f       	add	r18, r28
    32d2:	3d 1f       	adc	r19, r29
    32d4:	f6 01       	movw	r30, r12
    32d6:	60 81       	ld	r22, Z
    32d8:	71 81       	ldd	r23, Z+1	; 0x01
    32da:	44 81       	ldd	r20, Z+4	; 0x04
    32dc:	55 81       	ldd	r21, Z+5	; 0x05
    32de:	c9 01       	movw	r24, r18
    32e0:	0e 94 b6 2d 	call	0x5b6c	; 0x5b6c <memcpy>
    32e4:	9e 01       	movw	r18, r28
    32e6:	05 c0       	rjmp	.+10     	; 0x32f2 <_ZN6String7replaceERKS_S1_+0x1e6>
    32e8:	d7 01       	movw	r26, r14
    32ea:	14 96       	adiw	r26, 0x04	; 4
    32ec:	2d 91       	ld	r18, X+
    32ee:	3c 91       	ld	r19, X
    32f0:	15 97       	sbiw	r26, 0x05	; 5
    32f2:	21 50       	subi	r18, 0x01	; 1
    32f4:	30 40       	sbci	r19, 0x00	; 0
    32f6:	37 ff       	sbrs	r19, 7
    32f8:	ba cf       	rjmp	.-140    	; 0x326e <_ZN6String7replaceERKS_S1_+0x162>
    32fa:	df 91       	pop	r29
    32fc:	cf 91       	pop	r28
    32fe:	1f 91       	pop	r17
    3300:	0f 91       	pop	r16
    3302:	ff 90       	pop	r15
    3304:	ef 90       	pop	r14
    3306:	df 90       	pop	r13
    3308:	cf 90       	pop	r12
    330a:	bf 90       	pop	r11
    330c:	af 90       	pop	r10
    330e:	9f 90       	pop	r9
    3310:	8f 90       	pop	r8
    3312:	7f 90       	pop	r7
    3314:	6f 90       	pop	r6
    3316:	5f 90       	pop	r5
    3318:	4f 90       	pop	r4
    331a:	3f 90       	pop	r3
    331c:	2f 90       	pop	r2
    331e:	08 95       	ret

00003320 <_ZN6String11toLowerCaseEv>:
    3320:	cf 93       	push	r28
    3322:	df 93       	push	r29
    3324:	fc 01       	movw	r30, r24
    3326:	c0 81       	ld	r28, Z
    3328:	d1 81       	ldd	r29, Z+1	; 0x01
    332a:	20 97       	sbiw	r28, 0x00	; 0
    332c:	39 f4       	brne	.+14     	; 0x333c <_ZN6String11toLowerCaseEv+0x1c>
    332e:	09 c0       	rjmp	.+18     	; 0x3342 <_ZN6String11toLowerCaseEv+0x22>
    3330:	99 27       	eor	r25, r25
    3332:	87 fd       	sbrc	r24, 7
    3334:	90 95       	com	r25
    3336:	0e 94 a6 2d 	call	0x5b4c	; 0x5b4c <tolower>
    333a:	89 93       	st	Y+, r24
    333c:	88 81       	ld	r24, Y
    333e:	88 23       	and	r24, r24
    3340:	b9 f7       	brne	.-18     	; 0x3330 <_ZN6String11toLowerCaseEv+0x10>
    3342:	df 91       	pop	r29
    3344:	cf 91       	pop	r28
    3346:	08 95       	ret

00003348 <_ZN6String11toUpperCaseEv>:
    3348:	cf 93       	push	r28
    334a:	df 93       	push	r29
    334c:	fc 01       	movw	r30, r24
    334e:	c0 81       	ld	r28, Z
    3350:	d1 81       	ldd	r29, Z+1	; 0x01
    3352:	20 97       	sbiw	r28, 0x00	; 0
    3354:	39 f4       	brne	.+14     	; 0x3364 <_ZN6String11toUpperCaseEv+0x1c>
    3356:	09 c0       	rjmp	.+18     	; 0x336a <_ZN6String11toUpperCaseEv+0x22>
    3358:	99 27       	eor	r25, r25
    335a:	87 fd       	sbrc	r24, 7
    335c:	90 95       	com	r25
    335e:	0e 94 ae 2d 	call	0x5b5c	; 0x5b5c <toupper>
    3362:	89 93       	st	Y+, r24
    3364:	88 81       	ld	r24, Y
    3366:	88 23       	and	r24, r24
    3368:	b9 f7       	brne	.-18     	; 0x3358 <_ZN6String11toUpperCaseEv+0x10>
    336a:	df 91       	pop	r29
    336c:	cf 91       	pop	r28
    336e:	08 95       	ret

00003370 <_ZN6String4trimEv>:
    3370:	af 92       	push	r10
    3372:	bf 92       	push	r11
    3374:	cf 92       	push	r12
    3376:	df 92       	push	r13
    3378:	ef 92       	push	r14
    337a:	ff 92       	push	r15
    337c:	0f 93       	push	r16
    337e:	1f 93       	push	r17
    3380:	cf 93       	push	r28
    3382:	df 93       	push	r29
    3384:	6c 01       	movw	r12, r24
    3386:	dc 01       	movw	r26, r24
    3388:	ed 90       	ld	r14, X+
    338a:	fc 90       	ld	r15, X
    338c:	11 97       	sbiw	r26, 0x01	; 1
    338e:	e1 14       	cp	r14, r1
    3390:	f1 04       	cpc	r15, r1
    3392:	09 f4       	brne	.+2      	; 0x3396 <_ZN6String4trimEv+0x26>
    3394:	43 c0       	rjmp	.+134    	; 0x341c <_ZN6String4trimEv+0xac>
    3396:	14 96       	adiw	r26, 0x04	; 4
    3398:	ad 90       	ld	r10, X+
    339a:	bc 90       	ld	r11, X
    339c:	15 97       	sbiw	r26, 0x05	; 5
    339e:	a1 14       	cp	r10, r1
    33a0:	b1 04       	cpc	r11, r1
    33a2:	e1 f1       	breq	.+120    	; 0x341c <_ZN6String4trimEv+0xac>
    33a4:	87 01       	movw	r16, r14
    33a6:	e8 01       	movw	r28, r16
    33a8:	88 81       	ld	r24, Y
    33aa:	0f 5f       	subi	r16, 0xFF	; 255
    33ac:	1f 4f       	sbci	r17, 0xFF	; 255
    33ae:	99 27       	eor	r25, r25
    33b0:	87 fd       	sbrc	r24, 7
    33b2:	90 95       	com	r25
    33b4:	0e 94 9e 2d 	call	0x5b3c	; 0x5b3c <isspace>
    33b8:	00 97       	sbiw	r24, 0x00	; 0
    33ba:	a9 f7       	brne	.-22     	; 0x33a6 <_ZN6String4trimEv+0x36>
    33bc:	85 01       	movw	r16, r10
    33be:	01 50       	subi	r16, 0x01	; 1
    33c0:	10 40       	sbci	r17, 0x00	; 0
    33c2:	0e 0d       	add	r16, r14
    33c4:	1f 1d       	adc	r17, r15
    33c6:	f8 01       	movw	r30, r16
    33c8:	80 81       	ld	r24, Z
    33ca:	99 27       	eor	r25, r25
    33cc:	87 fd       	sbrc	r24, 7
    33ce:	90 95       	com	r25
    33d0:	0e 94 9e 2d 	call	0x5b3c	; 0x5b3c <isspace>
    33d4:	00 97       	sbiw	r24, 0x00	; 0
    33d6:	31 f0       	breq	.+12     	; 0x33e4 <_ZN6String4trimEv+0x74>
    33d8:	0c 17       	cp	r16, r28
    33da:	1d 07       	cpc	r17, r29
    33dc:	18 f0       	brcs	.+6      	; 0x33e4 <_ZN6String4trimEv+0x74>
    33de:	01 50       	subi	r16, 0x01	; 1
    33e0:	10 40       	sbci	r17, 0x00	; 0
    33e2:	f1 cf       	rjmp	.-30     	; 0x33c6 <_ZN6String4trimEv+0x56>
    33e4:	0f 5f       	subi	r16, 0xFF	; 255
    33e6:	1f 4f       	sbci	r17, 0xFF	; 255
    33e8:	0c 1b       	sub	r16, r28
    33ea:	1d 0b       	sbc	r17, r29
    33ec:	d6 01       	movw	r26, r12
    33ee:	15 96       	adiw	r26, 0x05	; 5
    33f0:	1c 93       	st	X, r17
    33f2:	0e 93       	st	-X, r16
    33f4:	14 97       	sbiw	r26, 0x04	; 4
    33f6:	ec 16       	cp	r14, r28
    33f8:	fd 06       	cpc	r15, r29
    33fa:	28 f4       	brcc	.+10     	; 0x3406 <_ZN6String4trimEv+0x96>
    33fc:	c7 01       	movw	r24, r14
    33fe:	be 01       	movw	r22, r28
    3400:	a8 01       	movw	r20, r16
    3402:	0e 94 b6 2d 	call	0x5b6c	; 0x5b6c <memcpy>
    3406:	d6 01       	movw	r26, r12
    3408:	ed 91       	ld	r30, X+
    340a:	fc 91       	ld	r31, X
    340c:	11 97       	sbiw	r26, 0x01	; 1
    340e:	14 96       	adiw	r26, 0x04	; 4
    3410:	8d 91       	ld	r24, X+
    3412:	9c 91       	ld	r25, X
    3414:	15 97       	sbiw	r26, 0x05	; 5
    3416:	e8 0f       	add	r30, r24
    3418:	f9 1f       	adc	r31, r25
    341a:	10 82       	st	Z, r1
    341c:	df 91       	pop	r29
    341e:	cf 91       	pop	r28
    3420:	1f 91       	pop	r17
    3422:	0f 91       	pop	r16
    3424:	ff 90       	pop	r15
    3426:	ef 90       	pop	r14
    3428:	df 90       	pop	r13
    342a:	cf 90       	pop	r12
    342c:	bf 90       	pop	r11
    342e:	af 90       	pop	r10
    3430:	08 95       	ret

00003432 <_ZNK6String5toIntEv>:
    3432:	fc 01       	movw	r30, r24
    3434:	80 81       	ld	r24, Z
    3436:	91 81       	ldd	r25, Z+1	; 0x01
    3438:	00 97       	sbiw	r24, 0x00	; 0
    343a:	29 f0       	breq	.+10     	; 0x3446 <_ZNK6String5toIntEv+0x14>
    343c:	0e 94 77 2d 	call	0x5aee	; 0x5aee <atol>
    3440:	9b 01       	movw	r18, r22
    3442:	ac 01       	movw	r20, r24
    3444:	03 c0       	rjmp	.+6      	; 0x344c <_ZNK6String5toIntEv+0x1a>
    3446:	20 e0       	ldi	r18, 0x00	; 0
    3448:	30 e0       	ldi	r19, 0x00	; 0
    344a:	a9 01       	movw	r20, r18
    344c:	b9 01       	movw	r22, r18
    344e:	ca 01       	movw	r24, r20
    3450:	08 95       	ret

00003452 <main>:
/*

MinIMU-9-Arduino-AHRS
Pololu MinIMU-9 + Arduino AHRS (Attitude and Heading Reference System)
    3452:	cf 93       	push	r28
    3454:	df 93       	push	r29

    3456:	0e 94 fb 1a 	call	0x35f6	; 0x35f6 <init>
Copyright (c) 2011 Pololu Corporation.
http://www.pololu.com/

MinIMU-9-Arduino-AHRS is based on sf9domahrs by Doug Weibel and Jose Julio:
http://code.google.com/p/sf9domahrs/

    345a:	0e 94 12 03 	call	0x624	; 0x624 <setup>
sf9domahrs is based on ArduIMU v1.5 by Jordi Munoz and William Premerlani, Jose
Julio and Doug Weibel:
http://code.google.com/p/ardu-imu/

    345e:	c0 e9       	ldi	r28, 0x90	; 144
    3460:	dc e0       	ldi	r29, 0x0C	; 12
MinIMU-9-Arduino-AHRS is based on sf9domahrs by Doug Weibel and Jose Julio:
http://code.google.com/p/sf9domahrs/

sf9domahrs is based on ArduIMU v1.5 by Jordi Munoz and William Premerlani, Jose
Julio and Doug Weibel:
http://code.google.com/p/ardu-imu/
    3462:	0e 94 21 0b 	call	0x1642	; 0x1642 <loop>

    3466:	20 97       	sbiw	r28, 0x00	; 0
    3468:	e1 f3       	breq	.-8      	; 0x3462 <main+0x10>
    346a:	0e 94 90 0c 	call	0x1920	; 0x1920 <_Z14serialEventRunv>
    346e:	f9 cf       	rjmp	.-14     	; 0x3462 <main+0x10>

00003470 <_Znwj>:
    3470:	0e 94 79 2b 	call	0x56f2	; 0x56f2 <malloc>
    3474:	08 95       	ret

00003476 <_ZdlPv>:
    3476:	0e 94 13 2c 	call	0x5826	; 0x5826 <free>
    347a:	08 95       	ret

0000347c <__cxa_guard_acquire>:
    347c:	21 e0       	ldi	r18, 0x01	; 1
    347e:	30 e0       	ldi	r19, 0x00	; 0
    3480:	fc 01       	movw	r30, r24
    3482:	80 81       	ld	r24, Z
    3484:	88 23       	and	r24, r24
    3486:	11 f0       	breq	.+4      	; 0x348c <__cxa_guard_acquire+0x10>
    3488:	20 e0       	ldi	r18, 0x00	; 0
    348a:	30 e0       	ldi	r19, 0x00	; 0
    348c:	c9 01       	movw	r24, r18
    348e:	08 95       	ret

00003490 <__cxa_guard_release>:
    3490:	21 e0       	ldi	r18, 0x01	; 1
    3492:	fc 01       	movw	r30, r24
    3494:	20 83       	st	Z, r18
    3496:	08 95       	ret

00003498 <__cxa_guard_abort>:
    3498:	08 95       	ret

0000349a <__cxa_pure_virtual>:
    349a:	08 95       	ret

0000349c <__vector_16>:
    349c:	1f 92       	push	r1
    349e:	0f 92       	push	r0
    34a0:	0f b6       	in	r0, 0x3f	; 63
    34a2:	0f 92       	push	r0
    34a4:	11 24       	eor	r1, r1
    34a6:	2f 93       	push	r18
    34a8:	3f 93       	push	r19
    34aa:	8f 93       	push	r24
    34ac:	9f 93       	push	r25
    34ae:	af 93       	push	r26
    34b0:	bf 93       	push	r27
    34b2:	80 91 c8 03 	lds	r24, 0x03C8
    34b6:	90 91 c9 03 	lds	r25, 0x03C9
    34ba:	a0 91 ca 03 	lds	r26, 0x03CA
    34be:	b0 91 cb 03 	lds	r27, 0x03CB
    34c2:	30 91 cc 03 	lds	r19, 0x03CC
    34c6:	01 96       	adiw	r24, 0x01	; 1
    34c8:	a1 1d       	adc	r26, r1
    34ca:	b1 1d       	adc	r27, r1
    34cc:	23 2f       	mov	r18, r19
    34ce:	2d 5f       	subi	r18, 0xFD	; 253
    34d0:	2d 37       	cpi	r18, 0x7D	; 125
    34d2:	20 f0       	brcs	.+8      	; 0x34dc <__vector_16+0x40>
    34d4:	2d 57       	subi	r18, 0x7D	; 125
    34d6:	01 96       	adiw	r24, 0x01	; 1
    34d8:	a1 1d       	adc	r26, r1
    34da:	b1 1d       	adc	r27, r1
    34dc:	20 93 cc 03 	sts	0x03CC, r18
    34e0:	80 93 c8 03 	sts	0x03C8, r24
    34e4:	90 93 c9 03 	sts	0x03C9, r25
    34e8:	a0 93 ca 03 	sts	0x03CA, r26
    34ec:	b0 93 cb 03 	sts	0x03CB, r27
    34f0:	80 91 c4 03 	lds	r24, 0x03C4
    34f4:	90 91 c5 03 	lds	r25, 0x03C5
    34f8:	a0 91 c6 03 	lds	r26, 0x03C6
    34fc:	b0 91 c7 03 	lds	r27, 0x03C7
    3500:	01 96       	adiw	r24, 0x01	; 1
    3502:	a1 1d       	adc	r26, r1
    3504:	b1 1d       	adc	r27, r1
    3506:	80 93 c4 03 	sts	0x03C4, r24
    350a:	90 93 c5 03 	sts	0x03C5, r25
    350e:	a0 93 c6 03 	sts	0x03C6, r26
    3512:	b0 93 c7 03 	sts	0x03C7, r27
    3516:	bf 91       	pop	r27
    3518:	af 91       	pop	r26
    351a:	9f 91       	pop	r25
    351c:	8f 91       	pop	r24
    351e:	3f 91       	pop	r19
    3520:	2f 91       	pop	r18
    3522:	0f 90       	pop	r0
    3524:	0f be       	out	0x3f, r0	; 63
    3526:	0f 90       	pop	r0
    3528:	1f 90       	pop	r1
    352a:	18 95       	reti

0000352c <millis>:
    352c:	8f b7       	in	r24, 0x3f	; 63
    352e:	f8 94       	cli
    3530:	20 91 c8 03 	lds	r18, 0x03C8
    3534:	30 91 c9 03 	lds	r19, 0x03C9
    3538:	40 91 ca 03 	lds	r20, 0x03CA
    353c:	50 91 cb 03 	lds	r21, 0x03CB
    3540:	8f bf       	out	0x3f, r24	; 63
    3542:	b9 01       	movw	r22, r18
    3544:	ca 01       	movw	r24, r20
    3546:	08 95       	ret

00003548 <micros>:
    3548:	9f b7       	in	r25, 0x3f	; 63
    354a:	f8 94       	cli
    354c:	20 91 c4 03 	lds	r18, 0x03C4
    3550:	30 91 c5 03 	lds	r19, 0x03C5
    3554:	40 91 c6 03 	lds	r20, 0x03C6
    3558:	50 91 c7 03 	lds	r21, 0x03C7
    355c:	86 b5       	in	r24, 0x26	; 38
    355e:	a8 9b       	sbis	0x15, 0	; 21
    3560:	06 c0       	rjmp	.+12     	; 0x356e <micros+0x26>
    3562:	8f 3f       	cpi	r24, 0xFF	; 255
    3564:	21 f0       	breq	.+8      	; 0x356e <micros+0x26>
    3566:	2f 5f       	subi	r18, 0xFF	; 255
    3568:	3f 4f       	sbci	r19, 0xFF	; 255
    356a:	4f 4f       	sbci	r20, 0xFF	; 255
    356c:	5f 4f       	sbci	r21, 0xFF	; 255
    356e:	9f bf       	out	0x3f, r25	; 63
    3570:	54 2f       	mov	r21, r20
    3572:	43 2f       	mov	r20, r19
    3574:	32 2f       	mov	r19, r18
    3576:	22 27       	eor	r18, r18
    3578:	28 0f       	add	r18, r24
    357a:	31 1d       	adc	r19, r1
    357c:	41 1d       	adc	r20, r1
    357e:	51 1d       	adc	r21, r1
    3580:	82 e0       	ldi	r24, 0x02	; 2
    3582:	22 0f       	add	r18, r18
    3584:	33 1f       	adc	r19, r19
    3586:	44 1f       	adc	r20, r20
    3588:	55 1f       	adc	r21, r21
    358a:	8a 95       	dec	r24
    358c:	d1 f7       	brne	.-12     	; 0x3582 <micros+0x3a>
    358e:	b9 01       	movw	r22, r18
    3590:	ca 01       	movw	r24, r20
    3592:	08 95       	ret

00003594 <delay>:
    3594:	ef 92       	push	r14
    3596:	ff 92       	push	r15
    3598:	0f 93       	push	r16
    359a:	1f 93       	push	r17
    359c:	cf 93       	push	r28
    359e:	df 93       	push	r29
    35a0:	7b 01       	movw	r14, r22
    35a2:	8c 01       	movw	r16, r24
    35a4:	0e 94 a4 1a 	call	0x3548	; 0x3548 <micros>
    35a8:	eb 01       	movw	r28, r22
    35aa:	0f c0       	rjmp	.+30     	; 0x35ca <delay+0x36>
    35ac:	0e 94 a4 1a 	call	0x3548	; 0x3548 <micros>
    35b0:	6c 1b       	sub	r22, r28
    35b2:	7d 0b       	sbc	r23, r29
    35b4:	83 e0       	ldi	r24, 0x03	; 3
    35b6:	68 3e       	cpi	r22, 0xE8	; 232
    35b8:	78 07       	cpc	r23, r24
    35ba:	38 f0       	brcs	.+14     	; 0x35ca <delay+0x36>
    35bc:	08 94       	sec
    35be:	e1 08       	sbc	r14, r1
    35c0:	f1 08       	sbc	r15, r1
    35c2:	01 09       	sbc	r16, r1
    35c4:	11 09       	sbc	r17, r1
    35c6:	c8 51       	subi	r28, 0x18	; 24
    35c8:	dc 4f       	sbci	r29, 0xFC	; 252
    35ca:	e1 14       	cp	r14, r1
    35cc:	f1 04       	cpc	r15, r1
    35ce:	01 05       	cpc	r16, r1
    35d0:	11 05       	cpc	r17, r1
    35d2:	61 f7       	brne	.-40     	; 0x35ac <delay+0x18>
    35d4:	df 91       	pop	r29
    35d6:	cf 91       	pop	r28
    35d8:	1f 91       	pop	r17
    35da:	0f 91       	pop	r16
    35dc:	ff 90       	pop	r15
    35de:	ef 90       	pop	r14
    35e0:	08 95       	ret

000035e2 <delayMicroseconds>:
    35e2:	01 97       	sbiw	r24, 0x01	; 1
    35e4:	39 f0       	breq	.+14     	; 0x35f4 <delayMicroseconds+0x12>
    35e6:	88 0f       	add	r24, r24
    35e8:	99 1f       	adc	r25, r25
    35ea:	88 0f       	add	r24, r24
    35ec:	99 1f       	adc	r25, r25
    35ee:	02 97       	sbiw	r24, 0x02	; 2
    35f0:	01 97       	sbiw	r24, 0x01	; 1
    35f2:	f1 f7       	brne	.-4      	; 0x35f0 <delayMicroseconds+0xe>
    35f4:	08 95       	ret

000035f6 <init>:
    35f6:	78 94       	sei
    35f8:	84 b5       	in	r24, 0x24	; 36
    35fa:	82 60       	ori	r24, 0x02	; 2
    35fc:	84 bd       	out	0x24, r24	; 36
    35fe:	84 b5       	in	r24, 0x24	; 36
    3600:	81 60       	ori	r24, 0x01	; 1
    3602:	84 bd       	out	0x24, r24	; 36
    3604:	85 b5       	in	r24, 0x25	; 37
    3606:	82 60       	ori	r24, 0x02	; 2
    3608:	85 bd       	out	0x25, r24	; 37
    360a:	85 b5       	in	r24, 0x25	; 37
    360c:	81 60       	ori	r24, 0x01	; 1
    360e:	85 bd       	out	0x25, r24	; 37
    3610:	ee e6       	ldi	r30, 0x6E	; 110
    3612:	f0 e0       	ldi	r31, 0x00	; 0
    3614:	80 81       	ld	r24, Z
    3616:	81 60       	ori	r24, 0x01	; 1
    3618:	80 83       	st	Z, r24
    361a:	e1 e8       	ldi	r30, 0x81	; 129
    361c:	f0 e0       	ldi	r31, 0x00	; 0
    361e:	10 82       	st	Z, r1
    3620:	80 81       	ld	r24, Z
    3622:	82 60       	ori	r24, 0x02	; 2
    3624:	80 83       	st	Z, r24
    3626:	80 81       	ld	r24, Z
    3628:	81 60       	ori	r24, 0x01	; 1
    362a:	80 83       	st	Z, r24
    362c:	e0 e8       	ldi	r30, 0x80	; 128
    362e:	f0 e0       	ldi	r31, 0x00	; 0
    3630:	80 81       	ld	r24, Z
    3632:	81 60       	ori	r24, 0x01	; 1
    3634:	80 83       	st	Z, r24
    3636:	e1 eb       	ldi	r30, 0xB1	; 177
    3638:	f0 e0       	ldi	r31, 0x00	; 0
    363a:	80 81       	ld	r24, Z
    363c:	84 60       	ori	r24, 0x04	; 4
    363e:	80 83       	st	Z, r24
    3640:	e0 eb       	ldi	r30, 0xB0	; 176
    3642:	f0 e0       	ldi	r31, 0x00	; 0
    3644:	80 81       	ld	r24, Z
    3646:	81 60       	ori	r24, 0x01	; 1
    3648:	80 83       	st	Z, r24
    364a:	ea e7       	ldi	r30, 0x7A	; 122
    364c:	f0 e0       	ldi	r31, 0x00	; 0
    364e:	80 81       	ld	r24, Z
    3650:	84 60       	ori	r24, 0x04	; 4
    3652:	80 83       	st	Z, r24
    3654:	80 81       	ld	r24, Z
    3656:	82 60       	ori	r24, 0x02	; 2
    3658:	80 83       	st	Z, r24
    365a:	80 81       	ld	r24, Z
    365c:	81 60       	ori	r24, 0x01	; 1
    365e:	80 83       	st	Z, r24
    3660:	80 81       	ld	r24, Z
    3662:	80 68       	ori	r24, 0x80	; 128
    3664:	80 83       	st	Z, r24
    3666:	10 92 c1 00 	sts	0x00C1, r1
    366a:	08 95       	ret

0000366c <turnOffPWM>:
    366c:	83 30       	cpi	r24, 0x03	; 3
    366e:	71 f0       	breq	.+28     	; 0x368c <turnOffPWM+0x20>
    3670:	84 30       	cpi	r24, 0x04	; 4
    3672:	28 f4       	brcc	.+10     	; 0x367e <turnOffPWM+0x12>
    3674:	81 30       	cpi	r24, 0x01	; 1
    3676:	a1 f0       	breq	.+40     	; 0x36a0 <turnOffPWM+0x34>
    3678:	82 30       	cpi	r24, 0x02	; 2
    367a:	21 f5       	brne	.+72     	; 0x36c4 <turnOffPWM+0x58>
    367c:	14 c0       	rjmp	.+40     	; 0x36a6 <turnOffPWM+0x3a>
    367e:	86 30       	cpi	r24, 0x06	; 6
    3680:	b1 f0       	breq	.+44     	; 0x36ae <turnOffPWM+0x42>
    3682:	87 30       	cpi	r24, 0x07	; 7
    3684:	d1 f0       	breq	.+52     	; 0x36ba <turnOffPWM+0x4e>
    3686:	84 30       	cpi	r24, 0x04	; 4
    3688:	e9 f4       	brne	.+58     	; 0x36c4 <turnOffPWM+0x58>
    368a:	04 c0       	rjmp	.+8      	; 0x3694 <turnOffPWM+0x28>
    368c:	80 91 80 00 	lds	r24, 0x0080
    3690:	8f 77       	andi	r24, 0x7F	; 127
    3692:	03 c0       	rjmp	.+6      	; 0x369a <turnOffPWM+0x2e>
    3694:	80 91 80 00 	lds	r24, 0x0080
    3698:	8f 7d       	andi	r24, 0xDF	; 223
    369a:	80 93 80 00 	sts	0x0080, r24
    369e:	08 95       	ret
    36a0:	84 b5       	in	r24, 0x24	; 36
    36a2:	8f 77       	andi	r24, 0x7F	; 127
    36a4:	02 c0       	rjmp	.+4      	; 0x36aa <turnOffPWM+0x3e>
    36a6:	84 b5       	in	r24, 0x24	; 36
    36a8:	8f 7d       	andi	r24, 0xDF	; 223
    36aa:	84 bd       	out	0x24, r24	; 36
    36ac:	08 95       	ret
    36ae:	80 91 b0 00 	lds	r24, 0x00B0
    36b2:	8f 77       	andi	r24, 0x7F	; 127
    36b4:	80 93 b0 00 	sts	0x00B0, r24
    36b8:	08 95       	ret
    36ba:	80 91 b0 00 	lds	r24, 0x00B0
    36be:	8f 7d       	andi	r24, 0xDF	; 223
    36c0:	80 93 b0 00 	sts	0x00B0, r24
    36c4:	08 95       	ret

000036c6 <pinMode>:
    36c6:	ef 92       	push	r14
    36c8:	ff 92       	push	r15
    36ca:	cf 93       	push	r28
    36cc:	df 93       	push	r29
    36ce:	90 e0       	ldi	r25, 0x00	; 0
    36d0:	fc 01       	movw	r30, r24
    36d2:	ef 5d       	subi	r30, 0xDF	; 223
    36d4:	fe 4f       	sbci	r31, 0xFE	; 254
    36d6:	44 91       	lpm	r20, Z+
    36d8:	83 5f       	subi	r24, 0xF3	; 243
    36da:	9e 4f       	sbci	r25, 0xFE	; 254
    36dc:	fc 01       	movw	r30, r24
    36de:	84 91       	lpm	r24, Z+
    36e0:	88 23       	and	r24, r24
    36e2:	89 f1       	breq	.+98     	; 0x3746 <pinMode+0x80>
    36e4:	90 e0       	ldi	r25, 0x00	; 0
    36e6:	88 0f       	add	r24, r24
    36e8:	99 1f       	adc	r25, r25
    36ea:	fc 01       	movw	r30, r24
    36ec:	e1 51       	subi	r30, 0x11	; 17
    36ee:	ff 4f       	sbci	r31, 0xFF	; 255
    36f0:	25 91       	lpm	r18, Z+
    36f2:	34 91       	lpm	r19, Z+
    36f4:	d9 01       	movw	r26, r18
    36f6:	87 50       	subi	r24, 0x07	; 7
    36f8:	9f 4f       	sbci	r25, 0xFF	; 255
    36fa:	fc 01       	movw	r30, r24
    36fc:	25 91       	lpm	r18, Z+
    36fe:	34 91       	lpm	r19, Z+
    3700:	e2 2e       	mov	r14, r18
    3702:	e7 01       	movw	r28, r14
    3704:	7e 01       	movw	r14, r28
    3706:	f3 2e       	mov	r15, r19
    3708:	e7 01       	movw	r28, r14
    370a:	66 23       	and	r22, r22
    370c:	49 f4       	brne	.+18     	; 0x3720 <pinMode+0x5a>
    370e:	9f b7       	in	r25, 0x3f	; 63
    3710:	f8 94       	cli
    3712:	8c 91       	ld	r24, X
    3714:	40 95       	com	r20
    3716:	84 23       	and	r24, r20
    3718:	8c 93       	st	X, r24
    371a:	88 81       	ld	r24, Y
    371c:	84 23       	and	r24, r20
    371e:	0b c0       	rjmp	.+22     	; 0x3736 <pinMode+0x70>
    3720:	62 30       	cpi	r22, 0x02	; 2
    3722:	59 f4       	brne	.+22     	; 0x373a <pinMode+0x74>
    3724:	9f b7       	in	r25, 0x3f	; 63
    3726:	f8 94       	cli
    3728:	8c 91       	ld	r24, X
    372a:	24 2f       	mov	r18, r20
    372c:	20 95       	com	r18
    372e:	82 23       	and	r24, r18
    3730:	8c 93       	st	X, r24
    3732:	88 81       	ld	r24, Y
    3734:	84 2b       	or	r24, r20
    3736:	88 83       	st	Y, r24
    3738:	05 c0       	rjmp	.+10     	; 0x3744 <pinMode+0x7e>
    373a:	9f b7       	in	r25, 0x3f	; 63
    373c:	f8 94       	cli
    373e:	8c 91       	ld	r24, X
    3740:	84 2b       	or	r24, r20
    3742:	8c 93       	st	X, r24
    3744:	9f bf       	out	0x3f, r25	; 63
    3746:	df 91       	pop	r29
    3748:	cf 91       	pop	r28
    374a:	ff 90       	pop	r15
    374c:	ef 90       	pop	r14
    374e:	08 95       	ret

00003750 <digitalWrite>:
    3750:	0f 93       	push	r16
    3752:	1f 93       	push	r17
    3754:	df 93       	push	r29
    3756:	cf 93       	push	r28
    3758:	0f 92       	push	r0
    375a:	cd b7       	in	r28, 0x3d	; 61
    375c:	de b7       	in	r29, 0x3e	; 62
    375e:	28 2f       	mov	r18, r24
    3760:	30 e0       	ldi	r19, 0x00	; 0
    3762:	f9 01       	movw	r30, r18
    3764:	eb 5c       	subi	r30, 0xCB	; 203
    3766:	fe 4f       	sbci	r31, 0xFE	; 254
    3768:	84 91       	lpm	r24, Z+
    376a:	f9 01       	movw	r30, r18
    376c:	ef 5d       	subi	r30, 0xDF	; 223
    376e:	fe 4f       	sbci	r31, 0xFE	; 254
    3770:	14 91       	lpm	r17, Z+
    3772:	23 5f       	subi	r18, 0xF3	; 243
    3774:	3e 4f       	sbci	r19, 0xFE	; 254
    3776:	f9 01       	movw	r30, r18
    3778:	04 91       	lpm	r16, Z+
    377a:	00 23       	and	r16, r16
    377c:	d9 f0       	breq	.+54     	; 0x37b4 <digitalWrite+0x64>
    377e:	88 23       	and	r24, r24
    3780:	21 f0       	breq	.+8      	; 0x378a <digitalWrite+0x3a>
    3782:	69 83       	std	Y+1, r22	; 0x01
    3784:	0e 94 36 1b 	call	0x366c	; 0x366c <turnOffPWM>
    3788:	69 81       	ldd	r22, Y+1	; 0x01
    378a:	e0 2f       	mov	r30, r16
    378c:	f0 e0       	ldi	r31, 0x00	; 0
    378e:	ee 0f       	add	r30, r30
    3790:	ff 1f       	adc	r31, r31
    3792:	e7 50       	subi	r30, 0x07	; 7
    3794:	ff 4f       	sbci	r31, 0xFF	; 255
    3796:	85 91       	lpm	r24, Z+
    3798:	94 91       	lpm	r25, Z+
    379a:	dc 01       	movw	r26, r24
    379c:	9f b7       	in	r25, 0x3f	; 63
    379e:	f8 94       	cli
    37a0:	66 23       	and	r22, r22
    37a2:	21 f4       	brne	.+8      	; 0x37ac <digitalWrite+0x5c>
    37a4:	8c 91       	ld	r24, X
    37a6:	10 95       	com	r17
    37a8:	81 23       	and	r24, r17
    37aa:	02 c0       	rjmp	.+4      	; 0x37b0 <digitalWrite+0x60>
    37ac:	8c 91       	ld	r24, X
    37ae:	81 2b       	or	r24, r17
    37b0:	8c 93       	st	X, r24
    37b2:	9f bf       	out	0x3f, r25	; 63
    37b4:	0f 90       	pop	r0
    37b6:	cf 91       	pop	r28
    37b8:	df 91       	pop	r29
    37ba:	1f 91       	pop	r17
    37bc:	0f 91       	pop	r16
    37be:	08 95       	ret

000037c0 <digitalRead>:
    37c0:	0f 93       	push	r16
    37c2:	1f 93       	push	r17
    37c4:	28 2f       	mov	r18, r24
    37c6:	30 e0       	ldi	r19, 0x00	; 0
    37c8:	f9 01       	movw	r30, r18
    37ca:	eb 5c       	subi	r30, 0xCB	; 203
    37cc:	fe 4f       	sbci	r31, 0xFE	; 254
    37ce:	84 91       	lpm	r24, Z+
    37d0:	f9 01       	movw	r30, r18
    37d2:	ef 5d       	subi	r30, 0xDF	; 223
    37d4:	fe 4f       	sbci	r31, 0xFE	; 254
    37d6:	04 91       	lpm	r16, Z+
    37d8:	23 5f       	subi	r18, 0xF3	; 243
    37da:	3e 4f       	sbci	r19, 0xFE	; 254
    37dc:	f9 01       	movw	r30, r18
    37de:	14 91       	lpm	r17, Z+
    37e0:	11 23       	and	r17, r17
    37e2:	91 f0       	breq	.+36     	; 0x3808 <digitalRead+0x48>
    37e4:	88 23       	and	r24, r24
    37e6:	11 f0       	breq	.+4      	; 0x37ec <digitalRead+0x2c>
    37e8:	0e 94 36 1b 	call	0x366c	; 0x366c <turnOffPWM>
    37ec:	e1 2f       	mov	r30, r17
    37ee:	f0 e0       	ldi	r31, 0x00	; 0
    37f0:	ee 0f       	add	r30, r30
    37f2:	ff 1f       	adc	r31, r31
    37f4:	ed 5f       	subi	r30, 0xFD	; 253
    37f6:	fe 4f       	sbci	r31, 0xFE	; 254
    37f8:	85 91       	lpm	r24, Z+
    37fa:	94 91       	lpm	r25, Z+
    37fc:	dc 01       	movw	r26, r24
    37fe:	8c 91       	ld	r24, X
    3800:	80 23       	and	r24, r16
    3802:	21 e0       	ldi	r18, 0x01	; 1
    3804:	30 e0       	ldi	r19, 0x00	; 0
    3806:	11 f4       	brne	.+4      	; 0x380c <digitalRead+0x4c>
    3808:	20 e0       	ldi	r18, 0x00	; 0
    380a:	30 e0       	ldi	r19, 0x00	; 0
    380c:	c9 01       	movw	r24, r18
    380e:	1f 91       	pop	r17
    3810:	0f 91       	pop	r16
    3812:	08 95       	ret

00003814 <_ZN7TwoWire9availableEv>:
    3814:	20 91 ee 03 	lds	r18, 0x03EE
    3818:	30 e0       	ldi	r19, 0x00	; 0
    381a:	80 91 ed 03 	lds	r24, 0x03ED
    381e:	28 1b       	sub	r18, r24
    3820:	31 09       	sbc	r19, r1
    3822:	c9 01       	movw	r24, r18
    3824:	08 95       	ret

00003826 <_ZN7TwoWire4readEv>:
    3826:	80 91 ed 03 	lds	r24, 0x03ED
    382a:	90 91 ee 03 	lds	r25, 0x03EE
    382e:	89 17       	cp	r24, r25
    3830:	50 f4       	brcc	.+20     	; 0x3846 <_ZN7TwoWire4readEv+0x20>
    3832:	e8 2f       	mov	r30, r24
    3834:	f0 e0       	ldi	r31, 0x00	; 0
    3836:	e3 53       	subi	r30, 0x33	; 51
    3838:	fc 4f       	sbci	r31, 0xFC	; 252
    383a:	20 81       	ld	r18, Z
    383c:	30 e0       	ldi	r19, 0x00	; 0
    383e:	8f 5f       	subi	r24, 0xFF	; 255
    3840:	80 93 ed 03 	sts	0x03ED, r24
    3844:	02 c0       	rjmp	.+4      	; 0x384a <_ZN7TwoWire4readEv+0x24>
    3846:	2f ef       	ldi	r18, 0xFF	; 255
    3848:	3f ef       	ldi	r19, 0xFF	; 255
    384a:	c9 01       	movw	r24, r18
    384c:	08 95       	ret

0000384e <_ZN7TwoWire4peekEv>:
    384e:	e0 91 ed 03 	lds	r30, 0x03ED
    3852:	80 91 ee 03 	lds	r24, 0x03EE
    3856:	e8 17       	cp	r30, r24
    3858:	30 f4       	brcc	.+12     	; 0x3866 <_ZN7TwoWire4peekEv+0x18>
    385a:	f0 e0       	ldi	r31, 0x00	; 0
    385c:	e3 53       	subi	r30, 0x33	; 51
    385e:	fc 4f       	sbci	r31, 0xFC	; 252
    3860:	20 81       	ld	r18, Z
    3862:	30 e0       	ldi	r19, 0x00	; 0
    3864:	02 c0       	rjmp	.+4      	; 0x386a <_ZN7TwoWire4peekEv+0x1c>
    3866:	2f ef       	ldi	r18, 0xFF	; 255
    3868:	3f ef       	ldi	r19, 0xFF	; 255
    386a:	c9 01       	movw	r24, r18
    386c:	08 95       	ret

0000386e <_ZN7TwoWire5flushEv>:
    386e:	08 95       	ret

00003870 <_ZN7TwoWire16onReceiveServiceEPhi>:
    3870:	cf 93       	push	r28
    3872:	df 93       	push	r29
    3874:	9c 01       	movw	r18, r24
    3876:	cb 01       	movw	r24, r22
    3878:	e0 91 15 04 	lds	r30, 0x0415
    387c:	f0 91 16 04 	lds	r31, 0x0416
    3880:	30 97       	sbiw	r30, 0x00	; 0
    3882:	d9 f0       	breq	.+54     	; 0x38ba <_ZN7TwoWire16onReceiveServiceEPhi+0x4a>
    3884:	50 91 ed 03 	lds	r21, 0x03ED
    3888:	40 91 ee 03 	lds	r20, 0x03EE
    388c:	54 17       	cp	r21, r20
    388e:	a8 f0       	brcs	.+42     	; 0x38ba <_ZN7TwoWire16onReceiveServiceEPhi+0x4a>
    3890:	60 e0       	ldi	r22, 0x00	; 0
    3892:	09 c0       	rjmp	.+18     	; 0x38a6 <_ZN7TwoWire16onReceiveServiceEPhi+0x36>
    3894:	da 01       	movw	r26, r20
    3896:	a3 53       	subi	r26, 0x33	; 51
    3898:	bc 4f       	sbci	r27, 0xFC	; 252
    389a:	42 0f       	add	r20, r18
    389c:	53 1f       	adc	r21, r19
    389e:	ea 01       	movw	r28, r20
    38a0:	48 81       	ld	r20, Y
    38a2:	4c 93       	st	X, r20
    38a4:	6f 5f       	subi	r22, 0xFF	; 255
    38a6:	46 2f       	mov	r20, r22
    38a8:	50 e0       	ldi	r21, 0x00	; 0
    38aa:	48 17       	cp	r20, r24
    38ac:	59 07       	cpc	r21, r25
    38ae:	94 f3       	brlt	.-28     	; 0x3894 <_ZN7TwoWire16onReceiveServiceEPhi+0x24>
    38b0:	10 92 ed 03 	sts	0x03ED, r1
    38b4:	80 93 ee 03 	sts	0x03EE, r24
    38b8:	09 95       	icall
    38ba:	df 91       	pop	r29
    38bc:	cf 91       	pop	r28
    38be:	08 95       	ret

000038c0 <_ZN7TwoWire16onRequestServiceEv>:
    38c0:	e0 91 13 04 	lds	r30, 0x0413
    38c4:	f0 91 14 04 	lds	r31, 0x0414
    38c8:	30 97       	sbiw	r30, 0x00	; 0
    38ca:	29 f0       	breq	.+10     	; 0x38d6 <_ZN7TwoWire16onRequestServiceEv+0x16>
    38cc:	10 92 10 04 	sts	0x0410, r1
    38d0:	10 92 11 04 	sts	0x0411, r1
    38d4:	09 95       	icall
    38d6:	08 95       	ret

000038d8 <_ZN7TwoWire5writeEPKhj>:
    38d8:	cf 92       	push	r12
    38da:	df 92       	push	r13
    38dc:	ef 92       	push	r14
    38de:	ff 92       	push	r15
    38e0:	0f 93       	push	r16
    38e2:	1f 93       	push	r17
    38e4:	cf 93       	push	r28
    38e6:	df 93       	push	r29
    38e8:	6c 01       	movw	r12, r24
    38ea:	cb 01       	movw	r24, r22
    38ec:	ea 01       	movw	r28, r20
    38ee:	20 91 12 04 	lds	r18, 0x0412
    38f2:	22 23       	and	r18, r18
    38f4:	b1 f0       	breq	.+44     	; 0x3922 <_ZN7TwoWire5writeEPKhj+0x4a>
    38f6:	e6 2e       	mov	r14, r22
    38f8:	f9 2e       	mov	r15, r25
    38fa:	00 e0       	ldi	r16, 0x00	; 0
    38fc:	10 e0       	ldi	r17, 0x00	; 0
    38fe:	0d c0       	rjmp	.+26     	; 0x391a <_ZN7TwoWire5writeEPKhj+0x42>
    3900:	d7 01       	movw	r26, r14
    3902:	6d 91       	ld	r22, X+
    3904:	7d 01       	movw	r14, r26
    3906:	d6 01       	movw	r26, r12
    3908:	ed 91       	ld	r30, X+
    390a:	fc 91       	ld	r31, X
    390c:	01 90       	ld	r0, Z+
    390e:	f0 81       	ld	r31, Z
    3910:	e0 2d       	mov	r30, r0
    3912:	c6 01       	movw	r24, r12
    3914:	09 95       	icall
    3916:	0f 5f       	subi	r16, 0xFF	; 255
    3918:	1f 4f       	sbci	r17, 0xFF	; 255
    391a:	0c 17       	cp	r16, r28
    391c:	1d 07       	cpc	r17, r29
    391e:	80 f3       	brcs	.-32     	; 0x3900 <_ZN7TwoWire5writeEPKhj+0x28>
    3920:	03 c0       	rjmp	.+6      	; 0x3928 <_ZN7TwoWire5writeEPKhj+0x50>
    3922:	64 2f       	mov	r22, r20
    3924:	0e 94 0f 1e 	call	0x3c1e	; 0x3c1e <twi_transmit>
    3928:	ce 01       	movw	r24, r28
    392a:	df 91       	pop	r29
    392c:	cf 91       	pop	r28
    392e:	1f 91       	pop	r17
    3930:	0f 91       	pop	r16
    3932:	ff 90       	pop	r15
    3934:	ef 90       	pop	r14
    3936:	df 90       	pop	r13
    3938:	cf 90       	pop	r12
    393a:	08 95       	ret

0000393c <_ZN7TwoWire5writeEh>:
    393c:	df 93       	push	r29
    393e:	cf 93       	push	r28
    3940:	0f 92       	push	r0
    3942:	cd b7       	in	r28, 0x3d	; 61
    3944:	de b7       	in	r29, 0x3e	; 62
    3946:	69 83       	std	Y+1, r22	; 0x01
    3948:	20 91 12 04 	lds	r18, 0x0412
    394c:	22 23       	and	r18, r18
    394e:	d1 f0       	breq	.+52     	; 0x3984 <_ZN7TwoWire5writeEh+0x48>
    3950:	20 91 11 04 	lds	r18, 0x0411
    3954:	20 32       	cpi	r18, 0x20	; 32
    3956:	40 f0       	brcs	.+16     	; 0x3968 <_ZN7TwoWire5writeEh+0x2c>
  private:
    int write_error;
    size_t printNumber(unsigned long, uint8_t);
    size_t printFloat(double, uint8_t);
  protected:
    void setWriteError(int err = 1) { write_error = err; }
    3958:	21 e0       	ldi	r18, 0x01	; 1
    395a:	30 e0       	ldi	r19, 0x00	; 0
    395c:	fc 01       	movw	r30, r24
    395e:	33 83       	std	Z+3, r19	; 0x03
    3960:	22 83       	std	Z+2, r18	; 0x02
    3962:	20 e0       	ldi	r18, 0x00	; 0
    3964:	30 e0       	ldi	r19, 0x00	; 0
    3966:	15 c0       	rjmp	.+42     	; 0x3992 <_ZN7TwoWire5writeEh+0x56>
    3968:	80 91 10 04 	lds	r24, 0x0410
    396c:	e8 2f       	mov	r30, r24
    396e:	f0 e0       	ldi	r31, 0x00	; 0
    3970:	e0 51       	subi	r30, 0x10	; 16
    3972:	fc 4f       	sbci	r31, 0xFC	; 252
    3974:	99 81       	ldd	r25, Y+1	; 0x01
    3976:	90 83       	st	Z, r25
    3978:	8f 5f       	subi	r24, 0xFF	; 255
    397a:	80 93 10 04 	sts	0x0410, r24
    397e:	80 93 11 04 	sts	0x0411, r24
    3982:	05 c0       	rjmp	.+10     	; 0x398e <_ZN7TwoWire5writeEh+0x52>
    3984:	ce 01       	movw	r24, r28
    3986:	01 96       	adiw	r24, 0x01	; 1
    3988:	61 e0       	ldi	r22, 0x01	; 1
    398a:	0e 94 0f 1e 	call	0x3c1e	; 0x3c1e <twi_transmit>
    398e:	21 e0       	ldi	r18, 0x01	; 1
    3990:	30 e0       	ldi	r19, 0x00	; 0
    3992:	c9 01       	movw	r24, r18
    3994:	0f 90       	pop	r0
    3996:	cf 91       	pop	r28
    3998:	df 91       	pop	r29
    399a:	08 95       	ret

0000399c <_ZN7TwoWireC1Ev>:
    399c:	fc 01       	movw	r30, r24
  public:
    Print() : write_error(0) {}
    399e:	13 82       	std	Z+3, r1	; 0x03
    39a0:	12 82       	std	Z+2, r1	; 0x02
    virtual int available() = 0;
    virtual int read() = 0;
    virtual int peek() = 0;
    virtual void flush() = 0;

    Stream() {_timeout=1000;}
    39a2:	28 ee       	ldi	r18, 0xE8	; 232
    39a4:	33 e0       	ldi	r19, 0x03	; 3
    39a6:	40 e0       	ldi	r20, 0x00	; 0
    39a8:	50 e0       	ldi	r21, 0x00	; 0
    39aa:	24 83       	std	Z+4, r18	; 0x04
    39ac:	35 83       	std	Z+5, r19	; 0x05
    39ae:	46 83       	std	Z+6, r20	; 0x06
    39b0:	57 83       	std	Z+7, r21	; 0x07
    39b2:	87 ec       	ldi	r24, 0xC7	; 199
    39b4:	91 e0       	ldi	r25, 0x01	; 1
    39b6:	91 83       	std	Z+1, r25	; 0x01
    39b8:	80 83       	st	Z, r24
    39ba:	08 95       	ret

000039bc <_ZN7TwoWire5beginEv>:
    39bc:	10 92 ed 03 	sts	0x03ED, r1
    39c0:	10 92 ee 03 	sts	0x03EE, r1
    39c4:	10 92 10 04 	sts	0x0410, r1
    39c8:	10 92 11 04 	sts	0x0411, r1
    39cc:	0e 94 5d 1d 	call	0x3aba	; 0x3aba <twi_init>
    39d0:	08 95       	ret

000039d2 <_ZN7TwoWire5beginEh>:
    39d2:	cf 93       	push	r28
    39d4:	df 93       	push	r29
    39d6:	ec 01       	movw	r28, r24
    39d8:	86 2f       	mov	r24, r22
    39da:	0e 94 73 1d 	call	0x3ae6	; 0x3ae6 <twi_setAddress>
    39de:	80 e6       	ldi	r24, 0x60	; 96
    39e0:	9c e1       	ldi	r25, 0x1C	; 28
    39e2:	0e 94 2e 1e 	call	0x3c5c	; 0x3c5c <twi_attachSlaveTxEvent>
    39e6:	88 e3       	ldi	r24, 0x38	; 56
    39e8:	9c e1       	ldi	r25, 0x1C	; 28
    39ea:	0e 94 29 1e 	call	0x3c52	; 0x3c52 <twi_attachSlaveRxEvent>
    39ee:	ce 01       	movw	r24, r28
    39f0:	0e 94 de 1c 	call	0x39bc	; 0x39bc <_ZN7TwoWire5beginEv>
    39f4:	df 91       	pop	r29
    39f6:	cf 91       	pop	r28
    39f8:	08 95       	ret

000039fa <_ZN7TwoWire5beginEi>:
    39fa:	0e 94 e9 1c 	call	0x39d2	; 0x39d2 <_ZN7TwoWire5beginEh>
    39fe:	08 95       	ret

00003a00 <_ZN7TwoWire11requestFromEhhh>:
    3a00:	86 2f       	mov	r24, r22
    3a02:	41 32       	cpi	r20, 0x21	; 33
    3a04:	08 f0       	brcs	.+2      	; 0x3a08 <_ZN7TwoWire11requestFromEhhh+0x8>
    3a06:	40 e2       	ldi	r20, 0x20	; 32
    3a08:	6d ec       	ldi	r22, 0xCD	; 205
    3a0a:	73 e0       	ldi	r23, 0x03	; 3
    3a0c:	0e 94 76 1d 	call	0x3aec	; 0x3aec <twi_readFrom>
    3a10:	10 92 ed 03 	sts	0x03ED, r1
    3a14:	80 93 ee 03 	sts	0x03EE, r24
    3a18:	08 95       	ret

00003a1a <_ZN7TwoWire11requestFromEhh>:
    3a1a:	21 e0       	ldi	r18, 0x01	; 1
    3a1c:	0e 94 00 1d 	call	0x3a00	; 0x3a00 <_ZN7TwoWire11requestFromEhhh>
    3a20:	08 95       	ret

00003a22 <_ZN7TwoWire11requestFromEii>:
    3a22:	21 e0       	ldi	r18, 0x01	; 1
    3a24:	0e 94 00 1d 	call	0x3a00	; 0x3a00 <_ZN7TwoWire11requestFromEhhh>
    3a28:	08 95       	ret

00003a2a <_ZN7TwoWire11requestFromEiii>:
    3a2a:	0e 94 00 1d 	call	0x3a00	; 0x3a00 <_ZN7TwoWire11requestFromEhhh>
    3a2e:	08 95       	ret

00003a30 <_ZN7TwoWire17beginTransmissionEh>:
    3a30:	81 e0       	ldi	r24, 0x01	; 1
    3a32:	80 93 12 04 	sts	0x0412, r24
    3a36:	60 93 ef 03 	sts	0x03EF, r22
    3a3a:	10 92 10 04 	sts	0x0410, r1
    3a3e:	10 92 11 04 	sts	0x0411, r1
    3a42:	08 95       	ret

00003a44 <_ZN7TwoWire17beginTransmissionEi>:
    3a44:	0e 94 18 1d 	call	0x3a30	; 0x3a30 <_ZN7TwoWire17beginTransmissionEh>
    3a48:	08 95       	ret

00003a4a <_ZN7TwoWire15endTransmissionEh>:
    3a4a:	0f 93       	push	r16
    3a4c:	06 2f       	mov	r16, r22
    3a4e:	80 91 ef 03 	lds	r24, 0x03EF
    3a52:	60 ef       	ldi	r22, 0xF0	; 240
    3a54:	73 e0       	ldi	r23, 0x03	; 3
    3a56:	40 91 11 04 	lds	r20, 0x0411
    3a5a:	21 e0       	ldi	r18, 0x01	; 1
    3a5c:	0e 94 bd 1d 	call	0x3b7a	; 0x3b7a <twi_writeTo>
    3a60:	10 92 10 04 	sts	0x0410, r1
    3a64:	10 92 11 04 	sts	0x0411, r1
    3a68:	10 92 12 04 	sts	0x0412, r1
    3a6c:	0f 91       	pop	r16
    3a6e:	08 95       	ret

00003a70 <_ZN7TwoWire15endTransmissionEv>:
    3a70:	61 e0       	ldi	r22, 0x01	; 1
    3a72:	0e 94 25 1d 	call	0x3a4a	; 0x3a4a <_ZN7TwoWire15endTransmissionEh>
    3a76:	08 95       	ret

00003a78 <_ZN7TwoWire9onReceiveEPFviE>:
    3a78:	70 93 16 04 	sts	0x0416, r23
    3a7c:	60 93 15 04 	sts	0x0415, r22
    3a80:	08 95       	ret

00003a82 <_ZN7TwoWire9onRequestEPFvvE>:
    3a82:	70 93 14 04 	sts	0x0414, r23
    3a86:	60 93 13 04 	sts	0x0413, r22
    3a8a:	08 95       	ret

00003a8c <_GLOBAL__I__ZN7TwoWire8rxBufferE>:
    3a8c:	10 92 1a 04 	sts	0x041A, r1
    3a90:	10 92 19 04 	sts	0x0419, r1
    3a94:	88 ee       	ldi	r24, 0xE8	; 232
    3a96:	93 e0       	ldi	r25, 0x03	; 3
    3a98:	a0 e0       	ldi	r26, 0x00	; 0
    3a9a:	b0 e0       	ldi	r27, 0x00	; 0
    3a9c:	80 93 1b 04 	sts	0x041B, r24
    3aa0:	90 93 1c 04 	sts	0x041C, r25
    3aa4:	a0 93 1d 04 	sts	0x041D, r26
    3aa8:	b0 93 1e 04 	sts	0x041E, r27
    3aac:	87 ec       	ldi	r24, 0xC7	; 199
    3aae:	91 e0       	ldi	r25, 0x01	; 1
    3ab0:	90 93 18 04 	sts	0x0418, r25
    3ab4:	80 93 17 04 	sts	0x0417, r24
    3ab8:	08 95       	ret

00003aba <twi_init>:
    3aba:	10 92 48 04 	sts	0x0448, r1
    3abe:	81 e0       	ldi	r24, 0x01	; 1
    3ac0:	80 93 46 04 	sts	0x0446, r24
    3ac4:	10 92 47 04 	sts	0x0447, r1
    3ac8:	82 e1       	ldi	r24, 0x12	; 18
    3aca:	61 e0       	ldi	r22, 0x01	; 1
    3acc:	0e 94 a8 1b 	call	0x3750	; 0x3750 <digitalWrite>
    3ad0:	83 e1       	ldi	r24, 0x13	; 19
    3ad2:	61 e0       	ldi	r22, 0x01	; 1
    3ad4:	0e 94 a8 1b 	call	0x3750	; 0x3750 <digitalWrite>
    3ad8:	08 98       	cbi	0x01, 0	; 1
    3ada:	09 98       	cbi	0x01, 1	; 1
    3adc:	8d ef       	ldi	r24, 0xFD	; 253
    3ade:	80 b9       	out	0x00, r24	; 0
    3ae0:	85 e4       	ldi	r24, 0x45	; 69
    3ae2:	86 bf       	out	0x36, r24	; 54
    3ae4:	08 95       	ret

00003ae6 <twi_setAddress>:
    3ae6:	88 0f       	add	r24, r24
    3ae8:	82 b9       	out	0x02, r24	; 2
    3aea:	08 95       	ret

00003aec <twi_readFrom>:
    3aec:	41 32       	cpi	r20, 0x21	; 33
    3aee:	08 f0       	brcs	.+2      	; 0x3af2 <twi_readFrom+0x6>
    3af0:	41 c0       	rjmp	.+130    	; 0x3b74 <twi_readFrom+0x88>
    3af2:	90 91 48 04 	lds	r25, 0x0448
    3af6:	99 23       	and	r25, r25
    3af8:	e1 f7       	brne	.-8      	; 0x3af2 <twi_readFrom+0x6>
    3afa:	91 e0       	ldi	r25, 0x01	; 1
    3afc:	90 93 48 04 	sts	0x0448, r25
    3b00:	20 93 46 04 	sts	0x0446, r18
    3b04:	2f ef       	ldi	r18, 0xFF	; 255
    3b06:	20 93 49 04 	sts	0x0449, r18
    3b0a:	10 92 24 04 	sts	0x0424, r1
    3b0e:	24 2f       	mov	r18, r20
    3b10:	21 50       	subi	r18, 0x01	; 1
    3b12:	20 93 25 04 	sts	0x0425, r18
    3b16:	90 93 23 04 	sts	0x0423, r25
    3b1a:	90 91 23 04 	lds	r25, 0x0423
    3b1e:	88 0f       	add	r24, r24
    3b20:	89 2b       	or	r24, r25
    3b22:	80 93 23 04 	sts	0x0423, r24
    3b26:	80 91 47 04 	lds	r24, 0x0447
    3b2a:	81 30       	cpi	r24, 0x01	; 1
    3b2c:	39 f4       	brne	.+14     	; 0x3b3c <twi_readFrom+0x50>
    3b2e:	10 92 47 04 	sts	0x0447, r1
    3b32:	80 91 23 04 	lds	r24, 0x0423
    3b36:	83 b9       	out	0x03, r24	; 3
    3b38:	85 ec       	ldi	r24, 0xC5	; 197
    3b3a:	01 c0       	rjmp	.+2      	; 0x3b3e <twi_readFrom+0x52>
    3b3c:	85 ee       	ldi	r24, 0xE5	; 229
    3b3e:	86 bf       	out	0x36, r24	; 54
    3b40:	80 91 48 04 	lds	r24, 0x0448
    3b44:	81 30       	cpi	r24, 0x01	; 1
    3b46:	e1 f3       	breq	.-8      	; 0x3b40 <twi_readFrom+0x54>
    3b48:	80 91 24 04 	lds	r24, 0x0424
    3b4c:	84 17       	cp	r24, r20
    3b4e:	10 f4       	brcc	.+4      	; 0x3b54 <twi_readFrom+0x68>
    3b50:	40 91 24 04 	lds	r20, 0x0424
    3b54:	e6 e2       	ldi	r30, 0x26	; 38
    3b56:	f4 e0       	ldi	r31, 0x04	; 4
    3b58:	26 2f       	mov	r18, r22
    3b5a:	37 2f       	mov	r19, r23
    3b5c:	d9 01       	movw	r26, r18
    3b5e:	24 2f       	mov	r18, r20
    3b60:	30 e0       	ldi	r19, 0x00	; 0
    3b62:	2e 0f       	add	r18, r30
    3b64:	3f 1f       	adc	r19, r31
    3b66:	02 c0       	rjmp	.+4      	; 0x3b6c <twi_readFrom+0x80>
    3b68:	81 91       	ld	r24, Z+
    3b6a:	8d 93       	st	X+, r24
    3b6c:	e2 17       	cp	r30, r18
    3b6e:	f3 07       	cpc	r31, r19
    3b70:	d9 f7       	brne	.-10     	; 0x3b68 <twi_readFrom+0x7c>
    3b72:	01 c0       	rjmp	.+2      	; 0x3b76 <twi_readFrom+0x8a>
    3b74:	40 e0       	ldi	r20, 0x00	; 0
    3b76:	84 2f       	mov	r24, r20
    3b78:	08 95       	ret

00003b7a <twi_writeTo>:
    3b7a:	0f 93       	push	r16
    3b7c:	41 32       	cpi	r20, 0x21	; 33
    3b7e:	08 f0       	brcs	.+2      	; 0x3b82 <twi_writeTo+0x8>
    3b80:	45 c0       	rjmp	.+138    	; 0x3c0c <twi_writeTo+0x92>
    3b82:	90 91 48 04 	lds	r25, 0x0448
    3b86:	99 23       	and	r25, r25
    3b88:	e1 f7       	brne	.-8      	; 0x3b82 <twi_writeTo+0x8>
    3b8a:	92 e0       	ldi	r25, 0x02	; 2
    3b8c:	90 93 48 04 	sts	0x0448, r25
    3b90:	00 93 46 04 	sts	0x0446, r16
    3b94:	9f ef       	ldi	r25, 0xFF	; 255
    3b96:	90 93 49 04 	sts	0x0449, r25
    3b9a:	10 92 24 04 	sts	0x0424, r1
    3b9e:	40 93 25 04 	sts	0x0425, r20
    3ba2:	db 01       	movw	r26, r22
    3ba4:	e6 e2       	ldi	r30, 0x26	; 38
    3ba6:	f4 e0       	ldi	r31, 0x04	; 4
    3ba8:	50 e0       	ldi	r21, 0x00	; 0
    3baa:	4e 0f       	add	r20, r30
    3bac:	5f 1f       	adc	r21, r31
    3bae:	02 c0       	rjmp	.+4      	; 0x3bb4 <twi_writeTo+0x3a>
    3bb0:	9d 91       	ld	r25, X+
    3bb2:	91 93       	st	Z+, r25
    3bb4:	e4 17       	cp	r30, r20
    3bb6:	f5 07       	cpc	r31, r21
    3bb8:	d9 f7       	brne	.-10     	; 0x3bb0 <twi_writeTo+0x36>
    3bba:	10 92 23 04 	sts	0x0423, r1
    3bbe:	90 91 23 04 	lds	r25, 0x0423
    3bc2:	88 0f       	add	r24, r24
    3bc4:	89 2b       	or	r24, r25
    3bc6:	80 93 23 04 	sts	0x0423, r24
    3bca:	80 91 47 04 	lds	r24, 0x0447
    3bce:	81 30       	cpi	r24, 0x01	; 1
    3bd0:	39 f4       	brne	.+14     	; 0x3be0 <twi_writeTo+0x66>
    3bd2:	10 92 47 04 	sts	0x0447, r1
    3bd6:	80 91 23 04 	lds	r24, 0x0423
    3bda:	83 b9       	out	0x03, r24	; 3
    3bdc:	85 ec       	ldi	r24, 0xC5	; 197
    3bde:	01 c0       	rjmp	.+2      	; 0x3be2 <twi_writeTo+0x68>
    3be0:	85 ee       	ldi	r24, 0xE5	; 229
    3be2:	86 bf       	out	0x36, r24	; 54
    3be4:	22 23       	and	r18, r18
    3be6:	21 f0       	breq	.+8      	; 0x3bf0 <twi_writeTo+0x76>
    3be8:	80 91 48 04 	lds	r24, 0x0448
    3bec:	82 30       	cpi	r24, 0x02	; 2
    3bee:	e1 f3       	breq	.-8      	; 0x3be8 <twi_writeTo+0x6e>
    3bf0:	80 91 49 04 	lds	r24, 0x0449
    3bf4:	8f 3f       	cpi	r24, 0xFF	; 255
    3bf6:	61 f0       	breq	.+24     	; 0x3c10 <twi_writeTo+0x96>
    3bf8:	80 91 49 04 	lds	r24, 0x0449
    3bfc:	80 32       	cpi	r24, 0x20	; 32
    3bfe:	51 f0       	breq	.+20     	; 0x3c14 <twi_writeTo+0x9a>
    3c00:	80 91 49 04 	lds	r24, 0x0449
    3c04:	80 33       	cpi	r24, 0x30	; 48
    3c06:	41 f4       	brne	.+16     	; 0x3c18 <twi_writeTo+0x9e>
    3c08:	83 e0       	ldi	r24, 0x03	; 3
    3c0a:	07 c0       	rjmp	.+14     	; 0x3c1a <twi_writeTo+0xa0>
    3c0c:	81 e0       	ldi	r24, 0x01	; 1
    3c0e:	05 c0       	rjmp	.+10     	; 0x3c1a <twi_writeTo+0xa0>
    3c10:	80 e0       	ldi	r24, 0x00	; 0
    3c12:	03 c0       	rjmp	.+6      	; 0x3c1a <twi_writeTo+0xa0>
    3c14:	82 e0       	ldi	r24, 0x02	; 2
    3c16:	01 c0       	rjmp	.+2      	; 0x3c1a <twi_writeTo+0xa0>
    3c18:	84 e0       	ldi	r24, 0x04	; 4
    3c1a:	0f 91       	pop	r16
    3c1c:	08 95       	ret

00003c1e <twi_transmit>:
    3c1e:	61 32       	cpi	r22, 0x21	; 33
    3c20:	a0 f4       	brcc	.+40     	; 0x3c4a <twi_transmit+0x2c>
    3c22:	20 91 48 04 	lds	r18, 0x0448
    3c26:	24 30       	cpi	r18, 0x04	; 4
    3c28:	91 f4       	brne	.+36     	; 0x3c4e <twi_transmit+0x30>
    3c2a:	60 93 6e 04 	sts	0x046E, r22
    3c2e:	dc 01       	movw	r26, r24
    3c30:	e1 e7       	ldi	r30, 0x71	; 113
    3c32:	f4 e0       	ldi	r31, 0x04	; 4
    3c34:	70 e0       	ldi	r23, 0x00	; 0
    3c36:	6e 0f       	add	r22, r30
    3c38:	7f 1f       	adc	r23, r31
    3c3a:	02 c0       	rjmp	.+4      	; 0x3c40 <twi_transmit+0x22>
    3c3c:	8d 91       	ld	r24, X+
    3c3e:	81 93       	st	Z+, r24
    3c40:	e6 17       	cp	r30, r22
    3c42:	f7 07       	cpc	r31, r23
    3c44:	d9 f7       	brne	.-10     	; 0x3c3c <twi_transmit+0x1e>
    3c46:	80 e0       	ldi	r24, 0x00	; 0
    3c48:	08 95       	ret
    3c4a:	81 e0       	ldi	r24, 0x01	; 1
    3c4c:	08 95       	ret
    3c4e:	82 e0       	ldi	r24, 0x02	; 2
    3c50:	08 95       	ret

00003c52 <twi_attachSlaveRxEvent>:
    3c52:	90 93 6c 04 	sts	0x046C, r25
    3c56:	80 93 6b 04 	sts	0x046B, r24
    3c5a:	08 95       	ret

00003c5c <twi_attachSlaveTxEvent>:
    3c5c:	90 93 70 04 	sts	0x0470, r25
    3c60:	80 93 6f 04 	sts	0x046F, r24
    3c64:	08 95       	ret

00003c66 <twi_reply>:
    3c66:	88 23       	and	r24, r24
    3c68:	11 f0       	breq	.+4      	; 0x3c6e <twi_reply+0x8>
    3c6a:	85 ec       	ldi	r24, 0xC5	; 197
    3c6c:	01 c0       	rjmp	.+2      	; 0x3c70 <twi_reply+0xa>
    3c6e:	85 e8       	ldi	r24, 0x85	; 133
    3c70:	86 bf       	out	0x36, r24	; 54
    3c72:	08 95       	ret

00003c74 <twi_stop>:
    3c74:	85 ed       	ldi	r24, 0xD5	; 213
    3c76:	86 bf       	out	0x36, r24	; 54
    3c78:	06 b6       	in	r0, 0x36	; 54
    3c7a:	04 fc       	sbrc	r0, 4
    3c7c:	fd cf       	rjmp	.-6      	; 0x3c78 <twi_stop+0x4>
    3c7e:	10 92 48 04 	sts	0x0448, r1
    3c82:	08 95       	ret

00003c84 <twi_releaseBus>:
    3c84:	85 ec       	ldi	r24, 0xC5	; 197
    3c86:	86 bf       	out	0x36, r24	; 54
    3c88:	10 92 48 04 	sts	0x0448, r1
    3c8c:	08 95       	ret

00003c8e <__vector_17>:
    3c8e:	1f 92       	push	r1
    3c90:	0f 92       	push	r0
    3c92:	0f b6       	in	r0, 0x3f	; 63
    3c94:	0f 92       	push	r0
    3c96:	11 24       	eor	r1, r1
    3c98:	2f 93       	push	r18
    3c9a:	3f 93       	push	r19
    3c9c:	4f 93       	push	r20
    3c9e:	5f 93       	push	r21
    3ca0:	6f 93       	push	r22
    3ca2:	7f 93       	push	r23
    3ca4:	8f 93       	push	r24
    3ca6:	9f 93       	push	r25
    3ca8:	af 93       	push	r26
    3caa:	bf 93       	push	r27
    3cac:	ef 93       	push	r30
    3cae:	ff 93       	push	r31
    3cb0:	81 b1       	in	r24, 0x01	; 1
    3cb2:	90 e0       	ldi	r25, 0x00	; 0
    3cb4:	88 7f       	andi	r24, 0xF8	; 248
    3cb6:	90 70       	andi	r25, 0x00	; 0
    3cb8:	80 36       	cpi	r24, 0x60	; 96
    3cba:	91 05       	cpc	r25, r1
    3cbc:	09 f4       	brne	.+2      	; 0x3cc0 <__vector_17+0x32>
    3cbe:	c7 c0       	rjmp	.+398    	; 0x3e4e <__vector_17+0x1c0>
    3cc0:	81 36       	cpi	r24, 0x61	; 97
    3cc2:	91 05       	cpc	r25, r1
    3cc4:	e4 f5       	brge	.+120    	; 0x3d3e <__vector_17+0xb0>
    3cc6:	88 32       	cpi	r24, 0x28	; 40
    3cc8:	91 05       	cpc	r25, r1
    3cca:	09 f4       	brne	.+2      	; 0x3cce <__vector_17+0x40>
    3ccc:	7d c0       	rjmp	.+250    	; 0x3dc8 <__vector_17+0x13a>
    3cce:	89 32       	cpi	r24, 0x29	; 41
    3cd0:	91 05       	cpc	r25, r1
    3cd2:	c4 f4       	brge	.+48     	; 0x3d04 <__vector_17+0x76>
    3cd4:	80 31       	cpi	r24, 0x10	; 16
    3cd6:	91 05       	cpc	r25, r1
    3cd8:	09 f4       	brne	.+2      	; 0x3cdc <__vector_17+0x4e>
    3cda:	72 c0       	rjmp	.+228    	; 0x3dc0 <__vector_17+0x132>
    3cdc:	81 31       	cpi	r24, 0x11	; 17
    3cde:	91 05       	cpc	r25, r1
    3ce0:	44 f4       	brge	.+16     	; 0x3cf2 <__vector_17+0x64>
    3ce2:	00 97       	sbiw	r24, 0x00	; 0
    3ce4:	09 f4       	brne	.+2      	; 0x3ce8 <__vector_17+0x5a>
    3ce6:	16 c1       	rjmp	.+556    	; 0x3f14 <__vector_17+0x286>
    3ce8:	88 30       	cpi	r24, 0x08	; 8
    3cea:	91 05       	cpc	r25, r1
    3cec:	09 f0       	breq	.+2      	; 0x3cf0 <__vector_17+0x62>
    3cee:	16 c1       	rjmp	.+556    	; 0x3f1c <__vector_17+0x28e>
    3cf0:	67 c0       	rjmp	.+206    	; 0x3dc0 <__vector_17+0x132>
    3cf2:	88 31       	cpi	r24, 0x18	; 24
    3cf4:	91 05       	cpc	r25, r1
    3cf6:	09 f4       	brne	.+2      	; 0x3cfa <__vector_17+0x6c>
    3cf8:	67 c0       	rjmp	.+206    	; 0x3dc8 <__vector_17+0x13a>
    3cfa:	80 32       	cpi	r24, 0x20	; 32
    3cfc:	91 05       	cpc	r25, r1
    3cfe:	09 f0       	breq	.+2      	; 0x3d02 <__vector_17+0x74>
    3d00:	0d c1       	rjmp	.+538    	; 0x3f1c <__vector_17+0x28e>
    3d02:	75 c0       	rjmp	.+234    	; 0x3dee <__vector_17+0x160>
    3d04:	80 34       	cpi	r24, 0x40	; 64
    3d06:	91 05       	cpc	r25, r1
    3d08:	09 f4       	brne	.+2      	; 0x3d0c <__vector_17+0x7e>
    3d0a:	86 c0       	rjmp	.+268    	; 0x3e18 <__vector_17+0x18a>
    3d0c:	81 34       	cpi	r24, 0x41	; 65
    3d0e:	91 05       	cpc	r25, r1
    3d10:	4c f4       	brge	.+18     	; 0x3d24 <__vector_17+0x96>
    3d12:	80 33       	cpi	r24, 0x30	; 48
    3d14:	91 05       	cpc	r25, r1
    3d16:	09 f4       	brne	.+2      	; 0x3d1a <__vector_17+0x8c>
    3d18:	6c c0       	rjmp	.+216    	; 0x3df2 <__vector_17+0x164>
    3d1a:	88 33       	cpi	r24, 0x38	; 56
    3d1c:	91 05       	cpc	r25, r1
    3d1e:	09 f0       	breq	.+2      	; 0x3d22 <__vector_17+0x94>
    3d20:	fd c0       	rjmp	.+506    	; 0x3f1c <__vector_17+0x28e>
    3d22:	6b c0       	rjmp	.+214    	; 0x3dfa <__vector_17+0x16c>
    3d24:	80 35       	cpi	r24, 0x50	; 80
    3d26:	91 05       	cpc	r25, r1
    3d28:	09 f4       	brne	.+2      	; 0x3d2c <__vector_17+0x9e>
    3d2a:	6b c0       	rjmp	.+214    	; 0x3e02 <__vector_17+0x174>
    3d2c:	88 35       	cpi	r24, 0x58	; 88
    3d2e:	91 05       	cpc	r25, r1
    3d30:	09 f4       	brne	.+2      	; 0x3d34 <__vector_17+0xa6>
    3d32:	77 c0       	rjmp	.+238    	; 0x3e22 <__vector_17+0x194>
    3d34:	88 34       	cpi	r24, 0x48	; 72
    3d36:	91 05       	cpc	r25, r1
    3d38:	09 f0       	breq	.+2      	; 0x3d3c <__vector_17+0xae>
    3d3a:	f0 c0       	rjmp	.+480    	; 0x3f1c <__vector_17+0x28e>
    3d3c:	ed c0       	rjmp	.+474    	; 0x3f18 <__vector_17+0x28a>
    3d3e:	88 39       	cpi	r24, 0x98	; 152
    3d40:	91 05       	cpc	r25, r1
    3d42:	09 f4       	brne	.+2      	; 0x3d46 <__vector_17+0xb8>
    3d44:	dd c0       	rjmp	.+442    	; 0x3f00 <__vector_17+0x272>
    3d46:	89 39       	cpi	r24, 0x99	; 153
    3d48:	91 05       	cpc	r25, r1
    3d4a:	ec f4       	brge	.+58     	; 0x3d86 <__vector_17+0xf8>
    3d4c:	88 37       	cpi	r24, 0x78	; 120
    3d4e:	91 05       	cpc	r25, r1
    3d50:	09 f4       	brne	.+2      	; 0x3d54 <__vector_17+0xc6>
    3d52:	7d c0       	rjmp	.+250    	; 0x3e4e <__vector_17+0x1c0>
    3d54:	89 37       	cpi	r24, 0x79	; 121
    3d56:	91 05       	cpc	r25, r1
    3d58:	4c f4       	brge	.+18     	; 0x3d6c <__vector_17+0xde>
    3d5a:	88 36       	cpi	r24, 0x68	; 104
    3d5c:	91 05       	cpc	r25, r1
    3d5e:	09 f4       	brne	.+2      	; 0x3d62 <__vector_17+0xd4>
    3d60:	76 c0       	rjmp	.+236    	; 0x3e4e <__vector_17+0x1c0>
    3d62:	80 37       	cpi	r24, 0x70	; 112
    3d64:	91 05       	cpc	r25, r1
    3d66:	09 f0       	breq	.+2      	; 0x3d6a <__vector_17+0xdc>
    3d68:	d9 c0       	rjmp	.+434    	; 0x3f1c <__vector_17+0x28e>
    3d6a:	71 c0       	rjmp	.+226    	; 0x3e4e <__vector_17+0x1c0>
    3d6c:	88 38       	cpi	r24, 0x88	; 136
    3d6e:	91 05       	cpc	r25, r1
    3d70:	09 f4       	brne	.+2      	; 0x3d74 <__vector_17+0xe6>
    3d72:	c6 c0       	rjmp	.+396    	; 0x3f00 <__vector_17+0x272>
    3d74:	80 39       	cpi	r24, 0x90	; 144
    3d76:	91 05       	cpc	r25, r1
    3d78:	09 f4       	brne	.+2      	; 0x3d7c <__vector_17+0xee>
    3d7a:	6f c0       	rjmp	.+222    	; 0x3e5a <__vector_17+0x1cc>
    3d7c:	80 38       	cpi	r24, 0x80	; 128
    3d7e:	91 05       	cpc	r25, r1
    3d80:	09 f0       	breq	.+2      	; 0x3d84 <__vector_17+0xf6>
    3d82:	cc c0       	rjmp	.+408    	; 0x3f1c <__vector_17+0x28e>
    3d84:	6a c0       	rjmp	.+212    	; 0x3e5a <__vector_17+0x1cc>
    3d86:	80 3b       	cpi	r24, 0xB0	; 176
    3d88:	91 05       	cpc	r25, r1
    3d8a:	09 f4       	brne	.+2      	; 0x3d8e <__vector_17+0x100>
    3d8c:	92 c0       	rjmp	.+292    	; 0x3eb2 <__vector_17+0x224>
    3d8e:	81 3b       	cpi	r24, 0xB1	; 177
    3d90:	91 05       	cpc	r25, r1
    3d92:	4c f4       	brge	.+18     	; 0x3da6 <__vector_17+0x118>
    3d94:	80 3a       	cpi	r24, 0xA0	; 160
    3d96:	91 05       	cpc	r25, r1
    3d98:	09 f4       	brne	.+2      	; 0x3d9c <__vector_17+0x10e>
    3d9a:	70 c0       	rjmp	.+224    	; 0x3e7c <__vector_17+0x1ee>
    3d9c:	88 3a       	cpi	r24, 0xA8	; 168
    3d9e:	91 05       	cpc	r25, r1
    3da0:	09 f0       	breq	.+2      	; 0x3da4 <__vector_17+0x116>
    3da2:	bc c0       	rjmp	.+376    	; 0x3f1c <__vector_17+0x28e>
    3da4:	86 c0       	rjmp	.+268    	; 0x3eb2 <__vector_17+0x224>
    3da6:	80 3c       	cpi	r24, 0xC0	; 192
    3da8:	91 05       	cpc	r25, r1
    3daa:	09 f4       	brne	.+2      	; 0x3dae <__vector_17+0x120>
    3dac:	ad c0       	rjmp	.+346    	; 0x3f08 <__vector_17+0x27a>
    3dae:	88 3c       	cpi	r24, 0xC8	; 200
    3db0:	91 05       	cpc	r25, r1
    3db2:	09 f4       	brne	.+2      	; 0x3db6 <__vector_17+0x128>
    3db4:	a9 c0       	rjmp	.+338    	; 0x3f08 <__vector_17+0x27a>
    3db6:	88 3b       	cpi	r24, 0xB8	; 184
    3db8:	91 05       	cpc	r25, r1
    3dba:	09 f0       	breq	.+2      	; 0x3dbe <__vector_17+0x130>
    3dbc:	af c0       	rjmp	.+350    	; 0x3f1c <__vector_17+0x28e>
    3dbe:	8e c0       	rjmp	.+284    	; 0x3edc <__vector_17+0x24e>
    3dc0:	80 91 23 04 	lds	r24, 0x0423
    3dc4:	83 b9       	out	0x03, r24	; 3
    3dc6:	11 c0       	rjmp	.+34     	; 0x3dea <__vector_17+0x15c>
    3dc8:	90 91 24 04 	lds	r25, 0x0424
    3dcc:	80 91 25 04 	lds	r24, 0x0425
    3dd0:	98 17       	cp	r25, r24
    3dd2:	90 f5       	brcc	.+100    	; 0x3e38 <__vector_17+0x1aa>
    3dd4:	80 91 24 04 	lds	r24, 0x0424
    3dd8:	e8 2f       	mov	r30, r24
    3dda:	f0 e0       	ldi	r31, 0x00	; 0
    3ddc:	ea 5d       	subi	r30, 0xDA	; 218
    3dde:	fb 4f       	sbci	r31, 0xFB	; 251
    3de0:	90 81       	ld	r25, Z
    3de2:	93 b9       	out	0x03, r25	; 3
    3de4:	8f 5f       	subi	r24, 0xFF	; 255
    3de6:	80 93 24 04 	sts	0x0424, r24
    3dea:	81 e0       	ldi	r24, 0x01	; 1
    3dec:	8a c0       	rjmp	.+276    	; 0x3f02 <__vector_17+0x274>
    3dee:	80 e2       	ldi	r24, 0x20	; 32
    3df0:	01 c0       	rjmp	.+2      	; 0x3df4 <__vector_17+0x166>
    3df2:	80 e3       	ldi	r24, 0x30	; 48
    3df4:	80 93 49 04 	sts	0x0449, r24
    3df8:	8f c0       	rjmp	.+286    	; 0x3f18 <__vector_17+0x28a>
    3dfa:	88 e3       	ldi	r24, 0x38	; 56
    3dfc:	80 93 49 04 	sts	0x0449, r24
    3e00:	55 c0       	rjmp	.+170    	; 0x3eac <__vector_17+0x21e>
    3e02:	80 91 24 04 	lds	r24, 0x0424
    3e06:	93 b1       	in	r25, 0x03	; 3
    3e08:	e8 2f       	mov	r30, r24
    3e0a:	f0 e0       	ldi	r31, 0x00	; 0
    3e0c:	ea 5d       	subi	r30, 0xDA	; 218
    3e0e:	fb 4f       	sbci	r31, 0xFB	; 251
    3e10:	90 83       	st	Z, r25
    3e12:	8f 5f       	subi	r24, 0xFF	; 255
    3e14:	80 93 24 04 	sts	0x0424, r24
    3e18:	90 91 24 04 	lds	r25, 0x0424
    3e1c:	80 91 25 04 	lds	r24, 0x0425
    3e20:	6c c0       	rjmp	.+216    	; 0x3efa <__vector_17+0x26c>
    3e22:	80 91 24 04 	lds	r24, 0x0424
    3e26:	93 b1       	in	r25, 0x03	; 3
    3e28:	e8 2f       	mov	r30, r24
    3e2a:	f0 e0       	ldi	r31, 0x00	; 0
    3e2c:	ea 5d       	subi	r30, 0xDA	; 218
    3e2e:	fb 4f       	sbci	r31, 0xFB	; 251
    3e30:	90 83       	st	Z, r25
    3e32:	8f 5f       	subi	r24, 0xFF	; 255
    3e34:	80 93 24 04 	sts	0x0424, r24
    3e38:	80 91 46 04 	lds	r24, 0x0446
    3e3c:	88 23       	and	r24, r24
    3e3e:	09 f0       	breq	.+2      	; 0x3e42 <__vector_17+0x1b4>
    3e40:	6b c0       	rjmp	.+214    	; 0x3f18 <__vector_17+0x28a>
    3e42:	81 e0       	ldi	r24, 0x01	; 1
    3e44:	80 93 47 04 	sts	0x0447, r24
    3e48:	84 ea       	ldi	r24, 0xA4	; 164
    3e4a:	86 bf       	out	0x36, r24	; 54
    3e4c:	60 c0       	rjmp	.+192    	; 0x3f0e <__vector_17+0x280>
    3e4e:	83 e0       	ldi	r24, 0x03	; 3
    3e50:	80 93 48 04 	sts	0x0448, r24
    3e54:	10 92 4a 04 	sts	0x044A, r1
    3e58:	c8 cf       	rjmp	.-112    	; 0x3dea <__vector_17+0x15c>
    3e5a:	80 91 4a 04 	lds	r24, 0x044A
    3e5e:	80 32       	cpi	r24, 0x20	; 32
    3e60:	08 f0       	brcs	.+2      	; 0x3e64 <__vector_17+0x1d6>
    3e62:	4e c0       	rjmp	.+156    	; 0x3f00 <__vector_17+0x272>
    3e64:	80 91 4a 04 	lds	r24, 0x044A
    3e68:	93 b1       	in	r25, 0x03	; 3
    3e6a:	e8 2f       	mov	r30, r24
    3e6c:	f0 e0       	ldi	r31, 0x00	; 0
    3e6e:	e5 5b       	subi	r30, 0xB5	; 181
    3e70:	fb 4f       	sbci	r31, 0xFB	; 251
    3e72:	90 83       	st	Z, r25
    3e74:	8f 5f       	subi	r24, 0xFF	; 255
    3e76:	80 93 4a 04 	sts	0x044A, r24
    3e7a:	b7 cf       	rjmp	.-146    	; 0x3dea <__vector_17+0x15c>
    3e7c:	80 91 4a 04 	lds	r24, 0x044A
    3e80:	80 32       	cpi	r24, 0x20	; 32
    3e82:	30 f4       	brcc	.+12     	; 0x3e90 <__vector_17+0x202>
    3e84:	e0 91 4a 04 	lds	r30, 0x044A
    3e88:	f0 e0       	ldi	r31, 0x00	; 0
    3e8a:	e5 5b       	subi	r30, 0xB5	; 181
    3e8c:	fb 4f       	sbci	r31, 0xFB	; 251
    3e8e:	10 82       	st	Z, r1
    3e90:	0e 94 3a 1e 	call	0x3c74	; 0x3c74 <twi_stop>
    3e94:	60 91 4a 04 	lds	r22, 0x044A
    3e98:	e0 91 6b 04 	lds	r30, 0x046B
    3e9c:	f0 91 6c 04 	lds	r31, 0x046C
    3ea0:	8b e4       	ldi	r24, 0x4B	; 75
    3ea2:	94 e0       	ldi	r25, 0x04	; 4
    3ea4:	70 e0       	ldi	r23, 0x00	; 0
    3ea6:	09 95       	icall
    3ea8:	10 92 4a 04 	sts	0x044A, r1
    3eac:	0e 94 42 1e 	call	0x3c84	; 0x3c84 <twi_releaseBus>
    3eb0:	35 c0       	rjmp	.+106    	; 0x3f1c <__vector_17+0x28e>
    3eb2:	84 e0       	ldi	r24, 0x04	; 4
    3eb4:	80 93 48 04 	sts	0x0448, r24
    3eb8:	10 92 6d 04 	sts	0x046D, r1
    3ebc:	10 92 6e 04 	sts	0x046E, r1
    3ec0:	e0 91 6f 04 	lds	r30, 0x046F
    3ec4:	f0 91 70 04 	lds	r31, 0x0470
    3ec8:	09 95       	icall
    3eca:	80 91 6e 04 	lds	r24, 0x046E
    3ece:	88 23       	and	r24, r24
    3ed0:	29 f4       	brne	.+10     	; 0x3edc <__vector_17+0x24e>
    3ed2:	81 e0       	ldi	r24, 0x01	; 1
    3ed4:	80 93 6e 04 	sts	0x046E, r24
    3ed8:	10 92 71 04 	sts	0x0471, r1
    3edc:	80 91 6d 04 	lds	r24, 0x046D
    3ee0:	e8 2f       	mov	r30, r24
    3ee2:	f0 e0       	ldi	r31, 0x00	; 0
    3ee4:	ef 58       	subi	r30, 0x8F	; 143
    3ee6:	fb 4f       	sbci	r31, 0xFB	; 251
    3ee8:	90 81       	ld	r25, Z
    3eea:	93 b9       	out	0x03, r25	; 3
    3eec:	8f 5f       	subi	r24, 0xFF	; 255
    3eee:	80 93 6d 04 	sts	0x046D, r24
    3ef2:	90 91 6d 04 	lds	r25, 0x046D
    3ef6:	80 91 6e 04 	lds	r24, 0x046E
    3efa:	98 17       	cp	r25, r24
    3efc:	08 f4       	brcc	.+2      	; 0x3f00 <__vector_17+0x272>
    3efe:	75 cf       	rjmp	.-278    	; 0x3dea <__vector_17+0x15c>
    3f00:	80 e0       	ldi	r24, 0x00	; 0
    3f02:	0e 94 33 1e 	call	0x3c66	; 0x3c66 <twi_reply>
    3f06:	0a c0       	rjmp	.+20     	; 0x3f1c <__vector_17+0x28e>
    3f08:	81 e0       	ldi	r24, 0x01	; 1
    3f0a:	0e 94 33 1e 	call	0x3c66	; 0x3c66 <twi_reply>
    3f0e:	10 92 48 04 	sts	0x0448, r1
    3f12:	04 c0       	rjmp	.+8      	; 0x3f1c <__vector_17+0x28e>
    3f14:	10 92 49 04 	sts	0x0449, r1
    3f18:	0e 94 3a 1e 	call	0x3c74	; 0x3c74 <twi_stop>
    3f1c:	ff 91       	pop	r31
    3f1e:	ef 91       	pop	r30
    3f20:	bf 91       	pop	r27
    3f22:	af 91       	pop	r26
    3f24:	9f 91       	pop	r25
    3f26:	8f 91       	pop	r24
    3f28:	7f 91       	pop	r23
    3f2a:	6f 91       	pop	r22
    3f2c:	5f 91       	pop	r21
    3f2e:	4f 91       	pop	r20
    3f30:	3f 91       	pop	r19
    3f32:	2f 91       	pop	r18
    3f34:	0f 90       	pop	r0
    3f36:	0f be       	out	0x3f, r0	; 63
    3f38:	0f 90       	pop	r0
    3f3a:	1f 90       	pop	r1
    3f3c:	18 95       	reti

00003f3e <_ZN7TwoWire5writeEi>:
    3f3e:	dc 01       	movw	r26, r24
    3f40:	ed 91       	ld	r30, X+
    3f42:	fc 91       	ld	r31, X
    3f44:	01 90       	ld	r0, Z+
    3f46:	f0 81       	ld	r31, Z
    3f48:	e0 2d       	mov	r30, r0
    3f4a:	09 95       	icall
    3f4c:	08 95       	ret

00003f4e <_ZN3L3G8writeRegEhh>:
    3f4e:	ef 92       	push	r14
    3f50:	ff 92       	push	r15
    3f52:	1f 93       	push	r17
    3f54:	df 93       	push	r29
    3f56:	cf 93       	push	r28
    3f58:	0f 92       	push	r0
    3f5a:	cd b7       	in	r28, 0x3d	; 61
    3f5c:	de b7       	in	r29, 0x3e	; 62
    3f5e:	fc 01       	movw	r30, r24
    3f60:	16 2f       	mov	r17, r22
    3f62:	87 e1       	ldi	r24, 0x17	; 23
    3f64:	e8 2e       	mov	r14, r24
    3f66:	84 e0       	ldi	r24, 0x04	; 4
    3f68:	f8 2e       	mov	r15, r24
    3f6a:	c7 01       	movw	r24, r14
    3f6c:	65 85       	ldd	r22, Z+13	; 0x0d
    3f6e:	49 83       	std	Y+1, r20	; 0x01
    3f70:	0e 94 18 1d 	call	0x3a30	; 0x3a30 <_ZN7TwoWire17beginTransmissionEh>
    3f74:	c7 01       	movw	r24, r14
    3f76:	61 2f       	mov	r22, r17
    3f78:	0e 94 9e 1c 	call	0x393c	; 0x393c <_ZN7TwoWire5writeEh>
    3f7c:	c7 01       	movw	r24, r14
    3f7e:	49 81       	ldd	r20, Y+1	; 0x01
    3f80:	64 2f       	mov	r22, r20
    3f82:	0e 94 9e 1c 	call	0x393c	; 0x393c <_ZN7TwoWire5writeEh>
    3f86:	c7 01       	movw	r24, r14
    3f88:	0e 94 38 1d 	call	0x3a70	; 0x3a70 <_ZN7TwoWire15endTransmissionEv>
    3f8c:	0f 90       	pop	r0
    3f8e:	cf 91       	pop	r28
    3f90:	df 91       	pop	r29
    3f92:	1f 91       	pop	r17
    3f94:	ff 90       	pop	r15
    3f96:	ef 90       	pop	r14
    3f98:	08 95       	ret

00003f9a <_ZN3L3G13enableDefaultEv>:
    3f9a:	60 e2       	ldi	r22, 0x20	; 32
    3f9c:	4f e0       	ldi	r20, 0x0F	; 15
    3f9e:	0e 94 a7 1f 	call	0x3f4e	; 0x3f4e <_ZN3L3G8writeRegEhh>
    3fa2:	08 95       	ret

00003fa4 <_ZN3L3G7readRegEh>:
    3fa4:	ff 92       	push	r15
    3fa6:	0f 93       	push	r16
    3fa8:	1f 93       	push	r17
    3faa:	cf 93       	push	r28
    3fac:	df 93       	push	r29
    3fae:	8c 01       	movw	r16, r24
    3fb0:	f6 2e       	mov	r15, r22
    3fb2:	c7 e1       	ldi	r28, 0x17	; 23
    3fb4:	d4 e0       	ldi	r29, 0x04	; 4
    3fb6:	ce 01       	movw	r24, r28
    3fb8:	f8 01       	movw	r30, r16
    3fba:	65 85       	ldd	r22, Z+13	; 0x0d
    3fbc:	0e 94 18 1d 	call	0x3a30	; 0x3a30 <_ZN7TwoWire17beginTransmissionEh>
    3fc0:	ce 01       	movw	r24, r28
    3fc2:	6f 2d       	mov	r22, r15
    3fc4:	0e 94 9e 1c 	call	0x393c	; 0x393c <_ZN7TwoWire5writeEh>
    3fc8:	ce 01       	movw	r24, r28
    3fca:	0e 94 38 1d 	call	0x3a70	; 0x3a70 <_ZN7TwoWire15endTransmissionEv>
    3fce:	ce 01       	movw	r24, r28
    3fd0:	f8 01       	movw	r30, r16
    3fd2:	65 85       	ldd	r22, Z+13	; 0x0d
    3fd4:	41 e0       	ldi	r20, 0x01	; 1
    3fd6:	0e 94 0d 1d 	call	0x3a1a	; 0x3a1a <_ZN7TwoWire11requestFromEhh>
    3fda:	ce 01       	movw	r24, r28
    3fdc:	0e 94 13 1c 	call	0x3826	; 0x3826 <_ZN7TwoWire4readEv>
    3fe0:	08 2f       	mov	r16, r24
    3fe2:	ce 01       	movw	r24, r28
    3fe4:	0e 94 38 1d 	call	0x3a70	; 0x3a70 <_ZN7TwoWire15endTransmissionEv>
    3fe8:	80 2f       	mov	r24, r16
    3fea:	df 91       	pop	r29
    3fec:	cf 91       	pop	r28
    3fee:	1f 91       	pop	r17
    3ff0:	0f 91       	pop	r16
    3ff2:	ff 90       	pop	r15
    3ff4:	08 95       	ret

00003ff6 <_ZN3L3G4readEv>:
    3ff6:	cf 92       	push	r12
    3ff8:	df 92       	push	r13
    3ffa:	ef 92       	push	r14
    3ffc:	ff 92       	push	r15
    3ffe:	0f 93       	push	r16
    4000:	1f 93       	push	r17
    4002:	cf 93       	push	r28
    4004:	df 93       	push	r29
    4006:	ec 01       	movw	r28, r24
    4008:	87 e1       	ldi	r24, 0x17	; 23
    400a:	94 e0       	ldi	r25, 0x04	; 4
    400c:	6d 85       	ldd	r22, Y+13	; 0x0d
    400e:	0e 94 18 1d 	call	0x3a30	; 0x3a30 <_ZN7TwoWire17beginTransmissionEh>
    4012:	87 e1       	ldi	r24, 0x17	; 23
    4014:	94 e0       	ldi	r25, 0x04	; 4
    4016:	68 ea       	ldi	r22, 0xA8	; 168
    4018:	70 e0       	ldi	r23, 0x00	; 0
    401a:	0e 94 9f 1f 	call	0x3f3e	; 0x3f3e <_ZN7TwoWire5writeEi>
    401e:	87 e1       	ldi	r24, 0x17	; 23
    4020:	94 e0       	ldi	r25, 0x04	; 4
    4022:	0e 94 38 1d 	call	0x3a70	; 0x3a70 <_ZN7TwoWire15endTransmissionEv>
    4026:	87 e1       	ldi	r24, 0x17	; 23
    4028:	94 e0       	ldi	r25, 0x04	; 4
    402a:	6d 85       	ldd	r22, Y+13	; 0x0d
    402c:	46 e0       	ldi	r20, 0x06	; 6
    402e:	0e 94 0d 1d 	call	0x3a1a	; 0x3a1a <_ZN7TwoWire11requestFromEhh>
    4032:	87 e1       	ldi	r24, 0x17	; 23
    4034:	94 e0       	ldi	r25, 0x04	; 4
    4036:	0e 94 0a 1c 	call	0x3814	; 0x3814 <_ZN7TwoWire9availableEv>
    403a:	86 30       	cpi	r24, 0x06	; 6
    403c:	91 05       	cpc	r25, r1
    403e:	cc f3       	brlt	.-14     	; 0x4032 <_ZN3L3G4readEv+0x3c>
    4040:	87 e1       	ldi	r24, 0x17	; 23
    4042:	94 e0       	ldi	r25, 0x04	; 4
    4044:	0e 94 13 1c 	call	0x3826	; 0x3826 <_ZN7TwoWire4readEv>
    4048:	d8 2e       	mov	r13, r24
    404a:	87 e1       	ldi	r24, 0x17	; 23
    404c:	94 e0       	ldi	r25, 0x04	; 4
    404e:	0e 94 13 1c 	call	0x3826	; 0x3826 <_ZN7TwoWire4readEv>
    4052:	c8 2e       	mov	r12, r24
    4054:	87 e1       	ldi	r24, 0x17	; 23
    4056:	94 e0       	ldi	r25, 0x04	; 4
    4058:	0e 94 13 1c 	call	0x3826	; 0x3826 <_ZN7TwoWire4readEv>
    405c:	f8 2e       	mov	r15, r24
    405e:	87 e1       	ldi	r24, 0x17	; 23
    4060:	94 e0       	ldi	r25, 0x04	; 4
    4062:	0e 94 13 1c 	call	0x3826	; 0x3826 <_ZN7TwoWire4readEv>
    4066:	e8 2e       	mov	r14, r24
    4068:	87 e1       	ldi	r24, 0x17	; 23
    406a:	94 e0       	ldi	r25, 0x04	; 4
    406c:	0e 94 13 1c 	call	0x3826	; 0x3826 <_ZN7TwoWire4readEv>
    4070:	18 2f       	mov	r17, r24
    4072:	87 e1       	ldi	r24, 0x17	; 23
    4074:	94 e0       	ldi	r25, 0x04	; 4
    4076:	0e 94 13 1c 	call	0x3826	; 0x3826 <_ZN7TwoWire4readEv>
    407a:	08 2f       	mov	r16, r24
    407c:	3c 2d       	mov	r19, r12
    407e:	20 e0       	ldi	r18, 0x00	; 0
    4080:	6d 2d       	mov	r22, r13
    4082:	70 e0       	ldi	r23, 0x00	; 0
    4084:	62 2b       	or	r22, r18
    4086:	73 2b       	or	r23, r19
    4088:	88 27       	eor	r24, r24
    408a:	77 fd       	sbrc	r23, 7
    408c:	80 95       	com	r24
    408e:	98 2f       	mov	r25, r24
    4090:	0e 94 1e 29 	call	0x523c	; 0x523c <__floatsisf>
    4094:	68 83       	st	Y, r22
    4096:	79 83       	std	Y+1, r23	; 0x01
    4098:	8a 83       	std	Y+2, r24	; 0x02
    409a:	9b 83       	std	Y+3, r25	; 0x03
    409c:	9e 2d       	mov	r25, r14
    409e:	80 e0       	ldi	r24, 0x00	; 0
    40a0:	6f 2d       	mov	r22, r15
    40a2:	70 e0       	ldi	r23, 0x00	; 0
    40a4:	68 2b       	or	r22, r24
    40a6:	79 2b       	or	r23, r25
    40a8:	88 27       	eor	r24, r24
    40aa:	77 fd       	sbrc	r23, 7
    40ac:	80 95       	com	r24
    40ae:	98 2f       	mov	r25, r24
    40b0:	0e 94 1e 29 	call	0x523c	; 0x523c <__floatsisf>
    40b4:	6c 83       	std	Y+4, r22	; 0x04
    40b6:	7d 83       	std	Y+5, r23	; 0x05
    40b8:	8e 83       	std	Y+6, r24	; 0x06
    40ba:	9f 83       	std	Y+7, r25	; 0x07
    40bc:	90 2f       	mov	r25, r16
    40be:	80 e0       	ldi	r24, 0x00	; 0
    40c0:	61 2f       	mov	r22, r17
    40c2:	70 e0       	ldi	r23, 0x00	; 0
    40c4:	68 2b       	or	r22, r24
    40c6:	79 2b       	or	r23, r25
    40c8:	88 27       	eor	r24, r24
    40ca:	77 fd       	sbrc	r23, 7
    40cc:	80 95       	com	r24
    40ce:	98 2f       	mov	r25, r24
    40d0:	0e 94 1e 29 	call	0x523c	; 0x523c <__floatsisf>
    40d4:	68 87       	std	Y+8, r22	; 0x08
    40d6:	79 87       	std	Y+9, r23	; 0x09
    40d8:	8a 87       	std	Y+10, r24	; 0x0a
    40da:	9b 87       	std	Y+11, r25	; 0x0b
    40dc:	df 91       	pop	r29
    40de:	cf 91       	pop	r28
    40e0:	1f 91       	pop	r17
    40e2:	0f 91       	pop	r16
    40e4:	ff 90       	pop	r15
    40e6:	ef 90       	pop	r14
    40e8:	df 90       	pop	r13
    40ea:	cf 90       	pop	r12
    40ec:	08 95       	ret

000040ee <_ZN3L3G12vector_crossEPKNS_6vectorES2_PS0_>:
    40ee:	2f 92       	push	r2
    40f0:	3f 92       	push	r3
    40f2:	4f 92       	push	r4
    40f4:	5f 92       	push	r5
    40f6:	6f 92       	push	r6
    40f8:	7f 92       	push	r7
    40fa:	8f 92       	push	r8
    40fc:	9f 92       	push	r9
    40fe:	af 92       	push	r10
    4100:	bf 92       	push	r11
    4102:	cf 92       	push	r12
    4104:	df 92       	push	r13
    4106:	ef 92       	push	r14
    4108:	ff 92       	push	r15
    410a:	0f 93       	push	r16
    410c:	1f 93       	push	r17
    410e:	df 93       	push	r29
    4110:	cf 93       	push	r28
    4112:	00 d0       	rcall	.+0      	; 0x4114 <_ZN3L3G12vector_crossEPKNS_6vectorES2_PS0_+0x26>
    4114:	00 d0       	rcall	.+0      	; 0x4116 <_ZN3L3G12vector_crossEPKNS_6vectorES2_PS0_+0x28>
    4116:	00 d0       	rcall	.+0      	; 0x4118 <_ZN3L3G12vector_crossEPKNS_6vectorES2_PS0_+0x2a>
    4118:	cd b7       	in	r28, 0x3d	; 61
    411a:	de b7       	in	r29, 0x3e	; 62
    411c:	8c 01       	movw	r16, r24
    411e:	7e 83       	std	Y+6, r23	; 0x06
    4120:	6d 83       	std	Y+5, r22	; 0x05
    4122:	1a 01       	movw	r2, r20
    4124:	db 01       	movw	r26, r22
    4126:	18 96       	adiw	r26, 0x08	; 8
    4128:	4d 90       	ld	r4, X+
    412a:	5d 90       	ld	r5, X+
    412c:	6d 90       	ld	r6, X+
    412e:	7c 90       	ld	r7, X
    4130:	1b 97       	sbiw	r26, 0x0b	; 11
    4132:	fc 01       	movw	r30, r24
    4134:	c0 84       	ldd	r12, Z+8	; 0x08
    4136:	d1 84       	ldd	r13, Z+9	; 0x09
    4138:	e2 84       	ldd	r14, Z+10	; 0x0a
    413a:	f3 84       	ldd	r15, Z+11	; 0x0b
    413c:	c3 01       	movw	r24, r6
    413e:	b2 01       	movw	r22, r4
    4140:	24 81       	ldd	r18, Z+4	; 0x04
    4142:	35 81       	ldd	r19, Z+5	; 0x05
    4144:	46 81       	ldd	r20, Z+6	; 0x06
    4146:	57 81       	ldd	r21, Z+7	; 0x07
    4148:	0e 94 63 2a 	call	0x54c6	; 0x54c6 <__mulsf3>
    414c:	4b 01       	movw	r8, r22
    414e:	5c 01       	movw	r10, r24
    4150:	c7 01       	movw	r24, r14
    4152:	b6 01       	movw	r22, r12
    4154:	ad 81       	ldd	r26, Y+5	; 0x05
    4156:	be 81       	ldd	r27, Y+6	; 0x06
    4158:	14 96       	adiw	r26, 0x04	; 4
    415a:	2d 91       	ld	r18, X+
    415c:	3d 91       	ld	r19, X+
    415e:	4d 91       	ld	r20, X+
    4160:	5c 91       	ld	r21, X
    4162:	17 97       	sbiw	r26, 0x07	; 7
    4164:	0e 94 63 2a 	call	0x54c6	; 0x54c6 <__mulsf3>
    4168:	9b 01       	movw	r18, r22
    416a:	ac 01       	movw	r20, r24
    416c:	c5 01       	movw	r24, r10
    416e:	b4 01       	movw	r22, r8
    4170:	0e 94 9e 27 	call	0x4f3c	; 0x4f3c <__subsf3>
    4174:	f1 01       	movw	r30, r2
    4176:	60 83       	st	Z, r22
    4178:	71 83       	std	Z+1, r23	; 0x01
    417a:	82 83       	std	Z+2, r24	; 0x02
    417c:	93 83       	std	Z+3, r25	; 0x03
    417e:	ad 81       	ldd	r26, Y+5	; 0x05
    4180:	be 81       	ldd	r27, Y+6	; 0x06
    4182:	8d 91       	ld	r24, X+
    4184:	9d 91       	ld	r25, X+
    4186:	0d 90       	ld	r0, X+
    4188:	bc 91       	ld	r27, X
    418a:	a0 2d       	mov	r26, r0
    418c:	89 83       	std	Y+1, r24	; 0x01
    418e:	9a 83       	std	Y+2, r25	; 0x02
    4190:	ab 83       	std	Y+3, r26	; 0x03
    4192:	bc 83       	std	Y+4, r27	; 0x04
    4194:	f8 01       	movw	r30, r16
    4196:	80 80       	ld	r8, Z
    4198:	91 80       	ldd	r9, Z+1	; 0x01
    419a:	a2 80       	ldd	r10, Z+2	; 0x02
    419c:	b3 80       	ldd	r11, Z+3	; 0x03
    419e:	c7 01       	movw	r24, r14
    41a0:	b6 01       	movw	r22, r12
    41a2:	29 81       	ldd	r18, Y+1	; 0x01
    41a4:	3a 81       	ldd	r19, Y+2	; 0x02
    41a6:	4b 81       	ldd	r20, Y+3	; 0x03
    41a8:	5c 81       	ldd	r21, Y+4	; 0x04
    41aa:	0e 94 63 2a 	call	0x54c6	; 0x54c6 <__mulsf3>
    41ae:	6b 01       	movw	r12, r22
    41b0:	7c 01       	movw	r14, r24
    41b2:	c5 01       	movw	r24, r10
    41b4:	b4 01       	movw	r22, r8
    41b6:	a3 01       	movw	r20, r6
    41b8:	92 01       	movw	r18, r4
    41ba:	0e 94 63 2a 	call	0x54c6	; 0x54c6 <__mulsf3>
    41be:	9b 01       	movw	r18, r22
    41c0:	ac 01       	movw	r20, r24
    41c2:	c7 01       	movw	r24, r14
    41c4:	b6 01       	movw	r22, r12
    41c6:	0e 94 9e 27 	call	0x4f3c	; 0x4f3c <__subsf3>
    41ca:	d1 01       	movw	r26, r2
    41cc:	14 96       	adiw	r26, 0x04	; 4
    41ce:	6d 93       	st	X+, r22
    41d0:	7d 93       	st	X+, r23
    41d2:	8d 93       	st	X+, r24
    41d4:	9c 93       	st	X, r25
    41d6:	17 97       	sbiw	r26, 0x07	; 7
    41d8:	c5 01       	movw	r24, r10
    41da:	b4 01       	movw	r22, r8
    41dc:	ed 81       	ldd	r30, Y+5	; 0x05
    41de:	fe 81       	ldd	r31, Y+6	; 0x06
    41e0:	24 81       	ldd	r18, Z+4	; 0x04
    41e2:	35 81       	ldd	r19, Z+5	; 0x05
    41e4:	46 81       	ldd	r20, Z+6	; 0x06
    41e6:	57 81       	ldd	r21, Z+7	; 0x07
    41e8:	0e 94 63 2a 	call	0x54c6	; 0x54c6 <__mulsf3>
    41ec:	6b 01       	movw	r12, r22
    41ee:	7c 01       	movw	r14, r24
    41f0:	69 81       	ldd	r22, Y+1	; 0x01
    41f2:	7a 81       	ldd	r23, Y+2	; 0x02
    41f4:	8b 81       	ldd	r24, Y+3	; 0x03
    41f6:	9c 81       	ldd	r25, Y+4	; 0x04
    41f8:	d8 01       	movw	r26, r16
    41fa:	14 96       	adiw	r26, 0x04	; 4
    41fc:	2d 91       	ld	r18, X+
    41fe:	3d 91       	ld	r19, X+
    4200:	4d 91       	ld	r20, X+
    4202:	5c 91       	ld	r21, X
    4204:	17 97       	sbiw	r26, 0x07	; 7
    4206:	0e 94 63 2a 	call	0x54c6	; 0x54c6 <__mulsf3>
    420a:	9b 01       	movw	r18, r22
    420c:	ac 01       	movw	r20, r24
    420e:	c7 01       	movw	r24, r14
    4210:	b6 01       	movw	r22, r12
    4212:	0e 94 9e 27 	call	0x4f3c	; 0x4f3c <__subsf3>
    4216:	f1 01       	movw	r30, r2
    4218:	60 87       	std	Z+8, r22	; 0x08
    421a:	71 87       	std	Z+9, r23	; 0x09
    421c:	82 87       	std	Z+10, r24	; 0x0a
    421e:	93 87       	std	Z+11, r25	; 0x0b
    4220:	26 96       	adiw	r28, 0x06	; 6
    4222:	0f b6       	in	r0, 0x3f	; 63
    4224:	f8 94       	cli
    4226:	de bf       	out	0x3e, r29	; 62
    4228:	0f be       	out	0x3f, r0	; 63
    422a:	cd bf       	out	0x3d, r28	; 61
    422c:	cf 91       	pop	r28
    422e:	df 91       	pop	r29
    4230:	1f 91       	pop	r17
    4232:	0f 91       	pop	r16
    4234:	ff 90       	pop	r15
    4236:	ef 90       	pop	r14
    4238:	df 90       	pop	r13
    423a:	cf 90       	pop	r12
    423c:	bf 90       	pop	r11
    423e:	af 90       	pop	r10
    4240:	9f 90       	pop	r9
    4242:	8f 90       	pop	r8
    4244:	7f 90       	pop	r7
    4246:	6f 90       	pop	r6
    4248:	5f 90       	pop	r5
    424a:	4f 90       	pop	r4
    424c:	3f 90       	pop	r3
    424e:	2f 90       	pop	r2
    4250:	08 95       	ret

00004252 <_ZN3L3G10vector_dotEPKNS_6vectorES2_>:
    4252:	cf 92       	push	r12
    4254:	df 92       	push	r13
    4256:	ef 92       	push	r14
    4258:	ff 92       	push	r15
    425a:	0f 93       	push	r16
    425c:	1f 93       	push	r17
    425e:	cf 93       	push	r28
    4260:	df 93       	push	r29
    4262:	ec 01       	movw	r28, r24
    4264:	8b 01       	movw	r16, r22
    4266:	68 81       	ld	r22, Y
    4268:	79 81       	ldd	r23, Y+1	; 0x01
    426a:	8a 81       	ldd	r24, Y+2	; 0x02
    426c:	9b 81       	ldd	r25, Y+3	; 0x03
    426e:	f8 01       	movw	r30, r16
    4270:	20 81       	ld	r18, Z
    4272:	31 81       	ldd	r19, Z+1	; 0x01
    4274:	42 81       	ldd	r20, Z+2	; 0x02
    4276:	53 81       	ldd	r21, Z+3	; 0x03
    4278:	0e 94 63 2a 	call	0x54c6	; 0x54c6 <__mulsf3>
    427c:	6b 01       	movw	r12, r22
    427e:	7c 01       	movw	r14, r24
    4280:	6c 81       	ldd	r22, Y+4	; 0x04
    4282:	7d 81       	ldd	r23, Y+5	; 0x05
    4284:	8e 81       	ldd	r24, Y+6	; 0x06
    4286:	9f 81       	ldd	r25, Y+7	; 0x07
    4288:	f8 01       	movw	r30, r16
    428a:	24 81       	ldd	r18, Z+4	; 0x04
    428c:	35 81       	ldd	r19, Z+5	; 0x05
    428e:	46 81       	ldd	r20, Z+6	; 0x06
    4290:	57 81       	ldd	r21, Z+7	; 0x07
    4292:	0e 94 63 2a 	call	0x54c6	; 0x54c6 <__mulsf3>
    4296:	9b 01       	movw	r18, r22
    4298:	ac 01       	movw	r20, r24
    429a:	c7 01       	movw	r24, r14
    429c:	b6 01       	movw	r22, r12
    429e:	0e 94 9f 27 	call	0x4f3e	; 0x4f3e <__addsf3>
    42a2:	6b 01       	movw	r12, r22
    42a4:	7c 01       	movw	r14, r24
    42a6:	68 85       	ldd	r22, Y+8	; 0x08
    42a8:	79 85       	ldd	r23, Y+9	; 0x09
    42aa:	8a 85       	ldd	r24, Y+10	; 0x0a
    42ac:	9b 85       	ldd	r25, Y+11	; 0x0b
    42ae:	f8 01       	movw	r30, r16
    42b0:	20 85       	ldd	r18, Z+8	; 0x08
    42b2:	31 85       	ldd	r19, Z+9	; 0x09
    42b4:	42 85       	ldd	r20, Z+10	; 0x0a
    42b6:	53 85       	ldd	r21, Z+11	; 0x0b
    42b8:	0e 94 63 2a 	call	0x54c6	; 0x54c6 <__mulsf3>
    42bc:	9b 01       	movw	r18, r22
    42be:	ac 01       	movw	r20, r24
    42c0:	c7 01       	movw	r24, r14
    42c2:	b6 01       	movw	r22, r12
    42c4:	0e 94 9f 27 	call	0x4f3e	; 0x4f3e <__addsf3>
    42c8:	df 91       	pop	r29
    42ca:	cf 91       	pop	r28
    42cc:	1f 91       	pop	r17
    42ce:	0f 91       	pop	r16
    42d0:	ff 90       	pop	r15
    42d2:	ef 90       	pop	r14
    42d4:	df 90       	pop	r13
    42d6:	cf 90       	pop	r12
    42d8:	08 95       	ret

000042da <_ZN3L3G16vector_normalizeEPNS_6vectorE>:
    42da:	ef 92       	push	r14
    42dc:	ff 92       	push	r15
    42de:	0f 93       	push	r16
    42e0:	1f 93       	push	r17
    42e2:	cf 93       	push	r28
    42e4:	df 93       	push	r29
    42e6:	ec 01       	movw	r28, r24
    42e8:	be 01       	movw	r22, r28
    42ea:	0e 94 29 21 	call	0x4252	; 0x4252 <_ZN3L3G10vector_dotEPKNS_6vectorES2_>
    42ee:	0e 94 d0 2a 	call	0x55a0	; 0x55a0 <sqrt>
    42f2:	7b 01       	movw	r14, r22
    42f4:	8c 01       	movw	r16, r24
    42f6:	68 81       	ld	r22, Y
    42f8:	79 81       	ldd	r23, Y+1	; 0x01
    42fa:	8a 81       	ldd	r24, Y+2	; 0x02
    42fc:	9b 81       	ldd	r25, Y+3	; 0x03
    42fe:	a8 01       	movw	r20, r16
    4300:	97 01       	movw	r18, r14
    4302:	0e 94 83 28 	call	0x5106	; 0x5106 <__divsf3>
    4306:	68 83       	st	Y, r22
    4308:	79 83       	std	Y+1, r23	; 0x01
    430a:	8a 83       	std	Y+2, r24	; 0x02
    430c:	9b 83       	std	Y+3, r25	; 0x03
    430e:	6c 81       	ldd	r22, Y+4	; 0x04
    4310:	7d 81       	ldd	r23, Y+5	; 0x05
    4312:	8e 81       	ldd	r24, Y+6	; 0x06
    4314:	9f 81       	ldd	r25, Y+7	; 0x07
    4316:	a8 01       	movw	r20, r16
    4318:	97 01       	movw	r18, r14
    431a:	0e 94 83 28 	call	0x5106	; 0x5106 <__divsf3>
    431e:	6c 83       	std	Y+4, r22	; 0x04
    4320:	7d 83       	std	Y+5, r23	; 0x05
    4322:	8e 83       	std	Y+6, r24	; 0x06
    4324:	9f 83       	std	Y+7, r25	; 0x07
    4326:	68 85       	ldd	r22, Y+8	; 0x08
    4328:	79 85       	ldd	r23, Y+9	; 0x09
    432a:	8a 85       	ldd	r24, Y+10	; 0x0a
    432c:	9b 85       	ldd	r25, Y+11	; 0x0b
    432e:	a8 01       	movw	r20, r16
    4330:	97 01       	movw	r18, r14
    4332:	0e 94 83 28 	call	0x5106	; 0x5106 <__divsf3>
    4336:	68 87       	std	Y+8, r22	; 0x08
    4338:	79 87       	std	Y+9, r23	; 0x09
    433a:	8a 87       	std	Y+10, r24	; 0x0a
    433c:	9b 87       	std	Y+11, r25	; 0x0b
    433e:	df 91       	pop	r29
    4340:	cf 91       	pop	r28
    4342:	1f 91       	pop	r17
    4344:	0f 91       	pop	r16
    4346:	ff 90       	pop	r15
    4348:	ef 90       	pop	r14
    434a:	08 95       	ret

0000434c <_ZN3L3G17autoDetectAddressEv>:
    434c:	cf 93       	push	r28
    434e:	df 93       	push	r29
    4350:	ec 01       	movw	r28, r24
    4352:	88 e6       	ldi	r24, 0x68	; 104
    4354:	8d 87       	std	Y+13, r24	; 0x0d
    4356:	ce 01       	movw	r24, r28
    4358:	6f e0       	ldi	r22, 0x0F	; 15
    435a:	0e 94 d2 1f 	call	0x3fa4	; 0x3fa4 <_ZN3L3G7readRegEh>
    435e:	83 3d       	cpi	r24, 0xD3	; 211
    4360:	d9 f0       	breq	.+54     	; 0x4398 <_ZN3L3G17autoDetectAddressEv+0x4c>
    4362:	89 e6       	ldi	r24, 0x69	; 105
    4364:	8d 87       	std	Y+13, r24	; 0x0d
    4366:	ce 01       	movw	r24, r28
    4368:	6f e0       	ldi	r22, 0x0F	; 15
    436a:	0e 94 d2 1f 	call	0x3fa4	; 0x3fa4 <_ZN3L3G7readRegEh>
    436e:	83 3d       	cpi	r24, 0xD3	; 211
    4370:	99 f0       	breq	.+38     	; 0x4398 <_ZN3L3G17autoDetectAddressEv+0x4c>
    4372:	8a e6       	ldi	r24, 0x6A	; 106
    4374:	8d 87       	std	Y+13, r24	; 0x0d
    4376:	ce 01       	movw	r24, r28
    4378:	6f e0       	ldi	r22, 0x0F	; 15
    437a:	0e 94 d2 1f 	call	0x3fa4	; 0x3fa4 <_ZN3L3G7readRegEh>
    437e:	84 3d       	cpi	r24, 0xD4	; 212
    4380:	59 f0       	breq	.+22     	; 0x4398 <_ZN3L3G17autoDetectAddressEv+0x4c>
    4382:	8b e6       	ldi	r24, 0x6B	; 107
    4384:	8d 87       	std	Y+13, r24	; 0x0d
    4386:	ce 01       	movw	r24, r28
    4388:	6f e0       	ldi	r22, 0x0F	; 15
    438a:	0e 94 d2 1f 	call	0x3fa4	; 0x3fa4 <_ZN3L3G7readRegEh>
    438e:	91 e0       	ldi	r25, 0x01	; 1
    4390:	84 3d       	cpi	r24, 0xD4	; 212
    4392:	19 f0       	breq	.+6      	; 0x439a <_ZN3L3G17autoDetectAddressEv+0x4e>
    4394:	90 e0       	ldi	r25, 0x00	; 0
    4396:	01 c0       	rjmp	.+2      	; 0x439a <_ZN3L3G17autoDetectAddressEv+0x4e>
    4398:	91 e0       	ldi	r25, 0x01	; 1
    439a:	89 2f       	mov	r24, r25
    439c:	df 91       	pop	r29
    439e:	cf 91       	pop	r28
    43a0:	08 95       	ret

000043a2 <_ZN3L3G4initEhh>:
    43a2:	fc 01       	movw	r30, r24
    43a4:	64 87       	std	Z+12, r22	; 0x0c
    43a6:	61 30       	cpi	r22, 0x01	; 1
    43a8:	19 f0       	breq	.+6      	; 0x43b0 <_ZN3L3G4initEhh+0xe>
    43aa:	62 30       	cpi	r22, 0x02	; 2
    43ac:	b9 f4       	brne	.+46     	; 0x43dc <_ZN3L3G4initEhh+0x3a>
    43ae:	08 c0       	rjmp	.+16     	; 0x43c0 <_ZN3L3G4initEhh+0x1e>
    43b0:	44 23       	and	r20, r20
    43b2:	11 f4       	brne	.+4      	; 0x43b8 <_ZN3L3G4initEhh+0x16>
    43b4:	28 e6       	ldi	r18, 0x68	; 104
    43b6:	0b c0       	rjmp	.+22     	; 0x43ce <_ZN3L3G4initEhh+0x2c>
    43b8:	41 30       	cpi	r20, 0x01	; 1
    43ba:	69 f4       	brne	.+26     	; 0x43d6 <_ZN3L3G4initEhh+0x34>
    43bc:	29 e6       	ldi	r18, 0x69	; 105
    43be:	07 c0       	rjmp	.+14     	; 0x43ce <_ZN3L3G4initEhh+0x2c>
    43c0:	44 23       	and	r20, r20
    43c2:	11 f4       	brne	.+4      	; 0x43c8 <_ZN3L3G4initEhh+0x26>
    43c4:	2a e6       	ldi	r18, 0x6A	; 106
    43c6:	03 c0       	rjmp	.+6      	; 0x43ce <_ZN3L3G4initEhh+0x2c>
    43c8:	41 30       	cpi	r20, 0x01	; 1
    43ca:	29 f4       	brne	.+10     	; 0x43d6 <_ZN3L3G4initEhh+0x34>
    43cc:	2b e6       	ldi	r18, 0x6B	; 107
    43ce:	fc 01       	movw	r30, r24
    43d0:	25 87       	std	Z+13, r18	; 0x0d
    43d2:	81 e0       	ldi	r24, 0x01	; 1
    43d4:	08 95       	ret
    43d6:	0e 94 a6 21 	call	0x434c	; 0x434c <_ZN3L3G17autoDetectAddressEv>
    43da:	08 95       	ret
    43dc:	0e 94 a6 21 	call	0x434c	; 0x434c <_ZN3L3G17autoDetectAddressEv>
    43e0:	08 95       	ret
    43e2:	dc 01       	movw	r26, r24
    43e4:	ed 91       	ld	r30, X+
    43e6:	fc 91       	ld	r31, X
    43e8:	01 90       	ld	r0, Z+
    43ea:	f0 81       	ld	r31, Z
    43ec:	e0 2d       	mov	r30, r0
    43ee:	09 95       	icall
    43f0:	08 95       	ret

000043f2 <_ZN6LSM303C1Ev>:
    43f2:	fc 01       	movw	r30, r24
    43f4:	80 e0       	ldi	r24, 0x00	; 0
    43f6:	90 e0       	ldi	r25, 0x00	; 0
    43f8:	a7 e0       	ldi	r26, 0x07	; 7
    43fa:	b4 e4       	ldi	r27, 0x44	; 68
    43fc:	80 8f       	std	Z+24, r24	; 0x18
    43fe:	91 8f       	std	Z+25, r25	; 0x19
    4400:	a2 8f       	std	Z+26, r26	; 0x1a
    4402:	b3 8f       	std	Z+27, r27	; 0x1b
    4404:	80 e0       	ldi	r24, 0x00	; 0
    4406:	90 e0       	ldi	r25, 0x00	; 0
    4408:	aa ef       	ldi	r26, 0xFA	; 250
    440a:	b3 e4       	ldi	r27, 0x43	; 67
    440c:	84 8f       	std	Z+28, r24	; 0x1c
    440e:	95 8f       	std	Z+29, r25	; 0x1d
    4410:	a6 8f       	std	Z+30, r26	; 0x1e
    4412:	b7 8f       	std	Z+31, r27	; 0x1f
    4414:	80 e0       	ldi	r24, 0x00	; 0
    4416:	90 e0       	ldi	r25, 0x00	; 0
    4418:	a4 e3       	ldi	r26, 0x34	; 52
    441a:	b3 e4       	ldi	r27, 0x43	; 67
    441c:	80 a3       	std	Z+32, r24	; 0x20
    441e:	91 a3       	std	Z+33, r25	; 0x21
    4420:	a2 a3       	std	Z+34, r26	; 0x22
    4422:	b3 a3       	std	Z+35, r27	; 0x23
    4424:	20 e0       	ldi	r18, 0x00	; 0
    4426:	30 e0       	ldi	r19, 0x00	; 0
    4428:	42 e0       	ldi	r20, 0x02	; 2
    442a:	54 ec       	ldi	r21, 0xC4	; 196
    442c:	24 a3       	std	Z+36, r18	; 0x24
    442e:	35 a3       	std	Z+37, r19	; 0x25
    4430:	46 a3       	std	Z+38, r20	; 0x26
    4432:	57 a3       	std	Z+39, r21	; 0x27
    4434:	20 e0       	ldi	r18, 0x00	; 0
    4436:	30 e8       	ldi	r19, 0x80	; 128
    4438:	4e e0       	ldi	r20, 0x0E	; 14
    443a:	54 ec       	ldi	r21, 0xC4	; 196
    443c:	20 a7       	std	Z+40, r18	; 0x28
    443e:	31 a7       	std	Z+41, r19	; 0x29
    4440:	42 a7       	std	Z+42, r20	; 0x2a
    4442:	53 a7       	std	Z+43, r21	; 0x2b
    4444:	20 e0       	ldi	r18, 0x00	; 0
    4446:	30 e8       	ldi	r19, 0x80	; 128
    4448:	40 e4       	ldi	r20, 0x40	; 64
    444a:	54 ec       	ldi	r21, 0xC4	; 196
    444c:	24 a7       	std	Z+44, r18	; 0x2c
    444e:	35 a7       	std	Z+45, r19	; 0x2d
    4450:	46 a7       	std	Z+46, r20	; 0x2e
    4452:	57 a7       	std	Z+47, r21	; 0x2f
    4454:	83 e0       	ldi	r24, 0x03	; 3
    4456:	81 ab       	std	Z+49, r24	; 0x31
    4458:	88 e1       	ldi	r24, 0x18	; 24
    445a:	82 ab       	std	Z+50, r24	; 0x32
    445c:	14 aa       	std	Z+52, r1	; 0x34
    445e:	13 aa       	std	Z+51, r1	; 0x33
    4460:	15 aa       	std	Z+53, r1	; 0x35
    4462:	08 95       	ret

00004464 <_ZN6LSM30315timeoutOccurredEv>:
    4464:	fc 01       	movw	r30, r24
    4466:	85 a9       	ldd	r24, Z+53	; 0x35
    4468:	08 95       	ret

0000446a <_ZN6LSM30310setTimeoutEj>:
    446a:	fc 01       	movw	r30, r24
    446c:	74 ab       	std	Z+52, r23	; 0x34
    446e:	63 ab       	std	Z+51, r22	; 0x33
    4470:	08 95       	ret

00004472 <_ZN6LSM30310getTimeoutEv>:
    4472:	fc 01       	movw	r30, r24
    4474:	83 a9       	ldd	r24, Z+51	; 0x33
    4476:	94 a9       	ldd	r25, Z+52	; 0x34
    4478:	08 95       	ret

0000447a <_ZN6LSM30311writeAccRegEhh>:
    447a:	cf 92       	push	r12
    447c:	df 92       	push	r13
    447e:	ff 92       	push	r15
    4480:	0f 93       	push	r16
    4482:	1f 93       	push	r17
    4484:	df 93       	push	r29
    4486:	cf 93       	push	r28
    4488:	0f 92       	push	r0
    448a:	cd b7       	in	r28, 0x3d	; 61
    448c:	de b7       	in	r29, 0x3e	; 62
    448e:	6c 01       	movw	r12, r24
    4490:	f6 2e       	mov	r15, r22
    4492:	07 e1       	ldi	r16, 0x17	; 23
    4494:	14 e0       	ldi	r17, 0x04	; 4
    4496:	c8 01       	movw	r24, r16
    4498:	f6 01       	movw	r30, r12
    449a:	62 a9       	ldd	r22, Z+50	; 0x32
    449c:	49 83       	std	Y+1, r20	; 0x01
    449e:	0e 94 18 1d 	call	0x3a30	; 0x3a30 <_ZN7TwoWire17beginTransmissionEh>
    44a2:	c8 01       	movw	r24, r16
    44a4:	6f 2d       	mov	r22, r15
    44a6:	0e 94 9e 1c 	call	0x393c	; 0x393c <_ZN7TwoWire5writeEh>
    44aa:	c8 01       	movw	r24, r16
    44ac:	49 81       	ldd	r20, Y+1	; 0x01
    44ae:	64 2f       	mov	r22, r20
    44b0:	0e 94 9e 1c 	call	0x393c	; 0x393c <_ZN7TwoWire5writeEh>
    44b4:	c8 01       	movw	r24, r16
    44b6:	0e 94 38 1d 	call	0x3a70	; 0x3a70 <_ZN7TwoWire15endTransmissionEv>
    44ba:	f6 01       	movw	r30, r12
    44bc:	80 ab       	std	Z+48, r24	; 0x30
    44be:	0f 90       	pop	r0
    44c0:	cf 91       	pop	r28
    44c2:	df 91       	pop	r29
    44c4:	1f 91       	pop	r17
    44c6:	0f 91       	pop	r16
    44c8:	ff 90       	pop	r15
    44ca:	df 90       	pop	r13
    44cc:	cf 90       	pop	r12
    44ce:	08 95       	ret

000044d0 <_ZN6LSM30310readAccRegEh>:
    44d0:	ff 92       	push	r15
    44d2:	0f 93       	push	r16
    44d4:	1f 93       	push	r17
    44d6:	cf 93       	push	r28
    44d8:	df 93       	push	r29
    44da:	8c 01       	movw	r16, r24
    44dc:	f6 2e       	mov	r15, r22
    44de:	c7 e1       	ldi	r28, 0x17	; 23
    44e0:	d4 e0       	ldi	r29, 0x04	; 4
    44e2:	ce 01       	movw	r24, r28
    44e4:	f8 01       	movw	r30, r16
    44e6:	62 a9       	ldd	r22, Z+50	; 0x32
    44e8:	0e 94 18 1d 	call	0x3a30	; 0x3a30 <_ZN7TwoWire17beginTransmissionEh>
    44ec:	ce 01       	movw	r24, r28
    44ee:	6f 2d       	mov	r22, r15
    44f0:	0e 94 9e 1c 	call	0x393c	; 0x393c <_ZN7TwoWire5writeEh>
    44f4:	ce 01       	movw	r24, r28
    44f6:	0e 94 38 1d 	call	0x3a70	; 0x3a70 <_ZN7TwoWire15endTransmissionEv>
    44fa:	f8 01       	movw	r30, r16
    44fc:	80 ab       	std	Z+48, r24	; 0x30
    44fe:	ce 01       	movw	r24, r28
    4500:	62 a9       	ldd	r22, Z+50	; 0x32
    4502:	41 e0       	ldi	r20, 0x01	; 1
    4504:	0e 94 0d 1d 	call	0x3a1a	; 0x3a1a <_ZN7TwoWire11requestFromEhh>
    4508:	ce 01       	movw	r24, r28
    450a:	0e 94 13 1c 	call	0x3826	; 0x3826 <_ZN7TwoWire4readEv>
    450e:	08 2f       	mov	r16, r24
    4510:	ce 01       	movw	r24, r28
    4512:	0e 94 38 1d 	call	0x3a70	; 0x3a70 <_ZN7TwoWire15endTransmissionEv>
    4516:	80 2f       	mov	r24, r16
    4518:	df 91       	pop	r29
    451a:	cf 91       	pop	r28
    451c:	1f 91       	pop	r17
    451e:	0f 91       	pop	r16
    4520:	ff 90       	pop	r15
    4522:	08 95       	ret

00004524 <_ZN6LSM30311writeMagRegEhh>:
    4524:	cf 92       	push	r12
    4526:	df 92       	push	r13
    4528:	ff 92       	push	r15
    452a:	0f 93       	push	r16
    452c:	1f 93       	push	r17
    452e:	df 93       	push	r29
    4530:	cf 93       	push	r28
    4532:	0f 92       	push	r0
    4534:	cd b7       	in	r28, 0x3d	; 61
    4536:	de b7       	in	r29, 0x3e	; 62
    4538:	8c 01       	movw	r16, r24
    453a:	f6 2e       	mov	r15, r22
    453c:	87 e1       	ldi	r24, 0x17	; 23
    453e:	c8 2e       	mov	r12, r24
    4540:	84 e0       	ldi	r24, 0x04	; 4
    4542:	d8 2e       	mov	r13, r24
    4544:	c6 01       	movw	r24, r12
    4546:	6e e1       	ldi	r22, 0x1E	; 30
    4548:	70 e0       	ldi	r23, 0x00	; 0
    454a:	49 83       	std	Y+1, r20	; 0x01
    454c:	0e 94 22 1d 	call	0x3a44	; 0x3a44 <_ZN7TwoWire17beginTransmissionEi>
    4550:	c6 01       	movw	r24, r12
    4552:	6f 2d       	mov	r22, r15
    4554:	0e 94 9e 1c 	call	0x393c	; 0x393c <_ZN7TwoWire5writeEh>
    4558:	c6 01       	movw	r24, r12
    455a:	49 81       	ldd	r20, Y+1	; 0x01
    455c:	64 2f       	mov	r22, r20
    455e:	0e 94 9e 1c 	call	0x393c	; 0x393c <_ZN7TwoWire5writeEh>
    4562:	c6 01       	movw	r24, r12
    4564:	0e 94 38 1d 	call	0x3a70	; 0x3a70 <_ZN7TwoWire15endTransmissionEv>
    4568:	f8 01       	movw	r30, r16
    456a:	80 ab       	std	Z+48, r24	; 0x30
    456c:	0f 90       	pop	r0
    456e:	cf 91       	pop	r28
    4570:	df 91       	pop	r29
    4572:	1f 91       	pop	r17
    4574:	0f 91       	pop	r16
    4576:	ff 90       	pop	r15
    4578:	df 90       	pop	r13
    457a:	cf 90       	pop	r12
    457c:	08 95       	ret

0000457e <_ZN6LSM30313enableDefaultEv>:
    457e:	cf 93       	push	r28
    4580:	df 93       	push	r29
    4582:	ec 01       	movw	r28, r24
    4584:	60 e2       	ldi	r22, 0x20	; 32
    4586:	47 e2       	ldi	r20, 0x27	; 39
    4588:	0e 94 3d 22 	call	0x447a	; 0x447a <_ZN6LSM30311writeAccRegEhh>
    458c:	ce 01       	movw	r24, r28
    458e:	62 e0       	ldi	r22, 0x02	; 2
    4590:	40 e0       	ldi	r20, 0x00	; 0
    4592:	0e 94 92 22 	call	0x4524	; 0x4524 <_ZN6LSM30311writeMagRegEhh>
    4596:	df 91       	pop	r29
    4598:	cf 91       	pop	r28
    459a:	08 95       	ret

0000459c <_ZN6LSM30310readMagRegEi>:
    459c:	0f 93       	push	r16
    459e:	1f 93       	push	r17
    45a0:	cf 93       	push	r28
    45a2:	df 93       	push	r29
    45a4:	8c 01       	movw	r16, r24
    45a6:	eb 01       	movw	r28, r22
    45a8:	77 ff       	sbrs	r23, 7
    45aa:	34 c0       	rjmp	.+104    	; 0x4614 <_ZN6LSM30310readMagRegEi+0x78>
    45ac:	8f ef       	ldi	r24, 0xFF	; 255
    45ae:	6d 3f       	cpi	r22, 0xFD	; 253
    45b0:	78 07       	cpc	r23, r24
    45b2:	d9 f0       	breq	.+54     	; 0x45ea <_ZN6LSM30310readMagRegEi+0x4e>
    45b4:	ef ef       	ldi	r30, 0xFF	; 255
    45b6:	6e 3f       	cpi	r22, 0xFE	; 254
    45b8:	7e 07       	cpc	r23, r30
    45ba:	2c f4       	brge	.+10     	; 0x45c6 <_ZN6LSM30310readMagRegEi+0x2a>
    45bc:	ff ef       	ldi	r31, 0xFF	; 255
    45be:	6c 3f       	cpi	r22, 0xFC	; 252
    45c0:	7f 07       	cpc	r23, r31
    45c2:	41 f5       	brne	.+80     	; 0x4614 <_ZN6LSM30310readMagRegEi+0x78>
    45c4:	17 c0       	rjmp	.+46     	; 0x45f4 <_ZN6LSM30310readMagRegEi+0x58>
    45c6:	8f ef       	ldi	r24, 0xFF	; 255
    45c8:	6e 3f       	cpi	r22, 0xFE	; 254
    45ca:	78 07       	cpc	r23, r24
    45cc:	49 f0       	breq	.+18     	; 0x45e0 <_ZN6LSM30310readMagRegEi+0x44>
    45ce:	ef ef       	ldi	r30, 0xFF	; 255
    45d0:	6f 3f       	cpi	r22, 0xFF	; 255
    45d2:	7e 07       	cpc	r23, r30
    45d4:	f9 f4       	brne	.+62     	; 0x4614 <_ZN6LSM30310readMagRegEi+0x78>
    45d6:	f8 01       	movw	r30, r16
    45d8:	81 a9       	ldd	r24, Z+49	; 0x31
    45da:	88 23       	and	r24, r24
    45dc:	81 f4       	brne	.+32     	; 0x45fe <_ZN6LSM30310readMagRegEi+0x62>
    45de:	15 c0       	rjmp	.+42     	; 0x460a <_ZN6LSM30310readMagRegEi+0x6e>
    45e0:	f8 01       	movw	r30, r16
    45e2:	81 a9       	ldd	r24, Z+49	; 0x31
    45e4:	88 23       	and	r24, r24
    45e6:	71 f4       	brne	.+28     	; 0x4604 <_ZN6LSM30310readMagRegEi+0x68>
    45e8:	13 c0       	rjmp	.+38     	; 0x4610 <_ZN6LSM30310readMagRegEi+0x74>
    45ea:	f8 01       	movw	r30, r16
    45ec:	81 a9       	ldd	r24, Z+49	; 0x31
    45ee:	88 23       	and	r24, r24
    45f0:	61 f4       	brne	.+24     	; 0x460a <_ZN6LSM30310readMagRegEi+0x6e>
    45f2:	05 c0       	rjmp	.+10     	; 0x45fe <_ZN6LSM30310readMagRegEi+0x62>
    45f4:	f8 01       	movw	r30, r16
    45f6:	81 a9       	ldd	r24, Z+49	; 0x31
    45f8:	88 23       	and	r24, r24
    45fa:	51 f4       	brne	.+20     	; 0x4610 <_ZN6LSM30310readMagRegEi+0x74>
    45fc:	03 c0       	rjmp	.+6      	; 0x4604 <_ZN6LSM30310readMagRegEi+0x68>
    45fe:	c7 e0       	ldi	r28, 0x07	; 7
    4600:	d0 e0       	ldi	r29, 0x00	; 0
    4602:	08 c0       	rjmp	.+16     	; 0x4614 <_ZN6LSM30310readMagRegEi+0x78>
    4604:	c8 e0       	ldi	r28, 0x08	; 8
    4606:	d0 e0       	ldi	r29, 0x00	; 0
    4608:	05 c0       	rjmp	.+10     	; 0x4614 <_ZN6LSM30310readMagRegEi+0x78>
    460a:	c5 e0       	ldi	r28, 0x05	; 5
    460c:	d0 e0       	ldi	r29, 0x00	; 0
    460e:	02 c0       	rjmp	.+4      	; 0x4614 <_ZN6LSM30310readMagRegEi+0x78>
    4610:	c6 e0       	ldi	r28, 0x06	; 6
    4612:	d0 e0       	ldi	r29, 0x00	; 0
    4614:	87 e1       	ldi	r24, 0x17	; 23
    4616:	94 e0       	ldi	r25, 0x04	; 4
    4618:	6e e1       	ldi	r22, 0x1E	; 30
    461a:	70 e0       	ldi	r23, 0x00	; 0
    461c:	0e 94 22 1d 	call	0x3a44	; 0x3a44 <_ZN7TwoWire17beginTransmissionEi>
    4620:	87 e1       	ldi	r24, 0x17	; 23
    4622:	94 e0       	ldi	r25, 0x04	; 4
    4624:	be 01       	movw	r22, r28
    4626:	0e 94 9f 1f 	call	0x3f3e	; 0x3f3e <_ZN7TwoWire5writeEi>
    462a:	87 e1       	ldi	r24, 0x17	; 23
    462c:	94 e0       	ldi	r25, 0x04	; 4
    462e:	0e 94 38 1d 	call	0x3a70	; 0x3a70 <_ZN7TwoWire15endTransmissionEv>
    4632:	f8 01       	movw	r30, r16
    4634:	80 ab       	std	Z+48, r24	; 0x30
    4636:	87 e1       	ldi	r24, 0x17	; 23
    4638:	94 e0       	ldi	r25, 0x04	; 4
    463a:	6e e1       	ldi	r22, 0x1E	; 30
    463c:	70 e0       	ldi	r23, 0x00	; 0
    463e:	41 e0       	ldi	r20, 0x01	; 1
    4640:	50 e0       	ldi	r21, 0x00	; 0
    4642:	0e 94 11 1d 	call	0x3a22	; 0x3a22 <_ZN7TwoWire11requestFromEii>
    4646:	87 e1       	ldi	r24, 0x17	; 23
    4648:	94 e0       	ldi	r25, 0x04	; 4
    464a:	0e 94 13 1c 	call	0x3826	; 0x3826 <_ZN7TwoWire4readEv>
    464e:	08 2f       	mov	r16, r24
    4650:	87 e1       	ldi	r24, 0x17	; 23
    4652:	94 e0       	ldi	r25, 0x04	; 4
    4654:	0e 94 38 1d 	call	0x3a70	; 0x3a70 <_ZN7TwoWire15endTransmissionEv>
    4658:	80 2f       	mov	r24, r16
    465a:	df 91       	pop	r29
    465c:	cf 91       	pop	r28
    465e:	1f 91       	pop	r17
    4660:	0f 91       	pop	r16
    4662:	08 95       	ret

00004664 <_ZN6LSM30310setMagGainENS_7magGainE>:
    4664:	1f 93       	push	r17
    4666:	cf 93       	push	r28
    4668:	df 93       	push	r29
    466a:	16 2f       	mov	r17, r22
    466c:	c7 e1       	ldi	r28, 0x17	; 23
    466e:	d4 e0       	ldi	r29, 0x04	; 4
    4670:	ce 01       	movw	r24, r28
    4672:	6e e1       	ldi	r22, 0x1E	; 30
    4674:	70 e0       	ldi	r23, 0x00	; 0
    4676:	0e 94 22 1d 	call	0x3a44	; 0x3a44 <_ZN7TwoWire17beginTransmissionEi>
    467a:	ce 01       	movw	r24, r28
    467c:	61 e0       	ldi	r22, 0x01	; 1
    467e:	70 e0       	ldi	r23, 0x00	; 0
    4680:	0e 94 9f 1f 	call	0x3f3e	; 0x3f3e <_ZN7TwoWire5writeEi>
    4684:	ce 01       	movw	r24, r28
    4686:	61 2f       	mov	r22, r17
    4688:	0e 94 9e 1c 	call	0x393c	; 0x393c <_ZN7TwoWire5writeEh>
    468c:	ce 01       	movw	r24, r28
    468e:	0e 94 38 1d 	call	0x3a70	; 0x3a70 <_ZN7TwoWire15endTransmissionEv>
    4692:	df 91       	pop	r29
    4694:	cf 91       	pop	r28
    4696:	1f 91       	pop	r17
    4698:	08 95       	ret

0000469a <_ZN6LSM3037readAccEv>:
    469a:	cf 92       	push	r12
    469c:	df 92       	push	r13
    469e:	ef 92       	push	r14
    46a0:	ff 92       	push	r15
    46a2:	0f 93       	push	r16
    46a4:	1f 93       	push	r17
    46a6:	cf 93       	push	r28
    46a8:	df 93       	push	r29
    46aa:	ec 01       	movw	r28, r24
    46ac:	87 e1       	ldi	r24, 0x17	; 23
    46ae:	94 e0       	ldi	r25, 0x04	; 4
    46b0:	6a a9       	ldd	r22, Y+50	; 0x32
    46b2:	0e 94 18 1d 	call	0x3a30	; 0x3a30 <_ZN7TwoWire17beginTransmissionEh>
    46b6:	87 e1       	ldi	r24, 0x17	; 23
    46b8:	94 e0       	ldi	r25, 0x04	; 4
    46ba:	68 ea       	ldi	r22, 0xA8	; 168
    46bc:	70 e0       	ldi	r23, 0x00	; 0
    46be:	0e 94 9f 1f 	call	0x3f3e	; 0x3f3e <_ZN7TwoWire5writeEi>
    46c2:	87 e1       	ldi	r24, 0x17	; 23
    46c4:	94 e0       	ldi	r25, 0x04	; 4
    46c6:	0e 94 38 1d 	call	0x3a70	; 0x3a70 <_ZN7TwoWire15endTransmissionEv>
    46ca:	88 ab       	std	Y+48, r24	; 0x30
    46cc:	87 e1       	ldi	r24, 0x17	; 23
    46ce:	94 e0       	ldi	r25, 0x04	; 4
    46d0:	6a a9       	ldd	r22, Y+50	; 0x32
    46d2:	46 e0       	ldi	r20, 0x06	; 6
    46d4:	0e 94 0d 1d 	call	0x3a1a	; 0x3a1a <_ZN7TwoWire11requestFromEhh>
    46d8:	0e 94 96 1a 	call	0x352c	; 0x352c <millis>
    46dc:	8b 01       	movw	r16, r22
    46de:	1d aa       	std	Y+53, r1	; 0x35
    46e0:	10 c0       	rjmp	.+32     	; 0x4702 <_ZN6LSM3037readAccEv+0x68>
    46e2:	8b a9       	ldd	r24, Y+51	; 0x33
    46e4:	9c a9       	ldd	r25, Y+52	; 0x34
    46e6:	00 97       	sbiw	r24, 0x00	; 0
    46e8:	61 f0       	breq	.+24     	; 0x4702 <_ZN6LSM3037readAccEv+0x68>
    46ea:	0e 94 96 1a 	call	0x352c	; 0x352c <millis>
    46ee:	60 1b       	sub	r22, r16
    46f0:	71 0b       	sbc	r23, r17
    46f2:	8b a9       	ldd	r24, Y+51	; 0x33
    46f4:	9c a9       	ldd	r25, Y+52	; 0x34
    46f6:	86 17       	cp	r24, r22
    46f8:	97 07       	cpc	r25, r23
    46fa:	18 f4       	brcc	.+6      	; 0x4702 <_ZN6LSM3037readAccEv+0x68>
    46fc:	81 e0       	ldi	r24, 0x01	; 1
    46fe:	8d ab       	std	Y+53, r24	; 0x35
    4700:	64 c0       	rjmp	.+200    	; 0x47ca <_ZN6LSM3037readAccEv+0x130>
    4702:	87 e1       	ldi	r24, 0x17	; 23
    4704:	94 e0       	ldi	r25, 0x04	; 4
    4706:	0e 94 0a 1c 	call	0x3814	; 0x3814 <_ZN7TwoWire9availableEv>
    470a:	86 30       	cpi	r24, 0x06	; 6
    470c:	91 05       	cpc	r25, r1
    470e:	4c f3       	brlt	.-46     	; 0x46e2 <_ZN6LSM3037readAccEv+0x48>
    4710:	87 e1       	ldi	r24, 0x17	; 23
    4712:	94 e0       	ldi	r25, 0x04	; 4
    4714:	0e 94 13 1c 	call	0x3826	; 0x3826 <_ZN7TwoWire4readEv>
    4718:	d8 2e       	mov	r13, r24
    471a:	87 e1       	ldi	r24, 0x17	; 23
    471c:	94 e0       	ldi	r25, 0x04	; 4
    471e:	0e 94 13 1c 	call	0x3826	; 0x3826 <_ZN7TwoWire4readEv>
    4722:	c8 2e       	mov	r12, r24
    4724:	87 e1       	ldi	r24, 0x17	; 23
    4726:	94 e0       	ldi	r25, 0x04	; 4
    4728:	0e 94 13 1c 	call	0x3826	; 0x3826 <_ZN7TwoWire4readEv>
    472c:	f8 2e       	mov	r15, r24
    472e:	87 e1       	ldi	r24, 0x17	; 23
    4730:	94 e0       	ldi	r25, 0x04	; 4
    4732:	0e 94 13 1c 	call	0x3826	; 0x3826 <_ZN7TwoWire4readEv>
    4736:	e8 2e       	mov	r14, r24
    4738:	87 e1       	ldi	r24, 0x17	; 23
    473a:	94 e0       	ldi	r25, 0x04	; 4
    473c:	0e 94 13 1c 	call	0x3826	; 0x3826 <_ZN7TwoWire4readEv>
    4740:	08 2f       	mov	r16, r24
    4742:	87 e1       	ldi	r24, 0x17	; 23
    4744:	94 e0       	ldi	r25, 0x04	; 4
    4746:	0e 94 13 1c 	call	0x3826	; 0x3826 <_ZN7TwoWire4readEv>
    474a:	18 2f       	mov	r17, r24
    474c:	3c 2d       	mov	r19, r12
    474e:	20 e0       	ldi	r18, 0x00	; 0
    4750:	6d 2d       	mov	r22, r13
    4752:	70 e0       	ldi	r23, 0x00	; 0
    4754:	62 2b       	or	r22, r18
    4756:	73 2b       	or	r23, r19
    4758:	34 e0       	ldi	r19, 0x04	; 4
    475a:	75 95       	asr	r23
    475c:	67 95       	ror	r22
    475e:	3a 95       	dec	r19
    4760:	e1 f7       	brne	.-8      	; 0x475a <_ZN6LSM3037readAccEv+0xc0>
    4762:	88 27       	eor	r24, r24
    4764:	77 fd       	sbrc	r23, 7
    4766:	80 95       	com	r24
    4768:	98 2f       	mov	r25, r24
    476a:	0e 94 1e 29 	call	0x523c	; 0x523c <__floatsisf>
    476e:	68 83       	st	Y, r22
    4770:	79 83       	std	Y+1, r23	; 0x01
    4772:	8a 83       	std	Y+2, r24	; 0x02
    4774:	9b 83       	std	Y+3, r25	; 0x03
    4776:	9e 2d       	mov	r25, r14
    4778:	80 e0       	ldi	r24, 0x00	; 0
    477a:	6f 2d       	mov	r22, r15
    477c:	70 e0       	ldi	r23, 0x00	; 0
    477e:	68 2b       	or	r22, r24
    4780:	79 2b       	or	r23, r25
    4782:	24 e0       	ldi	r18, 0x04	; 4
    4784:	75 95       	asr	r23
    4786:	67 95       	ror	r22
    4788:	2a 95       	dec	r18
    478a:	e1 f7       	brne	.-8      	; 0x4784 <_ZN6LSM3037readAccEv+0xea>
    478c:	88 27       	eor	r24, r24
    478e:	77 fd       	sbrc	r23, 7
    4790:	80 95       	com	r24
    4792:	98 2f       	mov	r25, r24
    4794:	0e 94 1e 29 	call	0x523c	; 0x523c <__floatsisf>
    4798:	6c 83       	std	Y+4, r22	; 0x04
    479a:	7d 83       	std	Y+5, r23	; 0x05
    479c:	8e 83       	std	Y+6, r24	; 0x06
    479e:	9f 83       	std	Y+7, r25	; 0x07
    47a0:	91 2f       	mov	r25, r17
    47a2:	80 e0       	ldi	r24, 0x00	; 0
    47a4:	60 2f       	mov	r22, r16
    47a6:	70 e0       	ldi	r23, 0x00	; 0
    47a8:	68 2b       	or	r22, r24
    47aa:	79 2b       	or	r23, r25
    47ac:	94 e0       	ldi	r25, 0x04	; 4
    47ae:	75 95       	asr	r23
    47b0:	67 95       	ror	r22
    47b2:	9a 95       	dec	r25
    47b4:	e1 f7       	brne	.-8      	; 0x47ae <_ZN6LSM3037readAccEv+0x114>
    47b6:	88 27       	eor	r24, r24
    47b8:	77 fd       	sbrc	r23, 7
    47ba:	80 95       	com	r24
    47bc:	98 2f       	mov	r25, r24
    47be:	0e 94 1e 29 	call	0x523c	; 0x523c <__floatsisf>
    47c2:	68 87       	std	Y+8, r22	; 0x08
    47c4:	79 87       	std	Y+9, r23	; 0x09
    47c6:	8a 87       	std	Y+10, r24	; 0x0a
    47c8:	9b 87       	std	Y+11, r25	; 0x0b
    47ca:	df 91       	pop	r29
    47cc:	cf 91       	pop	r28
    47ce:	1f 91       	pop	r17
    47d0:	0f 91       	pop	r16
    47d2:	ff 90       	pop	r15
    47d4:	ef 90       	pop	r14
    47d6:	df 90       	pop	r13
    47d8:	cf 90       	pop	r12
    47da:	08 95       	ret

000047dc <_ZN6LSM3037readMagEv>:
    47dc:	cf 92       	push	r12
    47de:	df 92       	push	r13
    47e0:	ef 92       	push	r14
    47e2:	ff 92       	push	r15
    47e4:	0f 93       	push	r16
    47e6:	1f 93       	push	r17
    47e8:	cf 93       	push	r28
    47ea:	df 93       	push	r29
    47ec:	ec 01       	movw	r28, r24
    47ee:	87 e1       	ldi	r24, 0x17	; 23
    47f0:	94 e0       	ldi	r25, 0x04	; 4
    47f2:	6e e1       	ldi	r22, 0x1E	; 30
    47f4:	70 e0       	ldi	r23, 0x00	; 0
    47f6:	0e 94 22 1d 	call	0x3a44	; 0x3a44 <_ZN7TwoWire17beginTransmissionEi>
    47fa:	87 e1       	ldi	r24, 0x17	; 23
    47fc:	94 e0       	ldi	r25, 0x04	; 4
    47fe:	63 e0       	ldi	r22, 0x03	; 3
    4800:	70 e0       	ldi	r23, 0x00	; 0
    4802:	0e 94 9f 1f 	call	0x3f3e	; 0x3f3e <_ZN7TwoWire5writeEi>
    4806:	87 e1       	ldi	r24, 0x17	; 23
    4808:	94 e0       	ldi	r25, 0x04	; 4
    480a:	0e 94 38 1d 	call	0x3a70	; 0x3a70 <_ZN7TwoWire15endTransmissionEv>
    480e:	88 ab       	std	Y+48, r24	; 0x30
    4810:	87 e1       	ldi	r24, 0x17	; 23
    4812:	94 e0       	ldi	r25, 0x04	; 4
    4814:	6e e1       	ldi	r22, 0x1E	; 30
    4816:	70 e0       	ldi	r23, 0x00	; 0
    4818:	46 e0       	ldi	r20, 0x06	; 6
    481a:	50 e0       	ldi	r21, 0x00	; 0
    481c:	0e 94 11 1d 	call	0x3a22	; 0x3a22 <_ZN7TwoWire11requestFromEii>
    4820:	0e 94 96 1a 	call	0x352c	; 0x352c <millis>
    4824:	8b 01       	movw	r16, r22
    4826:	1d aa       	std	Y+53, r1	; 0x35
    4828:	10 c0       	rjmp	.+32     	; 0x484a <_ZN6LSM3037readMagEv+0x6e>
    482a:	8b a9       	ldd	r24, Y+51	; 0x33
    482c:	9c a9       	ldd	r25, Y+52	; 0x34
    482e:	00 97       	sbiw	r24, 0x00	; 0
    4830:	61 f0       	breq	.+24     	; 0x484a <_ZN6LSM3037readMagEv+0x6e>
    4832:	0e 94 96 1a 	call	0x352c	; 0x352c <millis>
    4836:	60 1b       	sub	r22, r16
    4838:	71 0b       	sbc	r23, r17
    483a:	8b a9       	ldd	r24, Y+51	; 0x33
    483c:	9c a9       	ldd	r25, Y+52	; 0x34
    483e:	86 17       	cp	r24, r22
    4840:	97 07       	cpc	r25, r23
    4842:	18 f4       	brcc	.+6      	; 0x484a <_ZN6LSM3037readMagEv+0x6e>
    4844:	81 e0       	ldi	r24, 0x01	; 1
    4846:	8d ab       	std	Y+53, r24	; 0x35
    4848:	6d c0       	rjmp	.+218    	; 0x4924 <_ZN6LSM3037readMagEv+0x148>
    484a:	87 e1       	ldi	r24, 0x17	; 23
    484c:	94 e0       	ldi	r25, 0x04	; 4
    484e:	0e 94 0a 1c 	call	0x3814	; 0x3814 <_ZN7TwoWire9availableEv>
    4852:	86 30       	cpi	r24, 0x06	; 6
    4854:	91 05       	cpc	r25, r1
    4856:	4c f3       	brlt	.-46     	; 0x482a <_ZN6LSM3037readMagEv+0x4e>
    4858:	87 e1       	ldi	r24, 0x17	; 23
    485a:	94 e0       	ldi	r25, 0x04	; 4
    485c:	0e 94 13 1c 	call	0x3826	; 0x3826 <_ZN7TwoWire4readEv>
    4860:	c8 2e       	mov	r12, r24
    4862:	87 e1       	ldi	r24, 0x17	; 23
    4864:	94 e0       	ldi	r25, 0x04	; 4
    4866:	0e 94 13 1c 	call	0x3826	; 0x3826 <_ZN7TwoWire4readEv>
    486a:	d8 2e       	mov	r13, r24
    486c:	89 a9       	ldd	r24, Y+49	; 0x31
    486e:	88 23       	and	r24, r24
    4870:	a9 f4       	brne	.+42     	; 0x489c <_ZN6LSM3037readMagEv+0xc0>
    4872:	87 e1       	ldi	r24, 0x17	; 23
    4874:	94 e0       	ldi	r25, 0x04	; 4
    4876:	0e 94 13 1c 	call	0x3826	; 0x3826 <_ZN7TwoWire4readEv>
    487a:	e8 2e       	mov	r14, r24
    487c:	87 e1       	ldi	r24, 0x17	; 23
    487e:	94 e0       	ldi	r25, 0x04	; 4
    4880:	0e 94 13 1c 	call	0x3826	; 0x3826 <_ZN7TwoWire4readEv>
    4884:	f8 2e       	mov	r15, r24
    4886:	87 e1       	ldi	r24, 0x17	; 23
    4888:	94 e0       	ldi	r25, 0x04	; 4
    488a:	0e 94 13 1c 	call	0x3826	; 0x3826 <_ZN7TwoWire4readEv>
    488e:	18 2f       	mov	r17, r24
    4890:	87 e1       	ldi	r24, 0x17	; 23
    4892:	94 e0       	ldi	r25, 0x04	; 4
    4894:	0e 94 13 1c 	call	0x3826	; 0x3826 <_ZN7TwoWire4readEv>
    4898:	08 2f       	mov	r16, r24
    489a:	14 c0       	rjmp	.+40     	; 0x48c4 <_ZN6LSM3037readMagEv+0xe8>
    489c:	87 e1       	ldi	r24, 0x17	; 23
    489e:	94 e0       	ldi	r25, 0x04	; 4
    48a0:	0e 94 13 1c 	call	0x3826	; 0x3826 <_ZN7TwoWire4readEv>
    48a4:	18 2f       	mov	r17, r24
    48a6:	87 e1       	ldi	r24, 0x17	; 23
    48a8:	94 e0       	ldi	r25, 0x04	; 4
    48aa:	0e 94 13 1c 	call	0x3826	; 0x3826 <_ZN7TwoWire4readEv>
    48ae:	08 2f       	mov	r16, r24
    48b0:	87 e1       	ldi	r24, 0x17	; 23
    48b2:	94 e0       	ldi	r25, 0x04	; 4
    48b4:	0e 94 13 1c 	call	0x3826	; 0x3826 <_ZN7TwoWire4readEv>
    48b8:	e8 2e       	mov	r14, r24
    48ba:	87 e1       	ldi	r24, 0x17	; 23
    48bc:	94 e0       	ldi	r25, 0x04	; 4
    48be:	0e 94 13 1c 	call	0x3826	; 0x3826 <_ZN7TwoWire4readEv>
    48c2:	f8 2e       	mov	r15, r24
    48c4:	3c 2d       	mov	r19, r12
    48c6:	20 e0       	ldi	r18, 0x00	; 0
    48c8:	6d 2d       	mov	r22, r13
    48ca:	70 e0       	ldi	r23, 0x00	; 0
    48cc:	62 2b       	or	r22, r18
    48ce:	73 2b       	or	r23, r19
    48d0:	88 27       	eor	r24, r24
    48d2:	77 fd       	sbrc	r23, 7
    48d4:	80 95       	com	r24
    48d6:	98 2f       	mov	r25, r24
    48d8:	0e 94 1e 29 	call	0x523c	; 0x523c <__floatsisf>
    48dc:	6c 87       	std	Y+12, r22	; 0x0c
    48de:	7d 87       	std	Y+13, r23	; 0x0d
    48e0:	8e 87       	std	Y+14, r24	; 0x0e
    48e2:	9f 87       	std	Y+15, r25	; 0x0f
    48e4:	9e 2d       	mov	r25, r14
    48e6:	80 e0       	ldi	r24, 0x00	; 0
    48e8:	6f 2d       	mov	r22, r15
    48ea:	70 e0       	ldi	r23, 0x00	; 0
    48ec:	68 2b       	or	r22, r24
    48ee:	79 2b       	or	r23, r25
    48f0:	88 27       	eor	r24, r24
    48f2:	77 fd       	sbrc	r23, 7
    48f4:	80 95       	com	r24
    48f6:	98 2f       	mov	r25, r24
    48f8:	0e 94 1e 29 	call	0x523c	; 0x523c <__floatsisf>
    48fc:	68 8b       	std	Y+16, r22	; 0x10
    48fe:	79 8b       	std	Y+17, r23	; 0x11
    4900:	8a 8b       	std	Y+18, r24	; 0x12
    4902:	9b 8b       	std	Y+19, r25	; 0x13
    4904:	91 2f       	mov	r25, r17
    4906:	80 e0       	ldi	r24, 0x00	; 0
    4908:	60 2f       	mov	r22, r16
    490a:	70 e0       	ldi	r23, 0x00	; 0
    490c:	68 2b       	or	r22, r24
    490e:	79 2b       	or	r23, r25
    4910:	88 27       	eor	r24, r24
    4912:	77 fd       	sbrc	r23, 7
    4914:	80 95       	com	r24
    4916:	98 2f       	mov	r25, r24
    4918:	0e 94 1e 29 	call	0x523c	; 0x523c <__floatsisf>
    491c:	6c 8b       	std	Y+20, r22	; 0x14
    491e:	7d 8b       	std	Y+21, r23	; 0x15
    4920:	8e 8b       	std	Y+22, r24	; 0x16
    4922:	9f 8b       	std	Y+23, r25	; 0x17
    4924:	df 91       	pop	r29
    4926:	cf 91       	pop	r28
    4928:	1f 91       	pop	r17
    492a:	0f 91       	pop	r16
    492c:	ff 90       	pop	r15
    492e:	ef 90       	pop	r14
    4930:	df 90       	pop	r13
    4932:	cf 90       	pop	r12
    4934:	08 95       	ret

00004936 <_ZN6LSM3034readEv>:
    4936:	cf 93       	push	r28
    4938:	df 93       	push	r29
    493a:	ec 01       	movw	r28, r24
    493c:	0e 94 4d 23 	call	0x469a	; 0x469a <_ZN6LSM3037readAccEv>
    4940:	ce 01       	movw	r24, r28
    4942:	0e 94 ee 23 	call	0x47dc	; 0x47dc <_ZN6LSM3037readMagEv>
    4946:	df 91       	pop	r29
    4948:	cf 91       	pop	r28
    494a:	08 95       	ret

0000494c <_ZN6LSM30312vector_crossEPKNS_6vectorES2_PS0_>:
    494c:	2f 92       	push	r2
    494e:	3f 92       	push	r3
    4950:	4f 92       	push	r4
    4952:	5f 92       	push	r5
    4954:	6f 92       	push	r6
    4956:	7f 92       	push	r7
    4958:	8f 92       	push	r8
    495a:	9f 92       	push	r9
    495c:	af 92       	push	r10
    495e:	bf 92       	push	r11
    4960:	cf 92       	push	r12
    4962:	df 92       	push	r13
    4964:	ef 92       	push	r14
    4966:	ff 92       	push	r15
    4968:	0f 93       	push	r16
    496a:	1f 93       	push	r17
    496c:	df 93       	push	r29
    496e:	cf 93       	push	r28
    4970:	00 d0       	rcall	.+0      	; 0x4972 <_ZN6LSM30312vector_crossEPKNS_6vectorES2_PS0_+0x26>
    4972:	00 d0       	rcall	.+0      	; 0x4974 <_ZN6LSM30312vector_crossEPKNS_6vectorES2_PS0_+0x28>
    4974:	00 d0       	rcall	.+0      	; 0x4976 <_ZN6LSM30312vector_crossEPKNS_6vectorES2_PS0_+0x2a>
    4976:	cd b7       	in	r28, 0x3d	; 61
    4978:	de b7       	in	r29, 0x3e	; 62
    497a:	8c 01       	movw	r16, r24
    497c:	7e 83       	std	Y+6, r23	; 0x06
    497e:	6d 83       	std	Y+5, r22	; 0x05
    4980:	1a 01       	movw	r2, r20
    4982:	db 01       	movw	r26, r22
    4984:	18 96       	adiw	r26, 0x08	; 8
    4986:	4d 90       	ld	r4, X+
    4988:	5d 90       	ld	r5, X+
    498a:	6d 90       	ld	r6, X+
    498c:	7c 90       	ld	r7, X
    498e:	1b 97       	sbiw	r26, 0x0b	; 11
    4990:	fc 01       	movw	r30, r24
    4992:	c0 84       	ldd	r12, Z+8	; 0x08
    4994:	d1 84       	ldd	r13, Z+9	; 0x09
    4996:	e2 84       	ldd	r14, Z+10	; 0x0a
    4998:	f3 84       	ldd	r15, Z+11	; 0x0b
    499a:	c3 01       	movw	r24, r6
    499c:	b2 01       	movw	r22, r4
    499e:	24 81       	ldd	r18, Z+4	; 0x04
    49a0:	35 81       	ldd	r19, Z+5	; 0x05
    49a2:	46 81       	ldd	r20, Z+6	; 0x06
    49a4:	57 81       	ldd	r21, Z+7	; 0x07
    49a6:	0e 94 63 2a 	call	0x54c6	; 0x54c6 <__mulsf3>
    49aa:	4b 01       	movw	r8, r22
    49ac:	5c 01       	movw	r10, r24
    49ae:	c7 01       	movw	r24, r14
    49b0:	b6 01       	movw	r22, r12
    49b2:	ad 81       	ldd	r26, Y+5	; 0x05
    49b4:	be 81       	ldd	r27, Y+6	; 0x06
    49b6:	14 96       	adiw	r26, 0x04	; 4
    49b8:	2d 91       	ld	r18, X+
    49ba:	3d 91       	ld	r19, X+
    49bc:	4d 91       	ld	r20, X+
    49be:	5c 91       	ld	r21, X
    49c0:	17 97       	sbiw	r26, 0x07	; 7
    49c2:	0e 94 63 2a 	call	0x54c6	; 0x54c6 <__mulsf3>
    49c6:	9b 01       	movw	r18, r22
    49c8:	ac 01       	movw	r20, r24
    49ca:	c5 01       	movw	r24, r10
    49cc:	b4 01       	movw	r22, r8
    49ce:	0e 94 9e 27 	call	0x4f3c	; 0x4f3c <__subsf3>
    49d2:	f1 01       	movw	r30, r2
    49d4:	60 83       	st	Z, r22
    49d6:	71 83       	std	Z+1, r23	; 0x01
    49d8:	82 83       	std	Z+2, r24	; 0x02
    49da:	93 83       	std	Z+3, r25	; 0x03
    49dc:	ad 81       	ldd	r26, Y+5	; 0x05
    49de:	be 81       	ldd	r27, Y+6	; 0x06
    49e0:	8d 91       	ld	r24, X+
    49e2:	9d 91       	ld	r25, X+
    49e4:	0d 90       	ld	r0, X+
    49e6:	bc 91       	ld	r27, X
    49e8:	a0 2d       	mov	r26, r0
    49ea:	89 83       	std	Y+1, r24	; 0x01
    49ec:	9a 83       	std	Y+2, r25	; 0x02
    49ee:	ab 83       	std	Y+3, r26	; 0x03
    49f0:	bc 83       	std	Y+4, r27	; 0x04
    49f2:	f8 01       	movw	r30, r16
    49f4:	80 80       	ld	r8, Z
    49f6:	91 80       	ldd	r9, Z+1	; 0x01
    49f8:	a2 80       	ldd	r10, Z+2	; 0x02
    49fa:	b3 80       	ldd	r11, Z+3	; 0x03
    49fc:	c7 01       	movw	r24, r14
    49fe:	b6 01       	movw	r22, r12
    4a00:	29 81       	ldd	r18, Y+1	; 0x01
    4a02:	3a 81       	ldd	r19, Y+2	; 0x02
    4a04:	4b 81       	ldd	r20, Y+3	; 0x03
    4a06:	5c 81       	ldd	r21, Y+4	; 0x04
    4a08:	0e 94 63 2a 	call	0x54c6	; 0x54c6 <__mulsf3>
    4a0c:	6b 01       	movw	r12, r22
    4a0e:	7c 01       	movw	r14, r24
    4a10:	c5 01       	movw	r24, r10
    4a12:	b4 01       	movw	r22, r8
    4a14:	a3 01       	movw	r20, r6
    4a16:	92 01       	movw	r18, r4
    4a18:	0e 94 63 2a 	call	0x54c6	; 0x54c6 <__mulsf3>
    4a1c:	9b 01       	movw	r18, r22
    4a1e:	ac 01       	movw	r20, r24
    4a20:	c7 01       	movw	r24, r14
    4a22:	b6 01       	movw	r22, r12
    4a24:	0e 94 9e 27 	call	0x4f3c	; 0x4f3c <__subsf3>
    4a28:	d1 01       	movw	r26, r2
    4a2a:	14 96       	adiw	r26, 0x04	; 4
    4a2c:	6d 93       	st	X+, r22
    4a2e:	7d 93       	st	X+, r23
    4a30:	8d 93       	st	X+, r24
    4a32:	9c 93       	st	X, r25
    4a34:	17 97       	sbiw	r26, 0x07	; 7
    4a36:	c5 01       	movw	r24, r10
    4a38:	b4 01       	movw	r22, r8
    4a3a:	ed 81       	ldd	r30, Y+5	; 0x05
    4a3c:	fe 81       	ldd	r31, Y+6	; 0x06
    4a3e:	24 81       	ldd	r18, Z+4	; 0x04
    4a40:	35 81       	ldd	r19, Z+5	; 0x05
    4a42:	46 81       	ldd	r20, Z+6	; 0x06
    4a44:	57 81       	ldd	r21, Z+7	; 0x07
    4a46:	0e 94 63 2a 	call	0x54c6	; 0x54c6 <__mulsf3>
    4a4a:	6b 01       	movw	r12, r22
    4a4c:	7c 01       	movw	r14, r24
    4a4e:	69 81       	ldd	r22, Y+1	; 0x01
    4a50:	7a 81       	ldd	r23, Y+2	; 0x02
    4a52:	8b 81       	ldd	r24, Y+3	; 0x03
    4a54:	9c 81       	ldd	r25, Y+4	; 0x04
    4a56:	d8 01       	movw	r26, r16
    4a58:	14 96       	adiw	r26, 0x04	; 4
    4a5a:	2d 91       	ld	r18, X+
    4a5c:	3d 91       	ld	r19, X+
    4a5e:	4d 91       	ld	r20, X+
    4a60:	5c 91       	ld	r21, X
    4a62:	17 97       	sbiw	r26, 0x07	; 7
    4a64:	0e 94 63 2a 	call	0x54c6	; 0x54c6 <__mulsf3>
    4a68:	9b 01       	movw	r18, r22
    4a6a:	ac 01       	movw	r20, r24
    4a6c:	c7 01       	movw	r24, r14
    4a6e:	b6 01       	movw	r22, r12
    4a70:	0e 94 9e 27 	call	0x4f3c	; 0x4f3c <__subsf3>
    4a74:	f1 01       	movw	r30, r2
    4a76:	60 87       	std	Z+8, r22	; 0x08
    4a78:	71 87       	std	Z+9, r23	; 0x09
    4a7a:	82 87       	std	Z+10, r24	; 0x0a
    4a7c:	93 87       	std	Z+11, r25	; 0x0b
    4a7e:	26 96       	adiw	r28, 0x06	; 6
    4a80:	0f b6       	in	r0, 0x3f	; 63
    4a82:	f8 94       	cli
    4a84:	de bf       	out	0x3e, r29	; 62
    4a86:	0f be       	out	0x3f, r0	; 63
    4a88:	cd bf       	out	0x3d, r28	; 61
    4a8a:	cf 91       	pop	r28
    4a8c:	df 91       	pop	r29
    4a8e:	1f 91       	pop	r17
    4a90:	0f 91       	pop	r16
    4a92:	ff 90       	pop	r15
    4a94:	ef 90       	pop	r14
    4a96:	df 90       	pop	r13
    4a98:	cf 90       	pop	r12
    4a9a:	bf 90       	pop	r11
    4a9c:	af 90       	pop	r10
    4a9e:	9f 90       	pop	r9
    4aa0:	8f 90       	pop	r8
    4aa2:	7f 90       	pop	r7
    4aa4:	6f 90       	pop	r6
    4aa6:	5f 90       	pop	r5
    4aa8:	4f 90       	pop	r4
    4aaa:	3f 90       	pop	r3
    4aac:	2f 90       	pop	r2
    4aae:	08 95       	ret

00004ab0 <_ZN6LSM30310vector_dotEPKNS_6vectorES2_>:
    4ab0:	cf 92       	push	r12
    4ab2:	df 92       	push	r13
    4ab4:	ef 92       	push	r14
    4ab6:	ff 92       	push	r15
    4ab8:	0f 93       	push	r16
    4aba:	1f 93       	push	r17
    4abc:	cf 93       	push	r28
    4abe:	df 93       	push	r29
    4ac0:	ec 01       	movw	r28, r24
    4ac2:	8b 01       	movw	r16, r22
    4ac4:	68 81       	ld	r22, Y
    4ac6:	79 81       	ldd	r23, Y+1	; 0x01
    4ac8:	8a 81       	ldd	r24, Y+2	; 0x02
    4aca:	9b 81       	ldd	r25, Y+3	; 0x03
    4acc:	f8 01       	movw	r30, r16
    4ace:	20 81       	ld	r18, Z
    4ad0:	31 81       	ldd	r19, Z+1	; 0x01
    4ad2:	42 81       	ldd	r20, Z+2	; 0x02
    4ad4:	53 81       	ldd	r21, Z+3	; 0x03
    4ad6:	0e 94 63 2a 	call	0x54c6	; 0x54c6 <__mulsf3>
    4ada:	6b 01       	movw	r12, r22
    4adc:	7c 01       	movw	r14, r24
    4ade:	6c 81       	ldd	r22, Y+4	; 0x04
    4ae0:	7d 81       	ldd	r23, Y+5	; 0x05
    4ae2:	8e 81       	ldd	r24, Y+6	; 0x06
    4ae4:	9f 81       	ldd	r25, Y+7	; 0x07
    4ae6:	f8 01       	movw	r30, r16
    4ae8:	24 81       	ldd	r18, Z+4	; 0x04
    4aea:	35 81       	ldd	r19, Z+5	; 0x05
    4aec:	46 81       	ldd	r20, Z+6	; 0x06
    4aee:	57 81       	ldd	r21, Z+7	; 0x07
    4af0:	0e 94 63 2a 	call	0x54c6	; 0x54c6 <__mulsf3>
    4af4:	9b 01       	movw	r18, r22
    4af6:	ac 01       	movw	r20, r24
    4af8:	c7 01       	movw	r24, r14
    4afa:	b6 01       	movw	r22, r12
    4afc:	0e 94 9f 27 	call	0x4f3e	; 0x4f3e <__addsf3>
    4b00:	6b 01       	movw	r12, r22
    4b02:	7c 01       	movw	r14, r24
    4b04:	68 85       	ldd	r22, Y+8	; 0x08
    4b06:	79 85       	ldd	r23, Y+9	; 0x09
    4b08:	8a 85       	ldd	r24, Y+10	; 0x0a
    4b0a:	9b 85       	ldd	r25, Y+11	; 0x0b
    4b0c:	f8 01       	movw	r30, r16
    4b0e:	20 85       	ldd	r18, Z+8	; 0x08
    4b10:	31 85       	ldd	r19, Z+9	; 0x09
    4b12:	42 85       	ldd	r20, Z+10	; 0x0a
    4b14:	53 85       	ldd	r21, Z+11	; 0x0b
    4b16:	0e 94 63 2a 	call	0x54c6	; 0x54c6 <__mulsf3>
    4b1a:	9b 01       	movw	r18, r22
    4b1c:	ac 01       	movw	r20, r24
    4b1e:	c7 01       	movw	r24, r14
    4b20:	b6 01       	movw	r22, r12
    4b22:	0e 94 9f 27 	call	0x4f3e	; 0x4f3e <__addsf3>
    4b26:	df 91       	pop	r29
    4b28:	cf 91       	pop	r28
    4b2a:	1f 91       	pop	r17
    4b2c:	0f 91       	pop	r16
    4b2e:	ff 90       	pop	r15
    4b30:	ef 90       	pop	r14
    4b32:	df 90       	pop	r13
    4b34:	cf 90       	pop	r12
    4b36:	08 95       	ret

00004b38 <_ZN6LSM30316vector_normalizeEPNS_6vectorE>:
    4b38:	ef 92       	push	r14
    4b3a:	ff 92       	push	r15
    4b3c:	0f 93       	push	r16
    4b3e:	1f 93       	push	r17
    4b40:	cf 93       	push	r28
    4b42:	df 93       	push	r29
    4b44:	ec 01       	movw	r28, r24
    4b46:	be 01       	movw	r22, r28
    4b48:	0e 94 58 25 	call	0x4ab0	; 0x4ab0 <_ZN6LSM30310vector_dotEPKNS_6vectorES2_>
    4b4c:	0e 94 d0 2a 	call	0x55a0	; 0x55a0 <sqrt>
    4b50:	7b 01       	movw	r14, r22
    4b52:	8c 01       	movw	r16, r24
    4b54:	68 81       	ld	r22, Y
    4b56:	79 81       	ldd	r23, Y+1	; 0x01
    4b58:	8a 81       	ldd	r24, Y+2	; 0x02
    4b5a:	9b 81       	ldd	r25, Y+3	; 0x03
    4b5c:	a8 01       	movw	r20, r16
    4b5e:	97 01       	movw	r18, r14
    4b60:	0e 94 83 28 	call	0x5106	; 0x5106 <__divsf3>
    4b64:	68 83       	st	Y, r22
    4b66:	79 83       	std	Y+1, r23	; 0x01
    4b68:	8a 83       	std	Y+2, r24	; 0x02
    4b6a:	9b 83       	std	Y+3, r25	; 0x03
    4b6c:	6c 81       	ldd	r22, Y+4	; 0x04
    4b6e:	7d 81       	ldd	r23, Y+5	; 0x05
    4b70:	8e 81       	ldd	r24, Y+6	; 0x06
    4b72:	9f 81       	ldd	r25, Y+7	; 0x07
    4b74:	a8 01       	movw	r20, r16
    4b76:	97 01       	movw	r18, r14
    4b78:	0e 94 83 28 	call	0x5106	; 0x5106 <__divsf3>
    4b7c:	6c 83       	std	Y+4, r22	; 0x04
    4b7e:	7d 83       	std	Y+5, r23	; 0x05
    4b80:	8e 83       	std	Y+6, r24	; 0x06
    4b82:	9f 83       	std	Y+7, r25	; 0x07
    4b84:	68 85       	ldd	r22, Y+8	; 0x08
    4b86:	79 85       	ldd	r23, Y+9	; 0x09
    4b88:	8a 85       	ldd	r24, Y+10	; 0x0a
    4b8a:	9b 85       	ldd	r25, Y+11	; 0x0b
    4b8c:	a8 01       	movw	r20, r16
    4b8e:	97 01       	movw	r18, r14
    4b90:	0e 94 83 28 	call	0x5106	; 0x5106 <__divsf3>
    4b94:	68 87       	std	Y+8, r22	; 0x08
    4b96:	79 87       	std	Y+9, r23	; 0x09
    4b98:	8a 87       	std	Y+10, r24	; 0x0a
    4b9a:	9b 87       	std	Y+11, r25	; 0x0b
    4b9c:	df 91       	pop	r29
    4b9e:	cf 91       	pop	r28
    4ba0:	1f 91       	pop	r17
    4ba2:	0f 91       	pop	r16
    4ba4:	ff 90       	pop	r15
    4ba6:	ef 90       	pop	r14
    4ba8:	08 95       	ret

00004baa <_ZN6LSM3037headingENS_6vectorE>:
    4baa:	6f 92       	push	r6
    4bac:	7f 92       	push	r7
    4bae:	8f 92       	push	r8
    4bb0:	9f 92       	push	r9
    4bb2:	af 92       	push	r10
    4bb4:	bf 92       	push	r11
    4bb6:	cf 92       	push	r12
    4bb8:	df 92       	push	r13
    4bba:	ef 92       	push	r14
    4bbc:	ff 92       	push	r15
    4bbe:	0f 93       	push	r16
    4bc0:	1f 93       	push	r17
    4bc2:	df 93       	push	r29
    4bc4:	cf 93       	push	r28
    4bc6:	cd b7       	in	r28, 0x3d	; 61
    4bc8:	de b7       	in	r29, 0x3e	; 62
    4bca:	e0 97       	sbiw	r28, 0x30	; 48
    4bcc:	0f b6       	in	r0, 0x3f	; 63
    4bce:	f8 94       	cli
    4bd0:	de bf       	out	0x3e, r29	; 62
    4bd2:	0f be       	out	0x3f, r0	; 63
    4bd4:	cd bf       	out	0x3d, r28	; 61
    4bd6:	5c 01       	movw	r10, r24
    4bd8:	cd a2       	std	Y+37, r12	; 0x25
    4bda:	de a2       	std	Y+38, r13	; 0x26
    4bdc:	ef a2       	std	Y+39, r14	; 0x27
    4bde:	f8 a6       	std	Y+40, r15	; 0x28
    4be0:	09 a7       	std	Y+41, r16	; 0x29
    4be2:	1a a7       	std	Y+42, r17	; 0x2a
    4be4:	2b a7       	std	Y+43, r18	; 0x2b
    4be6:	3c a7       	std	Y+44, r19	; 0x2c
    4be8:	4d a7       	std	Y+45, r20	; 0x2d
    4bea:	5e a7       	std	Y+46, r21	; 0x2e
    4bec:	6f a7       	std	Y+47, r22	; 0x2f
    4bee:	78 ab       	std	Y+48, r23	; 0x30
    4bf0:	fc 01       	movw	r30, r24
    4bf2:	e4 a0       	ldd	r14, Z+36	; 0x24
    4bf4:	f5 a0       	ldd	r15, Z+37	; 0x25
    4bf6:	06 a1       	ldd	r16, Z+38	; 0x26
    4bf8:	17 a1       	ldd	r17, Z+39	; 0x27
    4bfa:	64 85       	ldd	r22, Z+12	; 0x0c
    4bfc:	75 85       	ldd	r23, Z+13	; 0x0d
    4bfe:	86 85       	ldd	r24, Z+14	; 0x0e
    4c00:	97 85       	ldd	r25, Z+15	; 0x0f
    4c02:	a8 01       	movw	r20, r16
    4c04:	97 01       	movw	r18, r14
    4c06:	0e 94 9e 27 	call	0x4f3c	; 0x4f3c <__subsf3>
    4c0a:	3b 01       	movw	r6, r22
    4c0c:	4c 01       	movw	r8, r24
    4c0e:	f5 01       	movw	r30, r10
    4c10:	60 8d       	ldd	r22, Z+24	; 0x18
    4c12:	71 8d       	ldd	r23, Z+25	; 0x19
    4c14:	82 8d       	ldd	r24, Z+26	; 0x1a
    4c16:	93 8d       	ldd	r25, Z+27	; 0x1b
    4c18:	a8 01       	movw	r20, r16
    4c1a:	97 01       	movw	r18, r14
    4c1c:	0e 94 9e 27 	call	0x4f3c	; 0x4f3c <__subsf3>
    4c20:	9b 01       	movw	r18, r22
    4c22:	ac 01       	movw	r20, r24
    4c24:	c4 01       	movw	r24, r8
    4c26:	b3 01       	movw	r22, r6
    4c28:	0e 94 83 28 	call	0x5106	; 0x5106 <__divsf3>
    4c2c:	9b 01       	movw	r18, r22
    4c2e:	ac 01       	movw	r20, r24
    4c30:	0e 94 9f 27 	call	0x4f3e	; 0x4f3e <__addsf3>
    4c34:	20 e0       	ldi	r18, 0x00	; 0
    4c36:	30 e0       	ldi	r19, 0x00	; 0
    4c38:	40 e8       	ldi	r20, 0x80	; 128
    4c3a:	5f e3       	ldi	r21, 0x3F	; 63
    4c3c:	0e 94 9e 27 	call	0x4f3c	; 0x4f3c <__subsf3>
    4c40:	f5 01       	movw	r30, r10
    4c42:	64 87       	std	Z+12, r22	; 0x0c
    4c44:	75 87       	std	Z+13, r23	; 0x0d
    4c46:	86 87       	std	Z+14, r24	; 0x0e
    4c48:	97 87       	std	Z+15, r25	; 0x0f
    4c4a:	e0 a4       	ldd	r14, Z+40	; 0x28
    4c4c:	f1 a4       	ldd	r15, Z+41	; 0x29
    4c4e:	02 a5       	ldd	r16, Z+42	; 0x2a
    4c50:	13 a5       	ldd	r17, Z+43	; 0x2b
    4c52:	60 89       	ldd	r22, Z+16	; 0x10
    4c54:	71 89       	ldd	r23, Z+17	; 0x11
    4c56:	82 89       	ldd	r24, Z+18	; 0x12
    4c58:	93 89       	ldd	r25, Z+19	; 0x13
    4c5a:	a8 01       	movw	r20, r16
    4c5c:	97 01       	movw	r18, r14
    4c5e:	0e 94 9e 27 	call	0x4f3c	; 0x4f3c <__subsf3>
    4c62:	3b 01       	movw	r6, r22
    4c64:	4c 01       	movw	r8, r24
    4c66:	f5 01       	movw	r30, r10
    4c68:	64 8d       	ldd	r22, Z+28	; 0x1c
    4c6a:	75 8d       	ldd	r23, Z+29	; 0x1d
    4c6c:	86 8d       	ldd	r24, Z+30	; 0x1e
    4c6e:	97 8d       	ldd	r25, Z+31	; 0x1f
    4c70:	a8 01       	movw	r20, r16
    4c72:	97 01       	movw	r18, r14
    4c74:	0e 94 9e 27 	call	0x4f3c	; 0x4f3c <__subsf3>
    4c78:	9b 01       	movw	r18, r22
    4c7a:	ac 01       	movw	r20, r24
    4c7c:	c4 01       	movw	r24, r8
    4c7e:	b3 01       	movw	r22, r6
    4c80:	0e 94 83 28 	call	0x5106	; 0x5106 <__divsf3>
    4c84:	9b 01       	movw	r18, r22
    4c86:	ac 01       	movw	r20, r24
    4c88:	0e 94 9f 27 	call	0x4f3e	; 0x4f3e <__addsf3>
    4c8c:	20 e0       	ldi	r18, 0x00	; 0
    4c8e:	30 e0       	ldi	r19, 0x00	; 0
    4c90:	40 e8       	ldi	r20, 0x80	; 128
    4c92:	5f e3       	ldi	r21, 0x3F	; 63
    4c94:	0e 94 9e 27 	call	0x4f3c	; 0x4f3c <__subsf3>
    4c98:	f5 01       	movw	r30, r10
    4c9a:	60 8b       	std	Z+16, r22	; 0x10
    4c9c:	71 8b       	std	Z+17, r23	; 0x11
    4c9e:	82 8b       	std	Z+18, r24	; 0x12
    4ca0:	93 8b       	std	Z+19, r25	; 0x13
    4ca2:	e4 a4       	ldd	r14, Z+44	; 0x2c
    4ca4:	f5 a4       	ldd	r15, Z+45	; 0x2d
    4ca6:	06 a5       	ldd	r16, Z+46	; 0x2e
    4ca8:	17 a5       	ldd	r17, Z+47	; 0x2f
    4caa:	64 89       	ldd	r22, Z+20	; 0x14
    4cac:	75 89       	ldd	r23, Z+21	; 0x15
    4cae:	86 89       	ldd	r24, Z+22	; 0x16
    4cb0:	97 89       	ldd	r25, Z+23	; 0x17
    4cb2:	a8 01       	movw	r20, r16
    4cb4:	97 01       	movw	r18, r14
    4cb6:	0e 94 9e 27 	call	0x4f3c	; 0x4f3c <__subsf3>
    4cba:	3b 01       	movw	r6, r22
    4cbc:	4c 01       	movw	r8, r24
    4cbe:	f5 01       	movw	r30, r10
    4cc0:	60 a1       	ldd	r22, Z+32	; 0x20
    4cc2:	71 a1       	ldd	r23, Z+33	; 0x21
    4cc4:	82 a1       	ldd	r24, Z+34	; 0x22
    4cc6:	93 a1       	ldd	r25, Z+35	; 0x23
    4cc8:	a8 01       	movw	r20, r16
    4cca:	97 01       	movw	r18, r14
    4ccc:	0e 94 9e 27 	call	0x4f3c	; 0x4f3c <__subsf3>
    4cd0:	9b 01       	movw	r18, r22
    4cd2:	ac 01       	movw	r20, r24
    4cd4:	c4 01       	movw	r24, r8
    4cd6:	b3 01       	movw	r22, r6
    4cd8:	0e 94 83 28 	call	0x5106	; 0x5106 <__divsf3>
    4cdc:	9b 01       	movw	r18, r22
    4cde:	ac 01       	movw	r20, r24
    4ce0:	0e 94 9f 27 	call	0x4f3e	; 0x4f3e <__addsf3>
    4ce4:	20 e0       	ldi	r18, 0x00	; 0
    4ce6:	30 e0       	ldi	r19, 0x00	; 0
    4ce8:	40 e8       	ldi	r20, 0x80	; 128
    4cea:	5f e3       	ldi	r21, 0x3F	; 63
    4cec:	0e 94 9e 27 	call	0x4f3c	; 0x4f3c <__subsf3>
    4cf0:	f5 01       	movw	r30, r10
    4cf2:	64 8b       	std	Z+20, r22	; 0x14
    4cf4:	75 8b       	std	Z+21, r23	; 0x15
    4cf6:	86 8b       	std	Z+22, r24	; 0x16
    4cf8:	97 8b       	std	Z+23, r25	; 0x17
    4cfa:	de 01       	movw	r26, r28
    4cfc:	11 96       	adiw	r26, 0x01	; 1
    4cfe:	8c e0       	ldi	r24, 0x0C	; 12
    4d00:	01 90       	ld	r0, Z+
    4d02:	0d 92       	st	X+, r0
    4d04:	81 50       	subi	r24, 0x01	; 1
    4d06:	e1 f7       	brne	.-8      	; 0x4d00 <_ZN6LSM3037headingENS_6vectorE+0x156>
    4d08:	7e 01       	movw	r14, r28
    4d0a:	08 94       	sec
    4d0c:	e1 1c       	adc	r14, r1
    4d0e:	f1 1c       	adc	r15, r1
    4d10:	c7 01       	movw	r24, r14
    4d12:	0e 94 9c 25 	call	0x4b38	; 0x4b38 <_ZN6LSM30316vector_normalizeEPNS_6vectorE>
    4d16:	8e 01       	movw	r16, r28
    4d18:	03 5f       	subi	r16, 0xF3	; 243
    4d1a:	1f 4f       	sbci	r17, 0xFF	; 255
    4d1c:	c5 01       	movw	r24, r10
    4d1e:	0c 96       	adiw	r24, 0x0c	; 12
    4d20:	b7 01       	movw	r22, r14
    4d22:	a8 01       	movw	r20, r16
    4d24:	0e 94 a6 24 	call	0x494c	; 0x494c <_ZN6LSM30312vector_crossEPKNS_6vectorES2_PS0_>
    4d28:	c8 01       	movw	r24, r16
    4d2a:	0e 94 9c 25 	call	0x4b38	; 0x4b38 <_ZN6LSM30316vector_normalizeEPNS_6vectorE>
    4d2e:	59 e1       	ldi	r21, 0x19	; 25
    4d30:	c5 2e       	mov	r12, r21
    4d32:	d1 2c       	mov	r13, r1
    4d34:	cc 0e       	add	r12, r28
    4d36:	dd 1e       	adc	r13, r29
    4d38:	c7 01       	movw	r24, r14
    4d3a:	b8 01       	movw	r22, r16
    4d3c:	a6 01       	movw	r20, r12
    4d3e:	0e 94 a6 24 	call	0x494c	; 0x494c <_ZN6LSM30312vector_crossEPKNS_6vectorES2_PS0_>
    4d42:	45 e2       	ldi	r20, 0x25	; 37
    4d44:	a4 2e       	mov	r10, r20
    4d46:	b1 2c       	mov	r11, r1
    4d48:	ac 0e       	add	r10, r28
    4d4a:	bd 1e       	adc	r11, r29
    4d4c:	c8 01       	movw	r24, r16
    4d4e:	b5 01       	movw	r22, r10
    4d50:	0e 94 58 25 	call	0x4ab0	; 0x4ab0 <_ZN6LSM30310vector_dotEPKNS_6vectorES2_>
    4d54:	7b 01       	movw	r14, r22
    4d56:	8c 01       	movw	r16, r24
    4d58:	c6 01       	movw	r24, r12
    4d5a:	b5 01       	movw	r22, r10
    4d5c:	0e 94 58 25 	call	0x4ab0	; 0x4ab0 <_ZN6LSM30310vector_dotEPKNS_6vectorES2_>
    4d60:	9b 01       	movw	r18, r22
    4d62:	ac 01       	movw	r20, r24
    4d64:	c8 01       	movw	r24, r16
    4d66:	b7 01       	movw	r22, r14
    4d68:	0e 94 29 28 	call	0x5052	; 0x5052 <atan2>
    4d6c:	20 e0       	ldi	r18, 0x00	; 0
    4d6e:	30 e0       	ldi	r19, 0x00	; 0
    4d70:	44 e3       	ldi	r20, 0x34	; 52
    4d72:	53 e4       	ldi	r21, 0x43	; 67
    4d74:	0e 94 63 2a 	call	0x54c6	; 0x54c6 <__mulsf3>
    4d78:	2b ed       	ldi	r18, 0xDB	; 219
    4d7a:	3f e0       	ldi	r19, 0x0F	; 15
    4d7c:	49 e4       	ldi	r20, 0x49	; 73
    4d7e:	50 e4       	ldi	r21, 0x40	; 64
    4d80:	0e 94 83 28 	call	0x5106	; 0x5106 <__divsf3>
    4d84:	a6 2e       	mov	r10, r22
    4d86:	c7 2e       	mov	r12, r23
    4d88:	e8 2e       	mov	r14, r24
    4d8a:	09 2f       	mov	r16, r25
    4d8c:	20 e0       	ldi	r18, 0x00	; 0
    4d8e:	30 e0       	ldi	r19, 0x00	; 0
    4d90:	a9 01       	movw	r20, r18
    4d92:	0e 94 58 2a 	call	0x54b0	; 0x54b0 <__gesf2>
    4d96:	87 fd       	sbrc	r24, 7
    4d98:	0b c0       	rjmp	.+22     	; 0x4db0 <_ZN6LSM3037headingENS_6vectorE+0x206>
    4d9a:	6a 2d       	mov	r22, r10
    4d9c:	7c 2d       	mov	r23, r12
    4d9e:	8e 2d       	mov	r24, r14
    4da0:	90 2f       	mov	r25, r16
    4da2:	20 e0       	ldi	r18, 0x00	; 0
    4da4:	30 e0       	ldi	r19, 0x00	; 0
    4da6:	40 e0       	ldi	r20, 0x00	; 0
    4da8:	5f e3       	ldi	r21, 0x3F	; 63
    4daa:	0e 94 9f 27 	call	0x4f3e	; 0x4f3e <__addsf3>
    4dae:	0a c0       	rjmp	.+20     	; 0x4dc4 <_ZN6LSM3037headingENS_6vectorE+0x21a>
    4db0:	6a 2d       	mov	r22, r10
    4db2:	7c 2d       	mov	r23, r12
    4db4:	8e 2d       	mov	r24, r14
    4db6:	90 2f       	mov	r25, r16
    4db8:	20 e0       	ldi	r18, 0x00	; 0
    4dba:	30 e0       	ldi	r19, 0x00	; 0
    4dbc:	40 e0       	ldi	r20, 0x00	; 0
    4dbe:	5f e3       	ldi	r21, 0x3F	; 63
    4dc0:	0e 94 9e 27 	call	0x4f3c	; 0x4f3c <__subsf3>
    4dc4:	0e 94 eb 28 	call	0x51d6	; 0x51d6 <__fixsfsi>
    4dc8:	77 ff       	sbrs	r23, 7
    4dca:	02 c0       	rjmp	.+4      	; 0x4dd0 <_ZN6LSM3037headingENS_6vectorE+0x226>
    4dcc:	68 59       	subi	r22, 0x98	; 152
    4dce:	7e 4f       	sbci	r23, 0xFE	; 254
    4dd0:	cb 01       	movw	r24, r22
    4dd2:	e0 96       	adiw	r28, 0x30	; 48
    4dd4:	0f b6       	in	r0, 0x3f	; 63
    4dd6:	f8 94       	cli
    4dd8:	de bf       	out	0x3e, r29	; 62
    4dda:	0f be       	out	0x3f, r0	; 63
    4ddc:	cd bf       	out	0x3d, r28	; 61
    4dde:	cf 91       	pop	r28
    4de0:	df 91       	pop	r29
    4de2:	1f 91       	pop	r17
    4de4:	0f 91       	pop	r16
    4de6:	ff 90       	pop	r15
    4de8:	ef 90       	pop	r14
    4dea:	df 90       	pop	r13
    4dec:	cf 90       	pop	r12
    4dee:	bf 90       	pop	r11
    4df0:	af 90       	pop	r10
    4df2:	9f 90       	pop	r9
    4df4:	8f 90       	pop	r8
    4df6:	7f 90       	pop	r7
    4df8:	6f 90       	pop	r6
    4dfa:	08 95       	ret

00004dfc <_ZN6LSM3037headingEv>:
    4dfc:	cf 92       	push	r12
    4dfe:	df 92       	push	r13
    4e00:	ef 92       	push	r14
    4e02:	ff 92       	push	r15
    4e04:	0f 93       	push	r16
    4e06:	1f 93       	push	r17
    4e08:	df 93       	push	r29
    4e0a:	cf 93       	push	r28
    4e0c:	cd b7       	in	r28, 0x3d	; 61
    4e0e:	de b7       	in	r29, 0x3e	; 62
    4e10:	2c 97       	sbiw	r28, 0x0c	; 12
    4e12:	0f b6       	in	r0, 0x3f	; 63
    4e14:	f8 94       	cli
    4e16:	de bf       	out	0x3e, r29	; 62
    4e18:	0f be       	out	0x3f, r0	; 63
    4e1a:	cd bf       	out	0x3d, r28	; 61
    4e1c:	20 e0       	ldi	r18, 0x00	; 0
    4e1e:	30 e0       	ldi	r19, 0x00	; 0
    4e20:	a9 01       	movw	r20, r18
    4e22:	29 83       	std	Y+1, r18	; 0x01
    4e24:	3a 83       	std	Y+2, r19	; 0x02
    4e26:	4b 83       	std	Y+3, r20	; 0x03
    4e28:	5c 83       	std	Y+4, r21	; 0x04
    4e2a:	0f 2e       	mov	r0, r31
    4e2c:	f0 e0       	ldi	r31, 0x00	; 0
    4e2e:	ef 2e       	mov	r14, r31
    4e30:	f0 e0       	ldi	r31, 0x00	; 0
    4e32:	ff 2e       	mov	r15, r31
    4e34:	f0 e8       	ldi	r31, 0x80	; 128
    4e36:	0f 2f       	mov	r16, r31
    4e38:	ff eb       	ldi	r31, 0xBF	; 191
    4e3a:	1f 2f       	mov	r17, r31
    4e3c:	f0 2d       	mov	r31, r0
    4e3e:	ed 82       	std	Y+5, r14	; 0x05
    4e40:	fe 82       	std	Y+6, r15	; 0x06
    4e42:	0f 83       	std	Y+7, r16	; 0x07
    4e44:	18 87       	std	Y+8, r17	; 0x08
    4e46:	29 87       	std	Y+9, r18	; 0x09
    4e48:	3a 87       	std	Y+10, r19	; 0x0a
    4e4a:	4b 87       	std	Y+11, r20	; 0x0b
    4e4c:	5c 87       	std	Y+12, r21	; 0x0c
    4e4e:	cc 24       	eor	r12, r12
    4e50:	da 80       	ldd	r13, Y+2	; 0x02
    4e52:	eb 80       	ldd	r14, Y+3	; 0x03
    4e54:	fc 80       	ldd	r15, Y+4	; 0x04
    4e56:	00 e0       	ldi	r16, 0x00	; 0
    4e58:	1e 81       	ldd	r17, Y+6	; 0x06
    4e5a:	2f 81       	ldd	r18, Y+7	; 0x07
    4e5c:	38 85       	ldd	r19, Y+8	; 0x08
    4e5e:	40 e0       	ldi	r20, 0x00	; 0
    4e60:	5a 85       	ldd	r21, Y+10	; 0x0a
    4e62:	6b 85       	ldd	r22, Y+11	; 0x0b
    4e64:	7c 85       	ldd	r23, Y+12	; 0x0c
    4e66:	0e 94 d5 25 	call	0x4baa	; 0x4baa <_ZN6LSM3037headingENS_6vectorE>
    4e6a:	2c 96       	adiw	r28, 0x0c	; 12
    4e6c:	0f b6       	in	r0, 0x3f	; 63
    4e6e:	f8 94       	cli
    4e70:	de bf       	out	0x3e, r29	; 62
    4e72:	0f be       	out	0x3f, r0	; 63
    4e74:	cd bf       	out	0x3d, r28	; 61
    4e76:	cf 91       	pop	r28
    4e78:	df 91       	pop	r29
    4e7a:	1f 91       	pop	r17
    4e7c:	0f 91       	pop	r16
    4e7e:	ff 90       	pop	r15
    4e80:	ef 90       	pop	r14
    4e82:	df 90       	pop	r13
    4e84:	cf 90       	pop	r12
    4e86:	08 95       	ret

00004e88 <_ZN6LSM30311detectSA0_AEv>:
    4e88:	cf 93       	push	r28
    4e8a:	df 93       	push	r29
    4e8c:	ec 01       	movw	r28, r24
    4e8e:	87 e1       	ldi	r24, 0x17	; 23
    4e90:	94 e0       	ldi	r25, 0x04	; 4
    4e92:	68 e1       	ldi	r22, 0x18	; 24
    4e94:	70 e0       	ldi	r23, 0x00	; 0
    4e96:	0e 94 22 1d 	call	0x3a44	; 0x3a44 <_ZN7TwoWire17beginTransmissionEi>
    4e9a:	87 e1       	ldi	r24, 0x17	; 23
    4e9c:	94 e0       	ldi	r25, 0x04	; 4
    4e9e:	60 e2       	ldi	r22, 0x20	; 32
    4ea0:	70 e0       	ldi	r23, 0x00	; 0
    4ea2:	0e 94 9f 1f 	call	0x3f3e	; 0x3f3e <_ZN7TwoWire5writeEi>
    4ea6:	87 e1       	ldi	r24, 0x17	; 23
    4ea8:	94 e0       	ldi	r25, 0x04	; 4
    4eaa:	0e 94 38 1d 	call	0x3a70	; 0x3a70 <_ZN7TwoWire15endTransmissionEv>
    4eae:	88 ab       	std	Y+48, r24	; 0x30
    4eb0:	87 e1       	ldi	r24, 0x17	; 23
    4eb2:	94 e0       	ldi	r25, 0x04	; 4
    4eb4:	68 e1       	ldi	r22, 0x18	; 24
    4eb6:	70 e0       	ldi	r23, 0x00	; 0
    4eb8:	41 e0       	ldi	r20, 0x01	; 1
    4eba:	50 e0       	ldi	r21, 0x00	; 0
    4ebc:	0e 94 11 1d 	call	0x3a22	; 0x3a22 <_ZN7TwoWire11requestFromEii>
    4ec0:	87 e1       	ldi	r24, 0x17	; 23
    4ec2:	94 e0       	ldi	r25, 0x04	; 4
    4ec4:	0e 94 0a 1c 	call	0x3814	; 0x3814 <_ZN7TwoWire9availableEv>
    4ec8:	00 97       	sbiw	r24, 0x00	; 0
    4eca:	31 f0       	breq	.+12     	; 0x4ed8 <_ZN6LSM30311detectSA0_AEv+0x50>
    4ecc:	87 e1       	ldi	r24, 0x17	; 23
    4ece:	94 e0       	ldi	r25, 0x04	; 4
    4ed0:	0e 94 13 1c 	call	0x3826	; 0x3826 <_ZN7TwoWire4readEv>
    4ed4:	80 e0       	ldi	r24, 0x00	; 0
    4ed6:	01 c0       	rjmp	.+2      	; 0x4eda <_ZN6LSM30311detectSA0_AEv+0x52>
    4ed8:	81 e0       	ldi	r24, 0x01	; 1
    4eda:	df 91       	pop	r29
    4edc:	cf 91       	pop	r28
    4ede:	08 95       	ret

00004ee0 <_ZN6LSM3034initEhh>:
    4ee0:	cf 93       	push	r28
    4ee2:	df 93       	push	r29
    4ee4:	ec 01       	movw	r28, r24
    4ee6:	69 ab       	std	Y+49, r22	; 0x31
    4ee8:	62 30       	cpi	r22, 0x02	; 2
    4eea:	18 f0       	brcs	.+6      	; 0x4ef2 <_ZN6LSM3034initEhh+0x12>
    4eec:	62 30       	cpi	r22, 0x02	; 2
    4eee:	71 f4       	brne	.+28     	; 0x4f0c <_ZN6LSM3034initEhh+0x2c>
    4ef0:	0a c0       	rjmp	.+20     	; 0x4f06 <_ZN6LSM3034initEhh+0x26>
    4ef2:	44 23       	and	r20, r20
    4ef4:	31 f0       	breq	.+12     	; 0x4f02 <_ZN6LSM3034initEhh+0x22>
    4ef6:	41 30       	cpi	r20, 0x01	; 1
    4ef8:	31 f0       	breq	.+12     	; 0x4f06 <_ZN6LSM3034initEhh+0x26>
    4efa:	0e 94 44 27 	call	0x4e88	; 0x4e88 <_ZN6LSM30311detectSA0_AEv>
    4efe:	81 30       	cpi	r24, 0x01	; 1
    4f00:	11 f0       	breq	.+4      	; 0x4f06 <_ZN6LSM3034initEhh+0x26>
    4f02:	88 e1       	ldi	r24, 0x18	; 24
    4f04:	01 c0       	rjmp	.+2      	; 0x4f08 <_ZN6LSM3034initEhh+0x28>
    4f06:	89 e1       	ldi	r24, 0x19	; 25
    4f08:	8a ab       	std	Y+50, r24	; 0x32
    4f0a:	15 c0       	rjmp	.+42     	; 0x4f36 <_ZN6LSM3034initEhh+0x56>
    4f0c:	0e 94 44 27 	call	0x4e88	; 0x4e88 <_ZN6LSM30311detectSA0_AEv>
    4f10:	81 30       	cpi	r24, 0x01	; 1
    4f12:	29 f4       	brne	.+10     	; 0x4f1e <_ZN6LSM3034initEhh+0x3e>
    4f14:	89 e1       	ldi	r24, 0x19	; 25
    4f16:	8a ab       	std	Y+50, r24	; 0x32
    4f18:	82 e0       	ldi	r24, 0x02	; 2
    4f1a:	89 ab       	std	Y+49, r24	; 0x31
    4f1c:	0c c0       	rjmp	.+24     	; 0x4f36 <_ZN6LSM3034initEhh+0x56>
    4f1e:	88 e1       	ldi	r24, 0x18	; 24
    4f20:	8a ab       	std	Y+50, r24	; 0x32
    4f22:	ce 01       	movw	r24, r28
    4f24:	6f e0       	ldi	r22, 0x0F	; 15
    4f26:	70 e0       	ldi	r23, 0x00	; 0
    4f28:	0e 94 ce 22 	call	0x459c	; 0x459c <_ZN6LSM30310readMagRegEi>
    4f2c:	91 e0       	ldi	r25, 0x01	; 1
    4f2e:	8c 33       	cpi	r24, 0x3C	; 60
    4f30:	09 f0       	breq	.+2      	; 0x4f34 <_ZN6LSM3034initEhh+0x54>
    4f32:	90 e0       	ldi	r25, 0x00	; 0
    4f34:	99 ab       	std	Y+49, r25	; 0x31
    4f36:	df 91       	pop	r29
    4f38:	cf 91       	pop	r28
    4f3a:	08 95       	ret

00004f3c <__subsf3>:
    4f3c:	50 58       	subi	r21, 0x80	; 128

00004f3e <__addsf3>:
    4f3e:	bb 27       	eor	r27, r27
    4f40:	aa 27       	eor	r26, r26
    4f42:	0e d0       	rcall	.+28     	; 0x4f60 <__addsf3x>
    4f44:	6a c2       	rjmp	.+1236   	; 0x541a <__fp_round>
    4f46:	33 d2       	rcall	.+1126   	; 0x53ae <__fp_pscA>
    4f48:	30 f0       	brcs	.+12     	; 0x4f56 <__addsf3+0x18>
    4f4a:	38 d2       	rcall	.+1136   	; 0x53bc <__fp_pscB>
    4f4c:	20 f0       	brcs	.+8      	; 0x4f56 <__addsf3+0x18>
    4f4e:	31 f4       	brne	.+12     	; 0x4f5c <__addsf3+0x1e>
    4f50:	9f 3f       	cpi	r25, 0xFF	; 255
    4f52:	11 f4       	brne	.+4      	; 0x4f58 <__addsf3+0x1a>
    4f54:	1e f4       	brtc	.+6      	; 0x4f5c <__addsf3+0x1e>
    4f56:	f2 c1       	rjmp	.+996    	; 0x533c <__fp_nan>
    4f58:	0e f4       	brtc	.+2      	; 0x4f5c <__addsf3+0x1e>
    4f5a:	e0 95       	com	r30
    4f5c:	e7 fb       	bst	r30, 7
    4f5e:	e8 c1       	rjmp	.+976    	; 0x5330 <__fp_inf>

00004f60 <__addsf3x>:
    4f60:	e9 2f       	mov	r30, r25
    4f62:	7d d2       	rcall	.+1274   	; 0x545e <__fp_split3>
    4f64:	80 f3       	brcs	.-32     	; 0x4f46 <__addsf3+0x8>
    4f66:	ba 17       	cp	r27, r26
    4f68:	62 07       	cpc	r22, r18
    4f6a:	73 07       	cpc	r23, r19
    4f6c:	84 07       	cpc	r24, r20
    4f6e:	95 07       	cpc	r25, r21
    4f70:	18 f0       	brcs	.+6      	; 0x4f78 <__addsf3x+0x18>
    4f72:	71 f4       	brne	.+28     	; 0x4f90 <__addsf3x+0x30>
    4f74:	9e f5       	brtc	.+102    	; 0x4fdc <__addsf3x+0x7c>
    4f76:	95 c2       	rjmp	.+1322   	; 0x54a2 <__fp_zero>
    4f78:	0e f4       	brtc	.+2      	; 0x4f7c <__addsf3x+0x1c>
    4f7a:	e0 95       	com	r30
    4f7c:	0b 2e       	mov	r0, r27
    4f7e:	ba 2f       	mov	r27, r26
    4f80:	a0 2d       	mov	r26, r0
    4f82:	0b 01       	movw	r0, r22
    4f84:	b9 01       	movw	r22, r18
    4f86:	90 01       	movw	r18, r0
    4f88:	0c 01       	movw	r0, r24
    4f8a:	ca 01       	movw	r24, r20
    4f8c:	a0 01       	movw	r20, r0
    4f8e:	11 24       	eor	r1, r1
    4f90:	ff 27       	eor	r31, r31
    4f92:	59 1b       	sub	r21, r25
    4f94:	99 f0       	breq	.+38     	; 0x4fbc <__addsf3x+0x5c>
    4f96:	59 3f       	cpi	r21, 0xF9	; 249
    4f98:	50 f4       	brcc	.+20     	; 0x4fae <__addsf3x+0x4e>
    4f9a:	50 3e       	cpi	r21, 0xE0	; 224
    4f9c:	68 f1       	brcs	.+90     	; 0x4ff8 <__addsf3x+0x98>
    4f9e:	1a 16       	cp	r1, r26
    4fa0:	f0 40       	sbci	r31, 0x00	; 0
    4fa2:	a2 2f       	mov	r26, r18
    4fa4:	23 2f       	mov	r18, r19
    4fa6:	34 2f       	mov	r19, r20
    4fa8:	44 27       	eor	r20, r20
    4faa:	58 5f       	subi	r21, 0xF8	; 248
    4fac:	f3 cf       	rjmp	.-26     	; 0x4f94 <__addsf3x+0x34>
    4fae:	46 95       	lsr	r20
    4fb0:	37 95       	ror	r19
    4fb2:	27 95       	ror	r18
    4fb4:	a7 95       	ror	r26
    4fb6:	f0 40       	sbci	r31, 0x00	; 0
    4fb8:	53 95       	inc	r21
    4fba:	c9 f7       	brne	.-14     	; 0x4fae <__addsf3x+0x4e>
    4fbc:	7e f4       	brtc	.+30     	; 0x4fdc <__addsf3x+0x7c>
    4fbe:	1f 16       	cp	r1, r31
    4fc0:	ba 0b       	sbc	r27, r26
    4fc2:	62 0b       	sbc	r22, r18
    4fc4:	73 0b       	sbc	r23, r19
    4fc6:	84 0b       	sbc	r24, r20
    4fc8:	ba f0       	brmi	.+46     	; 0x4ff8 <__addsf3x+0x98>
    4fca:	91 50       	subi	r25, 0x01	; 1
    4fcc:	a1 f0       	breq	.+40     	; 0x4ff6 <__addsf3x+0x96>
    4fce:	ff 0f       	add	r31, r31
    4fd0:	bb 1f       	adc	r27, r27
    4fd2:	66 1f       	adc	r22, r22
    4fd4:	77 1f       	adc	r23, r23
    4fd6:	88 1f       	adc	r24, r24
    4fd8:	c2 f7       	brpl	.-16     	; 0x4fca <__addsf3x+0x6a>
    4fda:	0e c0       	rjmp	.+28     	; 0x4ff8 <__addsf3x+0x98>
    4fdc:	ba 0f       	add	r27, r26
    4fde:	62 1f       	adc	r22, r18
    4fe0:	73 1f       	adc	r23, r19
    4fe2:	84 1f       	adc	r24, r20
    4fe4:	48 f4       	brcc	.+18     	; 0x4ff8 <__addsf3x+0x98>
    4fe6:	87 95       	ror	r24
    4fe8:	77 95       	ror	r23
    4fea:	67 95       	ror	r22
    4fec:	b7 95       	ror	r27
    4fee:	f7 95       	ror	r31
    4ff0:	9e 3f       	cpi	r25, 0xFE	; 254
    4ff2:	08 f0       	brcs	.+2      	; 0x4ff6 <__addsf3x+0x96>
    4ff4:	b3 cf       	rjmp	.-154    	; 0x4f5c <__addsf3+0x1e>
    4ff6:	93 95       	inc	r25
    4ff8:	88 0f       	add	r24, r24
    4ffa:	08 f0       	brcs	.+2      	; 0x4ffe <__addsf3x+0x9e>
    4ffc:	99 27       	eor	r25, r25
    4ffe:	ee 0f       	add	r30, r30
    5000:	97 95       	ror	r25
    5002:	87 95       	ror	r24
    5004:	08 95       	ret

00005006 <asin>:
    5006:	9f 93       	push	r25
    5008:	9f 77       	andi	r25, 0x7F	; 127
    500a:	ee e3       	ldi	r30, 0x3E	; 62
    500c:	89 37       	cpi	r24, 0x79	; 121
    500e:	9e 07       	cpc	r25, r30
    5010:	20 f4       	brcc	.+8      	; 0x501a <asin+0x14>
    5012:	e8 e6       	ldi	r30, 0x68	; 104
    5014:	f0 e0       	ldi	r31, 0x00	; 0
    5016:	ba d1       	rcall	.+884    	; 0x538c <__fp_powsodd>
    5018:	09 c0       	rjmp	.+18     	; 0x502c <asin+0x26>
    501a:	4b d1       	rcall	.+662    	; 0x52b2 <__fp_arccos>
    501c:	90 58       	subi	r25, 0x80	; 128
    501e:	a2 ea       	ldi	r26, 0xA2	; 162
    5020:	2a ed       	ldi	r18, 0xDA	; 218
    5022:	3f e0       	ldi	r19, 0x0F	; 15
    5024:	49 ec       	ldi	r20, 0xC9	; 201
    5026:	5f e3       	ldi	r21, 0x3F	; 63
    5028:	9b df       	rcall	.-202    	; 0x4f60 <__addsf3x>
    502a:	f7 d1       	rcall	.+1006   	; 0x541a <__fp_round>
    502c:	0f 90       	pop	r0
    502e:	07 fc       	sbrc	r0, 7
    5030:	90 58       	subi	r25, 0x80	; 128
    5032:	08 95       	ret
    5034:	bc d1       	rcall	.+888    	; 0x53ae <__fp_pscA>
    5036:	58 f0       	brcs	.+22     	; 0x504e <asin+0x48>
    5038:	80 e8       	ldi	r24, 0x80	; 128
    503a:	91 e0       	ldi	r25, 0x01	; 1
    503c:	09 f4       	brne	.+2      	; 0x5040 <asin+0x3a>
    503e:	9e ef       	ldi	r25, 0xFE	; 254
    5040:	bd d1       	rcall	.+890    	; 0x53bc <__fp_pscB>
    5042:	28 f0       	brcs	.+10     	; 0x504e <asin+0x48>
    5044:	40 e8       	ldi	r20, 0x80	; 128
    5046:	51 e0       	ldi	r21, 0x01	; 1
    5048:	59 f4       	brne	.+22     	; 0x5060 <atan2+0xe>
    504a:	5e ef       	ldi	r21, 0xFE	; 254
    504c:	09 c0       	rjmp	.+18     	; 0x5060 <atan2+0xe>
    504e:	76 c1       	rjmp	.+748    	; 0x533c <__fp_nan>
    5050:	28 c2       	rjmp	.+1104   	; 0x54a2 <__fp_zero>

00005052 <atan2>:
    5052:	e9 2f       	mov	r30, r25
    5054:	e0 78       	andi	r30, 0x80	; 128
    5056:	03 d2       	rcall	.+1030   	; 0x545e <__fp_split3>
    5058:	68 f3       	brcs	.-38     	; 0x5034 <asin+0x2e>
    505a:	09 2e       	mov	r0, r25
    505c:	05 2a       	or	r0, r21
    505e:	c1 f3       	breq	.-16     	; 0x5050 <asin+0x4a>
    5060:	26 17       	cp	r18, r22
    5062:	37 07       	cpc	r19, r23
    5064:	48 07       	cpc	r20, r24
    5066:	59 07       	cpc	r21, r25
    5068:	38 f0       	brcs	.+14     	; 0x5078 <atan2+0x26>
    506a:	0e 2e       	mov	r0, r30
    506c:	07 f8       	bld	r0, 7
    506e:	e0 25       	eor	r30, r0
    5070:	69 f0       	breq	.+26     	; 0x508c <atan2+0x3a>
    5072:	e0 25       	eor	r30, r0
    5074:	e0 64       	ori	r30, 0x40	; 64
    5076:	0a c0       	rjmp	.+20     	; 0x508c <atan2+0x3a>
    5078:	ef 63       	ori	r30, 0x3F	; 63
    507a:	07 f8       	bld	r0, 7
    507c:	00 94       	com	r0
    507e:	07 fa       	bst	r0, 7
    5080:	db 01       	movw	r26, r22
    5082:	b9 01       	movw	r22, r18
    5084:	9d 01       	movw	r18, r26
    5086:	dc 01       	movw	r26, r24
    5088:	ca 01       	movw	r24, r20
    508a:	ad 01       	movw	r20, r26
    508c:	ef 93       	push	r30
    508e:	4a d0       	rcall	.+148    	; 0x5124 <__divsf3_pse>
    5090:	c4 d1       	rcall	.+904    	; 0x541a <__fp_round>
    5092:	0a d0       	rcall	.+20     	; 0x50a8 <atan>
    5094:	5f 91       	pop	r21
    5096:	55 23       	and	r21, r21
    5098:	31 f0       	breq	.+12     	; 0x50a6 <atan2+0x54>
    509a:	2b ed       	ldi	r18, 0xDB	; 219
    509c:	3f e0       	ldi	r19, 0x0F	; 15
    509e:	49 e4       	ldi	r20, 0x49	; 73
    50a0:	50 fd       	sbrc	r21, 0
    50a2:	49 ec       	ldi	r20, 0xC9	; 201
    50a4:	4c cf       	rjmp	.-360    	; 0x4f3e <__addsf3>
    50a6:	08 95       	ret

000050a8 <atan>:
    50a8:	df 93       	push	r29
    50aa:	dd 27       	eor	r29, r29
    50ac:	b9 2f       	mov	r27, r25
    50ae:	bf 77       	andi	r27, 0x7F	; 127
    50b0:	40 e8       	ldi	r20, 0x80	; 128
    50b2:	5f e3       	ldi	r21, 0x3F	; 63
    50b4:	16 16       	cp	r1, r22
    50b6:	17 06       	cpc	r1, r23
    50b8:	48 07       	cpc	r20, r24
    50ba:	5b 07       	cpc	r21, r27
    50bc:	10 f4       	brcc	.+4      	; 0x50c2 <atan+0x1a>
    50be:	d9 2f       	mov	r29, r25
    50c0:	fb d1       	rcall	.+1014   	; 0x54b8 <inverse>
    50c2:	9f 93       	push	r25
    50c4:	8f 93       	push	r24
    50c6:	7f 93       	push	r23
    50c8:	6f 93       	push	r22
    50ca:	a8 d2       	rcall	.+1360   	; 0x561c <square>
    50cc:	ec e7       	ldi	r30, 0x7C	; 124
    50ce:	f0 e0       	ldi	r31, 0x00	; 0
    50d0:	38 d1       	rcall	.+624    	; 0x5342 <__fp_powser>
    50d2:	a3 d1       	rcall	.+838    	; 0x541a <__fp_round>
    50d4:	2f 91       	pop	r18
    50d6:	3f 91       	pop	r19
    50d8:	4f 91       	pop	r20
    50da:	5f 91       	pop	r21
    50dc:	00 d2       	rcall	.+1024   	; 0x54de <__mulsf3x>
    50de:	dd 23       	and	r29, r29
    50e0:	49 f0       	breq	.+18     	; 0x50f4 <atan+0x4c>
    50e2:	90 58       	subi	r25, 0x80	; 128
    50e4:	a2 ea       	ldi	r26, 0xA2	; 162
    50e6:	2a ed       	ldi	r18, 0xDA	; 218
    50e8:	3f e0       	ldi	r19, 0x0F	; 15
    50ea:	49 ec       	ldi	r20, 0xC9	; 201
    50ec:	5f e3       	ldi	r21, 0x3F	; 63
    50ee:	d0 78       	andi	r29, 0x80	; 128
    50f0:	5d 27       	eor	r21, r29
    50f2:	36 df       	rcall	.-404    	; 0x4f60 <__addsf3x>
    50f4:	df 91       	pop	r29
    50f6:	91 c1       	rjmp	.+802    	; 0x541a <__fp_round>

000050f8 <__cmpsf2>:
    50f8:	f7 d0       	rcall	.+494    	; 0x52e8 <__fp_cmp>
    50fa:	08 f4       	brcc	.+2      	; 0x50fe <__cmpsf2+0x6>
    50fc:	81 e0       	ldi	r24, 0x01	; 1
    50fe:	08 95       	ret

00005100 <cos>:
    5100:	65 d1       	rcall	.+714    	; 0x53cc <__fp_rempio2>
    5102:	e3 95       	inc	r30
    5104:	9b c1       	rjmp	.+822    	; 0x543c <__fp_sinus>

00005106 <__divsf3>:
    5106:	0c d0       	rcall	.+24     	; 0x5120 <__divsf3x>
    5108:	88 c1       	rjmp	.+784    	; 0x541a <__fp_round>
    510a:	58 d1       	rcall	.+688    	; 0x53bc <__fp_pscB>
    510c:	40 f0       	brcs	.+16     	; 0x511e <__divsf3+0x18>
    510e:	4f d1       	rcall	.+670    	; 0x53ae <__fp_pscA>
    5110:	30 f0       	brcs	.+12     	; 0x511e <__divsf3+0x18>
    5112:	21 f4       	brne	.+8      	; 0x511c <__divsf3+0x16>
    5114:	5f 3f       	cpi	r21, 0xFF	; 255
    5116:	19 f0       	breq	.+6      	; 0x511e <__divsf3+0x18>
    5118:	0b c1       	rjmp	.+534    	; 0x5330 <__fp_inf>
    511a:	51 11       	cpse	r21, r1
    511c:	c3 c1       	rjmp	.+902    	; 0x54a4 <__fp_szero>
    511e:	0e c1       	rjmp	.+540    	; 0x533c <__fp_nan>

00005120 <__divsf3x>:
    5120:	9e d1       	rcall	.+828    	; 0x545e <__fp_split3>
    5122:	98 f3       	brcs	.-26     	; 0x510a <__divsf3+0x4>

00005124 <__divsf3_pse>:
    5124:	99 23       	and	r25, r25
    5126:	c9 f3       	breq	.-14     	; 0x511a <__divsf3+0x14>
    5128:	55 23       	and	r21, r21
    512a:	b1 f3       	breq	.-20     	; 0x5118 <__divsf3+0x12>
    512c:	95 1b       	sub	r25, r21
    512e:	55 0b       	sbc	r21, r21
    5130:	bb 27       	eor	r27, r27
    5132:	aa 27       	eor	r26, r26
    5134:	62 17       	cp	r22, r18
    5136:	73 07       	cpc	r23, r19
    5138:	84 07       	cpc	r24, r20
    513a:	38 f0       	brcs	.+14     	; 0x514a <__divsf3_pse+0x26>
    513c:	9f 5f       	subi	r25, 0xFF	; 255
    513e:	5f 4f       	sbci	r21, 0xFF	; 255
    5140:	22 0f       	add	r18, r18
    5142:	33 1f       	adc	r19, r19
    5144:	44 1f       	adc	r20, r20
    5146:	aa 1f       	adc	r26, r26
    5148:	a9 f3       	breq	.-22     	; 0x5134 <__divsf3_pse+0x10>
    514a:	33 d0       	rcall	.+102    	; 0x51b2 <__divsf3_pse+0x8e>
    514c:	0e 2e       	mov	r0, r30
    514e:	3a f0       	brmi	.+14     	; 0x515e <__divsf3_pse+0x3a>
    5150:	e0 e8       	ldi	r30, 0x80	; 128
    5152:	30 d0       	rcall	.+96     	; 0x51b4 <__divsf3_pse+0x90>
    5154:	91 50       	subi	r25, 0x01	; 1
    5156:	50 40       	sbci	r21, 0x00	; 0
    5158:	e6 95       	lsr	r30
    515a:	00 1c       	adc	r0, r0
    515c:	ca f7       	brpl	.-14     	; 0x5150 <__divsf3_pse+0x2c>
    515e:	29 d0       	rcall	.+82     	; 0x51b2 <__divsf3_pse+0x8e>
    5160:	fe 2f       	mov	r31, r30
    5162:	27 d0       	rcall	.+78     	; 0x51b2 <__divsf3_pse+0x8e>
    5164:	66 0f       	add	r22, r22
    5166:	77 1f       	adc	r23, r23
    5168:	88 1f       	adc	r24, r24
    516a:	bb 1f       	adc	r27, r27
    516c:	26 17       	cp	r18, r22
    516e:	37 07       	cpc	r19, r23
    5170:	48 07       	cpc	r20, r24
    5172:	ab 07       	cpc	r26, r27
    5174:	b0 e8       	ldi	r27, 0x80	; 128
    5176:	09 f0       	breq	.+2      	; 0x517a <__divsf3_pse+0x56>
    5178:	bb 0b       	sbc	r27, r27
    517a:	80 2d       	mov	r24, r0
    517c:	bf 01       	movw	r22, r30
    517e:	ff 27       	eor	r31, r31
    5180:	93 58       	subi	r25, 0x83	; 131
    5182:	5f 4f       	sbci	r21, 0xFF	; 255
    5184:	2a f0       	brmi	.+10     	; 0x5190 <__divsf3_pse+0x6c>
    5186:	9e 3f       	cpi	r25, 0xFE	; 254
    5188:	51 05       	cpc	r21, r1
    518a:	68 f0       	brcs	.+26     	; 0x51a6 <__divsf3_pse+0x82>
    518c:	d1 c0       	rjmp	.+418    	; 0x5330 <__fp_inf>
    518e:	8a c1       	rjmp	.+788    	; 0x54a4 <__fp_szero>
    5190:	5f 3f       	cpi	r21, 0xFF	; 255
    5192:	ec f3       	brlt	.-6      	; 0x518e <__divsf3_pse+0x6a>
    5194:	98 3e       	cpi	r25, 0xE8	; 232
    5196:	dc f3       	brlt	.-10     	; 0x518e <__divsf3_pse+0x6a>
    5198:	86 95       	lsr	r24
    519a:	77 95       	ror	r23
    519c:	67 95       	ror	r22
    519e:	b7 95       	ror	r27
    51a0:	f7 95       	ror	r31
    51a2:	9f 5f       	subi	r25, 0xFF	; 255
    51a4:	c9 f7       	brne	.-14     	; 0x5198 <__divsf3_pse+0x74>
    51a6:	88 0f       	add	r24, r24
    51a8:	91 1d       	adc	r25, r1
    51aa:	96 95       	lsr	r25
    51ac:	87 95       	ror	r24
    51ae:	97 f9       	bld	r25, 7
    51b0:	08 95       	ret
    51b2:	e1 e0       	ldi	r30, 0x01	; 1
    51b4:	66 0f       	add	r22, r22
    51b6:	77 1f       	adc	r23, r23
    51b8:	88 1f       	adc	r24, r24
    51ba:	bb 1f       	adc	r27, r27
    51bc:	62 17       	cp	r22, r18
    51be:	73 07       	cpc	r23, r19
    51c0:	84 07       	cpc	r24, r20
    51c2:	ba 07       	cpc	r27, r26
    51c4:	20 f0       	brcs	.+8      	; 0x51ce <__divsf3_pse+0xaa>
    51c6:	62 1b       	sub	r22, r18
    51c8:	73 0b       	sbc	r23, r19
    51ca:	84 0b       	sbc	r24, r20
    51cc:	ba 0b       	sbc	r27, r26
    51ce:	ee 1f       	adc	r30, r30
    51d0:	88 f7       	brcc	.-30     	; 0x51b4 <__divsf3_pse+0x90>
    51d2:	e0 95       	com	r30
    51d4:	08 95       	ret

000051d6 <__fixsfsi>:
    51d6:	04 d0       	rcall	.+8      	; 0x51e0 <__fixunssfsi>
    51d8:	68 94       	set
    51da:	b1 11       	cpse	r27, r1
    51dc:	63 c1       	rjmp	.+710    	; 0x54a4 <__fp_szero>
    51de:	08 95       	ret

000051e0 <__fixunssfsi>:
    51e0:	46 d1       	rcall	.+652    	; 0x546e <__fp_splitA>
    51e2:	88 f0       	brcs	.+34     	; 0x5206 <__fixunssfsi+0x26>
    51e4:	9f 57       	subi	r25, 0x7F	; 127
    51e6:	90 f0       	brcs	.+36     	; 0x520c <__fixunssfsi+0x2c>
    51e8:	b9 2f       	mov	r27, r25
    51ea:	99 27       	eor	r25, r25
    51ec:	b7 51       	subi	r27, 0x17	; 23
    51ee:	a0 f0       	brcs	.+40     	; 0x5218 <__fixunssfsi+0x38>
    51f0:	d1 f0       	breq	.+52     	; 0x5226 <__fixunssfsi+0x46>
    51f2:	66 0f       	add	r22, r22
    51f4:	77 1f       	adc	r23, r23
    51f6:	88 1f       	adc	r24, r24
    51f8:	99 1f       	adc	r25, r25
    51fa:	1a f0       	brmi	.+6      	; 0x5202 <__fixunssfsi+0x22>
    51fc:	ba 95       	dec	r27
    51fe:	c9 f7       	brne	.-14     	; 0x51f2 <__fixunssfsi+0x12>
    5200:	12 c0       	rjmp	.+36     	; 0x5226 <__fixunssfsi+0x46>
    5202:	b1 30       	cpi	r27, 0x01	; 1
    5204:	81 f0       	breq	.+32     	; 0x5226 <__fixunssfsi+0x46>
    5206:	4d d1       	rcall	.+666    	; 0x54a2 <__fp_zero>
    5208:	b1 e0       	ldi	r27, 0x01	; 1
    520a:	08 95       	ret
    520c:	4a c1       	rjmp	.+660    	; 0x54a2 <__fp_zero>
    520e:	67 2f       	mov	r22, r23
    5210:	78 2f       	mov	r23, r24
    5212:	88 27       	eor	r24, r24
    5214:	b8 5f       	subi	r27, 0xF8	; 248
    5216:	39 f0       	breq	.+14     	; 0x5226 <__fixunssfsi+0x46>
    5218:	b9 3f       	cpi	r27, 0xF9	; 249
    521a:	cc f3       	brlt	.-14     	; 0x520e <__fixunssfsi+0x2e>
    521c:	86 95       	lsr	r24
    521e:	77 95       	ror	r23
    5220:	67 95       	ror	r22
    5222:	b3 95       	inc	r27
    5224:	d9 f7       	brne	.-10     	; 0x521c <__fixunssfsi+0x3c>
    5226:	3e f4       	brtc	.+14     	; 0x5236 <__fixunssfsi+0x56>
    5228:	90 95       	com	r25
    522a:	80 95       	com	r24
    522c:	70 95       	com	r23
    522e:	61 95       	neg	r22
    5230:	7f 4f       	sbci	r23, 0xFF	; 255
    5232:	8f 4f       	sbci	r24, 0xFF	; 255
    5234:	9f 4f       	sbci	r25, 0xFF	; 255
    5236:	08 95       	ret

00005238 <__floatunsisf>:
    5238:	e8 94       	clt
    523a:	09 c0       	rjmp	.+18     	; 0x524e <__floatsisf+0x12>

0000523c <__floatsisf>:
    523c:	97 fb       	bst	r25, 7
    523e:	3e f4       	brtc	.+14     	; 0x524e <__floatsisf+0x12>
    5240:	90 95       	com	r25
    5242:	80 95       	com	r24
    5244:	70 95       	com	r23
    5246:	61 95       	neg	r22
    5248:	7f 4f       	sbci	r23, 0xFF	; 255
    524a:	8f 4f       	sbci	r24, 0xFF	; 255
    524c:	9f 4f       	sbci	r25, 0xFF	; 255
    524e:	99 23       	and	r25, r25
    5250:	a9 f0       	breq	.+42     	; 0x527c <__floatsisf+0x40>
    5252:	f9 2f       	mov	r31, r25
    5254:	96 e9       	ldi	r25, 0x96	; 150
    5256:	bb 27       	eor	r27, r27
    5258:	93 95       	inc	r25
    525a:	f6 95       	lsr	r31
    525c:	87 95       	ror	r24
    525e:	77 95       	ror	r23
    5260:	67 95       	ror	r22
    5262:	b7 95       	ror	r27
    5264:	f1 11       	cpse	r31, r1
    5266:	f8 cf       	rjmp	.-16     	; 0x5258 <__floatsisf+0x1c>
    5268:	fa f4       	brpl	.+62     	; 0x52a8 <__floatsisf+0x6c>
    526a:	bb 0f       	add	r27, r27
    526c:	11 f4       	brne	.+4      	; 0x5272 <__floatsisf+0x36>
    526e:	60 ff       	sbrs	r22, 0
    5270:	1b c0       	rjmp	.+54     	; 0x52a8 <__floatsisf+0x6c>
    5272:	6f 5f       	subi	r22, 0xFF	; 255
    5274:	7f 4f       	sbci	r23, 0xFF	; 255
    5276:	8f 4f       	sbci	r24, 0xFF	; 255
    5278:	9f 4f       	sbci	r25, 0xFF	; 255
    527a:	16 c0       	rjmp	.+44     	; 0x52a8 <__floatsisf+0x6c>
    527c:	88 23       	and	r24, r24
    527e:	11 f0       	breq	.+4      	; 0x5284 <__floatsisf+0x48>
    5280:	96 e9       	ldi	r25, 0x96	; 150
    5282:	11 c0       	rjmp	.+34     	; 0x52a6 <__floatsisf+0x6a>
    5284:	77 23       	and	r23, r23
    5286:	21 f0       	breq	.+8      	; 0x5290 <__floatsisf+0x54>
    5288:	9e e8       	ldi	r25, 0x8E	; 142
    528a:	87 2f       	mov	r24, r23
    528c:	76 2f       	mov	r23, r22
    528e:	05 c0       	rjmp	.+10     	; 0x529a <__floatsisf+0x5e>
    5290:	66 23       	and	r22, r22
    5292:	71 f0       	breq	.+28     	; 0x52b0 <__floatsisf+0x74>
    5294:	96 e8       	ldi	r25, 0x86	; 134
    5296:	86 2f       	mov	r24, r22
    5298:	70 e0       	ldi	r23, 0x00	; 0
    529a:	60 e0       	ldi	r22, 0x00	; 0
    529c:	2a f0       	brmi	.+10     	; 0x52a8 <__floatsisf+0x6c>
    529e:	9a 95       	dec	r25
    52a0:	66 0f       	add	r22, r22
    52a2:	77 1f       	adc	r23, r23
    52a4:	88 1f       	adc	r24, r24
    52a6:	da f7       	brpl	.-10     	; 0x529e <__floatsisf+0x62>
    52a8:	88 0f       	add	r24, r24
    52aa:	96 95       	lsr	r25
    52ac:	87 95       	ror	r24
    52ae:	97 f9       	bld	r25, 7
    52b0:	08 95       	ret

000052b2 <__fp_arccos>:
    52b2:	df 93       	push	r29
    52b4:	cf 93       	push	r28
    52b6:	1f 93       	push	r17
    52b8:	0f 93       	push	r16
    52ba:	8b 01       	movw	r16, r22
    52bc:	ec 01       	movw	r28, r24
    52be:	e9 ea       	ldi	r30, 0xA9	; 169
    52c0:	f0 e0       	ldi	r31, 0x00	; 0
    52c2:	3f d0       	rcall	.+126    	; 0x5342 <__fp_powser>
    52c4:	aa d0       	rcall	.+340    	; 0x541a <__fp_round>
    52c6:	98 01       	movw	r18, r16
    52c8:	ae 01       	movw	r20, r28
    52ca:	8b 01       	movw	r16, r22
    52cc:	ec 01       	movw	r28, r24
    52ce:	60 e0       	ldi	r22, 0x00	; 0
    52d0:	70 e0       	ldi	r23, 0x00	; 0
    52d2:	80 e8       	ldi	r24, 0x80	; 128
    52d4:	9f e3       	ldi	r25, 0x3F	; 63
    52d6:	32 de       	rcall	.-924    	; 0x4f3c <__subsf3>
    52d8:	63 d1       	rcall	.+710    	; 0x55a0 <sqrt>
    52da:	98 01       	movw	r18, r16
    52dc:	ae 01       	movw	r20, r28
    52de:	0f 91       	pop	r16
    52e0:	1f 91       	pop	r17
    52e2:	cf 91       	pop	r28
    52e4:	df 91       	pop	r29
    52e6:	fb c0       	rjmp	.+502    	; 0x54de <__mulsf3x>

000052e8 <__fp_cmp>:
    52e8:	99 0f       	add	r25, r25
    52ea:	00 08       	sbc	r0, r0
    52ec:	55 0f       	add	r21, r21
    52ee:	aa 0b       	sbc	r26, r26
    52f0:	e0 e8       	ldi	r30, 0x80	; 128
    52f2:	fe ef       	ldi	r31, 0xFE	; 254
    52f4:	16 16       	cp	r1, r22
    52f6:	17 06       	cpc	r1, r23
    52f8:	e8 07       	cpc	r30, r24
    52fa:	f9 07       	cpc	r31, r25
    52fc:	c0 f0       	brcs	.+48     	; 0x532e <__fp_cmp+0x46>
    52fe:	12 16       	cp	r1, r18
    5300:	13 06       	cpc	r1, r19
    5302:	e4 07       	cpc	r30, r20
    5304:	f5 07       	cpc	r31, r21
    5306:	98 f0       	brcs	.+38     	; 0x532e <__fp_cmp+0x46>
    5308:	62 1b       	sub	r22, r18
    530a:	73 0b       	sbc	r23, r19
    530c:	84 0b       	sbc	r24, r20
    530e:	95 0b       	sbc	r25, r21
    5310:	39 f4       	brne	.+14     	; 0x5320 <__fp_cmp+0x38>
    5312:	0a 26       	eor	r0, r26
    5314:	61 f0       	breq	.+24     	; 0x532e <__fp_cmp+0x46>
    5316:	23 2b       	or	r18, r19
    5318:	24 2b       	or	r18, r20
    531a:	25 2b       	or	r18, r21
    531c:	21 f4       	brne	.+8      	; 0x5326 <__fp_cmp+0x3e>
    531e:	08 95       	ret
    5320:	0a 26       	eor	r0, r26
    5322:	09 f4       	brne	.+2      	; 0x5326 <__fp_cmp+0x3e>
    5324:	a1 40       	sbci	r26, 0x01	; 1
    5326:	a6 95       	lsr	r26
    5328:	8f ef       	ldi	r24, 0xFF	; 255
    532a:	81 1d       	adc	r24, r1
    532c:	81 1d       	adc	r24, r1
    532e:	08 95       	ret

00005330 <__fp_inf>:
    5330:	97 f9       	bld	r25, 7
    5332:	9f 67       	ori	r25, 0x7F	; 127
    5334:	80 e8       	ldi	r24, 0x80	; 128
    5336:	70 e0       	ldi	r23, 0x00	; 0
    5338:	60 e0       	ldi	r22, 0x00	; 0
    533a:	08 95       	ret

0000533c <__fp_nan>:
    533c:	9f ef       	ldi	r25, 0xFF	; 255
    533e:	80 ec       	ldi	r24, 0xC0	; 192
    5340:	08 95       	ret

00005342 <__fp_powser>:
    5342:	df 93       	push	r29
    5344:	cf 93       	push	r28
    5346:	1f 93       	push	r17
    5348:	0f 93       	push	r16
    534a:	ff 92       	push	r15
    534c:	ef 92       	push	r14
    534e:	df 92       	push	r13
    5350:	7b 01       	movw	r14, r22
    5352:	8c 01       	movw	r16, r24
    5354:	68 94       	set
    5356:	05 c0       	rjmp	.+10     	; 0x5362 <__fp_powser+0x20>
    5358:	da 2e       	mov	r13, r26
    535a:	ef 01       	movw	r28, r30
    535c:	c0 d0       	rcall	.+384    	; 0x54de <__mulsf3x>
    535e:	fe 01       	movw	r30, r28
    5360:	e8 94       	clt
    5362:	a5 91       	lpm	r26, Z+
    5364:	25 91       	lpm	r18, Z+
    5366:	35 91       	lpm	r19, Z+
    5368:	45 91       	lpm	r20, Z+
    536a:	55 91       	lpm	r21, Z+
    536c:	ae f3       	brts	.-22     	; 0x5358 <__fp_powser+0x16>
    536e:	ef 01       	movw	r28, r30
    5370:	f7 dd       	rcall	.-1042   	; 0x4f60 <__addsf3x>
    5372:	fe 01       	movw	r30, r28
    5374:	97 01       	movw	r18, r14
    5376:	a8 01       	movw	r20, r16
    5378:	da 94       	dec	r13
    537a:	79 f7       	brne	.-34     	; 0x535a <__fp_powser+0x18>
    537c:	df 90       	pop	r13
    537e:	ef 90       	pop	r14
    5380:	ff 90       	pop	r15
    5382:	0f 91       	pop	r16
    5384:	1f 91       	pop	r17
    5386:	cf 91       	pop	r28
    5388:	df 91       	pop	r29
    538a:	08 95       	ret

0000538c <__fp_powsodd>:
    538c:	9f 93       	push	r25
    538e:	8f 93       	push	r24
    5390:	7f 93       	push	r23
    5392:	6f 93       	push	r22
    5394:	ff 93       	push	r31
    5396:	ef 93       	push	r30
    5398:	9b 01       	movw	r18, r22
    539a:	ac 01       	movw	r20, r24
    539c:	94 d0       	rcall	.+296    	; 0x54c6 <__mulsf3>
    539e:	ef 91       	pop	r30
    53a0:	ff 91       	pop	r31
    53a2:	cf df       	rcall	.-98     	; 0x5342 <__fp_powser>
    53a4:	2f 91       	pop	r18
    53a6:	3f 91       	pop	r19
    53a8:	4f 91       	pop	r20
    53aa:	5f 91       	pop	r21
    53ac:	8c c0       	rjmp	.+280    	; 0x54c6 <__mulsf3>

000053ae <__fp_pscA>:
    53ae:	00 24       	eor	r0, r0
    53b0:	0a 94       	dec	r0
    53b2:	16 16       	cp	r1, r22
    53b4:	17 06       	cpc	r1, r23
    53b6:	18 06       	cpc	r1, r24
    53b8:	09 06       	cpc	r0, r25
    53ba:	08 95       	ret

000053bc <__fp_pscB>:
    53bc:	00 24       	eor	r0, r0
    53be:	0a 94       	dec	r0
    53c0:	12 16       	cp	r1, r18
    53c2:	13 06       	cpc	r1, r19
    53c4:	14 06       	cpc	r1, r20
    53c6:	05 06       	cpc	r0, r21
    53c8:	08 95       	ret
    53ca:	b8 cf       	rjmp	.-144    	; 0x533c <__fp_nan>

000053cc <__fp_rempio2>:
    53cc:	50 d0       	rcall	.+160    	; 0x546e <__fp_splitA>
    53ce:	e8 f3       	brcs	.-6      	; 0x53ca <__fp_pscB+0xe>
    53d0:	e8 94       	clt
    53d2:	e0 e0       	ldi	r30, 0x00	; 0
    53d4:	bb 27       	eor	r27, r27
    53d6:	9f 57       	subi	r25, 0x7F	; 127
    53d8:	f0 f0       	brcs	.+60     	; 0x5416 <__fp_rempio2+0x4a>
    53da:	2a ed       	ldi	r18, 0xDA	; 218
    53dc:	3f e0       	ldi	r19, 0x0F	; 15
    53de:	49 ec       	ldi	r20, 0xC9	; 201
    53e0:	06 c0       	rjmp	.+12     	; 0x53ee <__fp_rempio2+0x22>
    53e2:	ee 0f       	add	r30, r30
    53e4:	bb 0f       	add	r27, r27
    53e6:	66 1f       	adc	r22, r22
    53e8:	77 1f       	adc	r23, r23
    53ea:	88 1f       	adc	r24, r24
    53ec:	28 f0       	brcs	.+10     	; 0x53f8 <__fp_rempio2+0x2c>
    53ee:	b2 3a       	cpi	r27, 0xA2	; 162
    53f0:	62 07       	cpc	r22, r18
    53f2:	73 07       	cpc	r23, r19
    53f4:	84 07       	cpc	r24, r20
    53f6:	28 f0       	brcs	.+10     	; 0x5402 <__fp_rempio2+0x36>
    53f8:	b2 5a       	subi	r27, 0xA2	; 162
    53fa:	62 0b       	sbc	r22, r18
    53fc:	73 0b       	sbc	r23, r19
    53fe:	84 0b       	sbc	r24, r20
    5400:	e3 95       	inc	r30
    5402:	9a 95       	dec	r25
    5404:	72 f7       	brpl	.-36     	; 0x53e2 <__fp_rempio2+0x16>
    5406:	80 38       	cpi	r24, 0x80	; 128
    5408:	30 f4       	brcc	.+12     	; 0x5416 <__fp_rempio2+0x4a>
    540a:	9a 95       	dec	r25
    540c:	bb 0f       	add	r27, r27
    540e:	66 1f       	adc	r22, r22
    5410:	77 1f       	adc	r23, r23
    5412:	88 1f       	adc	r24, r24
    5414:	d2 f7       	brpl	.-12     	; 0x540a <__fp_rempio2+0x3e>
    5416:	90 48       	sbci	r25, 0x80	; 128
    5418:	0a c1       	rjmp	.+532    	; 0x562e <__fp_mpack_finite>

0000541a <__fp_round>:
    541a:	09 2e       	mov	r0, r25
    541c:	03 94       	inc	r0
    541e:	00 0c       	add	r0, r0
    5420:	11 f4       	brne	.+4      	; 0x5426 <__fp_round+0xc>
    5422:	88 23       	and	r24, r24
    5424:	52 f0       	brmi	.+20     	; 0x543a <__fp_round+0x20>
    5426:	bb 0f       	add	r27, r27
    5428:	40 f4       	brcc	.+16     	; 0x543a <__fp_round+0x20>
    542a:	bf 2b       	or	r27, r31
    542c:	11 f4       	brne	.+4      	; 0x5432 <__fp_round+0x18>
    542e:	60 ff       	sbrs	r22, 0
    5430:	04 c0       	rjmp	.+8      	; 0x543a <__fp_round+0x20>
    5432:	6f 5f       	subi	r22, 0xFF	; 255
    5434:	7f 4f       	sbci	r23, 0xFF	; 255
    5436:	8f 4f       	sbci	r24, 0xFF	; 255
    5438:	9f 4f       	sbci	r25, 0xFF	; 255
    543a:	08 95       	ret

0000543c <__fp_sinus>:
    543c:	ef 93       	push	r30
    543e:	e0 ff       	sbrs	r30, 0
    5440:	06 c0       	rjmp	.+12     	; 0x544e <__fp_sinus+0x12>
    5442:	a2 ea       	ldi	r26, 0xA2	; 162
    5444:	2a ed       	ldi	r18, 0xDA	; 218
    5446:	3f e0       	ldi	r19, 0x0F	; 15
    5448:	49 ec       	ldi	r20, 0xC9	; 201
    544a:	5f eb       	ldi	r21, 0xBF	; 191
    544c:	89 dd       	rcall	.-1262   	; 0x4f60 <__addsf3x>
    544e:	e5 df       	rcall	.-54     	; 0x541a <__fp_round>
    5450:	0f 90       	pop	r0
    5452:	03 94       	inc	r0
    5454:	01 fc       	sbrc	r0, 1
    5456:	90 58       	subi	r25, 0x80	; 128
    5458:	e1 ed       	ldi	r30, 0xD1	; 209
    545a:	f0 e0       	ldi	r31, 0x00	; 0
    545c:	97 cf       	rjmp	.-210    	; 0x538c <__fp_powsodd>

0000545e <__fp_split3>:
    545e:	57 fd       	sbrc	r21, 7
    5460:	90 58       	subi	r25, 0x80	; 128
    5462:	44 0f       	add	r20, r20
    5464:	55 1f       	adc	r21, r21
    5466:	59 f0       	breq	.+22     	; 0x547e <__fp_splitA+0x10>
    5468:	5f 3f       	cpi	r21, 0xFF	; 255
    546a:	71 f0       	breq	.+28     	; 0x5488 <__fp_splitA+0x1a>
    546c:	47 95       	ror	r20

0000546e <__fp_splitA>:
    546e:	88 0f       	add	r24, r24
    5470:	97 fb       	bst	r25, 7
    5472:	99 1f       	adc	r25, r25
    5474:	61 f0       	breq	.+24     	; 0x548e <__fp_splitA+0x20>
    5476:	9f 3f       	cpi	r25, 0xFF	; 255
    5478:	79 f0       	breq	.+30     	; 0x5498 <__fp_splitA+0x2a>
    547a:	87 95       	ror	r24
    547c:	08 95       	ret
    547e:	12 16       	cp	r1, r18
    5480:	13 06       	cpc	r1, r19
    5482:	14 06       	cpc	r1, r20
    5484:	55 1f       	adc	r21, r21
    5486:	f2 cf       	rjmp	.-28     	; 0x546c <__fp_split3+0xe>
    5488:	46 95       	lsr	r20
    548a:	f1 df       	rcall	.-30     	; 0x546e <__fp_splitA>
    548c:	08 c0       	rjmp	.+16     	; 0x549e <__fp_splitA+0x30>
    548e:	16 16       	cp	r1, r22
    5490:	17 06       	cpc	r1, r23
    5492:	18 06       	cpc	r1, r24
    5494:	99 1f       	adc	r25, r25
    5496:	f1 cf       	rjmp	.-30     	; 0x547a <__fp_splitA+0xc>
    5498:	86 95       	lsr	r24
    549a:	71 05       	cpc	r23, r1
    549c:	61 05       	cpc	r22, r1
    549e:	08 94       	sec
    54a0:	08 95       	ret

000054a2 <__fp_zero>:
    54a2:	e8 94       	clt

000054a4 <__fp_szero>:
    54a4:	bb 27       	eor	r27, r27
    54a6:	66 27       	eor	r22, r22
    54a8:	77 27       	eor	r23, r23
    54aa:	cb 01       	movw	r24, r22
    54ac:	97 f9       	bld	r25, 7
    54ae:	08 95       	ret

000054b0 <__gesf2>:
    54b0:	1b df       	rcall	.-458    	; 0x52e8 <__fp_cmp>
    54b2:	08 f4       	brcc	.+2      	; 0x54b6 <__gesf2+0x6>
    54b4:	8f ef       	ldi	r24, 0xFF	; 255
    54b6:	08 95       	ret

000054b8 <inverse>:
    54b8:	9b 01       	movw	r18, r22
    54ba:	ac 01       	movw	r20, r24
    54bc:	60 e0       	ldi	r22, 0x00	; 0
    54be:	70 e0       	ldi	r23, 0x00	; 0
    54c0:	80 e8       	ldi	r24, 0x80	; 128
    54c2:	9f e3       	ldi	r25, 0x3F	; 63
    54c4:	20 ce       	rjmp	.-960    	; 0x5106 <__divsf3>

000054c6 <__mulsf3>:
    54c6:	0b d0       	rcall	.+22     	; 0x54de <__mulsf3x>
    54c8:	a8 cf       	rjmp	.-176    	; 0x541a <__fp_round>
    54ca:	71 df       	rcall	.-286    	; 0x53ae <__fp_pscA>
    54cc:	28 f0       	brcs	.+10     	; 0x54d8 <__mulsf3+0x12>
    54ce:	76 df       	rcall	.-276    	; 0x53bc <__fp_pscB>
    54d0:	18 f0       	brcs	.+6      	; 0x54d8 <__mulsf3+0x12>
    54d2:	95 23       	and	r25, r21
    54d4:	09 f0       	breq	.+2      	; 0x54d8 <__mulsf3+0x12>
    54d6:	2c cf       	rjmp	.-424    	; 0x5330 <__fp_inf>
    54d8:	31 cf       	rjmp	.-414    	; 0x533c <__fp_nan>
    54da:	11 24       	eor	r1, r1
    54dc:	e3 cf       	rjmp	.-58     	; 0x54a4 <__fp_szero>

000054de <__mulsf3x>:
    54de:	bf df       	rcall	.-130    	; 0x545e <__fp_split3>
    54e0:	a0 f3       	brcs	.-24     	; 0x54ca <__mulsf3+0x4>

000054e2 <__mulsf3_pse>:
    54e2:	95 9f       	mul	r25, r21
    54e4:	d1 f3       	breq	.-12     	; 0x54da <__mulsf3+0x14>
    54e6:	95 0f       	add	r25, r21
    54e8:	50 e0       	ldi	r21, 0x00	; 0
    54ea:	55 1f       	adc	r21, r21
    54ec:	62 9f       	mul	r22, r18
    54ee:	f0 01       	movw	r30, r0
    54f0:	72 9f       	mul	r23, r18
    54f2:	bb 27       	eor	r27, r27
    54f4:	f0 0d       	add	r31, r0
    54f6:	b1 1d       	adc	r27, r1
    54f8:	63 9f       	mul	r22, r19
    54fa:	aa 27       	eor	r26, r26
    54fc:	f0 0d       	add	r31, r0
    54fe:	b1 1d       	adc	r27, r1
    5500:	aa 1f       	adc	r26, r26
    5502:	64 9f       	mul	r22, r20
    5504:	66 27       	eor	r22, r22
    5506:	b0 0d       	add	r27, r0
    5508:	a1 1d       	adc	r26, r1
    550a:	66 1f       	adc	r22, r22
    550c:	82 9f       	mul	r24, r18
    550e:	22 27       	eor	r18, r18
    5510:	b0 0d       	add	r27, r0
    5512:	a1 1d       	adc	r26, r1
    5514:	62 1f       	adc	r22, r18
    5516:	73 9f       	mul	r23, r19
    5518:	b0 0d       	add	r27, r0
    551a:	a1 1d       	adc	r26, r1
    551c:	62 1f       	adc	r22, r18
    551e:	83 9f       	mul	r24, r19
    5520:	a0 0d       	add	r26, r0
    5522:	61 1d       	adc	r22, r1
    5524:	22 1f       	adc	r18, r18
    5526:	74 9f       	mul	r23, r20
    5528:	33 27       	eor	r19, r19
    552a:	a0 0d       	add	r26, r0
    552c:	61 1d       	adc	r22, r1
    552e:	23 1f       	adc	r18, r19
    5530:	84 9f       	mul	r24, r20
    5532:	60 0d       	add	r22, r0
    5534:	21 1d       	adc	r18, r1
    5536:	82 2f       	mov	r24, r18
    5538:	76 2f       	mov	r23, r22
    553a:	6a 2f       	mov	r22, r26
    553c:	11 24       	eor	r1, r1
    553e:	9f 57       	subi	r25, 0x7F	; 127
    5540:	50 40       	sbci	r21, 0x00	; 0
    5542:	8a f0       	brmi	.+34     	; 0x5566 <__mulsf3_pse+0x84>
    5544:	e1 f0       	breq	.+56     	; 0x557e <__mulsf3_pse+0x9c>
    5546:	88 23       	and	r24, r24
    5548:	4a f0       	brmi	.+18     	; 0x555c <__mulsf3_pse+0x7a>
    554a:	ee 0f       	add	r30, r30
    554c:	ff 1f       	adc	r31, r31
    554e:	bb 1f       	adc	r27, r27
    5550:	66 1f       	adc	r22, r22
    5552:	77 1f       	adc	r23, r23
    5554:	88 1f       	adc	r24, r24
    5556:	91 50       	subi	r25, 0x01	; 1
    5558:	50 40       	sbci	r21, 0x00	; 0
    555a:	a9 f7       	brne	.-22     	; 0x5546 <__mulsf3_pse+0x64>
    555c:	9e 3f       	cpi	r25, 0xFE	; 254
    555e:	51 05       	cpc	r21, r1
    5560:	70 f0       	brcs	.+28     	; 0x557e <__mulsf3_pse+0x9c>
    5562:	e6 ce       	rjmp	.-564    	; 0x5330 <__fp_inf>
    5564:	9f cf       	rjmp	.-194    	; 0x54a4 <__fp_szero>
    5566:	5f 3f       	cpi	r21, 0xFF	; 255
    5568:	ec f3       	brlt	.-6      	; 0x5564 <__mulsf3_pse+0x82>
    556a:	98 3e       	cpi	r25, 0xE8	; 232
    556c:	dc f3       	brlt	.-10     	; 0x5564 <__mulsf3_pse+0x82>
    556e:	86 95       	lsr	r24
    5570:	77 95       	ror	r23
    5572:	67 95       	ror	r22
    5574:	b7 95       	ror	r27
    5576:	f7 95       	ror	r31
    5578:	e7 95       	ror	r30
    557a:	9f 5f       	subi	r25, 0xFF	; 255
    557c:	c1 f7       	brne	.-16     	; 0x556e <__mulsf3_pse+0x8c>
    557e:	fe 2b       	or	r31, r30
    5580:	88 0f       	add	r24, r24
    5582:	91 1d       	adc	r25, r1
    5584:	96 95       	lsr	r25
    5586:	87 95       	ror	r24
    5588:	97 f9       	bld	r25, 7
    558a:	08 95       	ret

0000558c <sin>:
    558c:	9f 93       	push	r25
    558e:	1e df       	rcall	.-452    	; 0x53cc <__fp_rempio2>
    5590:	0f 90       	pop	r0
    5592:	07 fc       	sbrc	r0, 7
    5594:	ee 5f       	subi	r30, 0xFE	; 254
    5596:	52 cf       	rjmp	.-348    	; 0x543c <__fp_sinus>
    5598:	11 f4       	brne	.+4      	; 0x559e <sin+0x12>
    559a:	0e f4       	brtc	.+2      	; 0x559e <sin+0x12>
    559c:	cf ce       	rjmp	.-610    	; 0x533c <__fp_nan>
    559e:	45 c0       	rjmp	.+138    	; 0x562a <__fp_mpack>

000055a0 <sqrt>:
    55a0:	66 df       	rcall	.-308    	; 0x546e <__fp_splitA>
    55a2:	d0 f3       	brcs	.-12     	; 0x5598 <sin+0xc>
    55a4:	99 23       	and	r25, r25
    55a6:	d9 f3       	breq	.-10     	; 0x559e <sin+0x12>
    55a8:	ce f3       	brts	.-14     	; 0x559c <sin+0x10>
    55aa:	9f 57       	subi	r25, 0x7F	; 127
    55ac:	55 0b       	sbc	r21, r21
    55ae:	87 ff       	sbrs	r24, 7
    55b0:	4a d0       	rcall	.+148    	; 0x5646 <__fp_norm2>
    55b2:	00 24       	eor	r0, r0
    55b4:	a0 e6       	ldi	r26, 0x60	; 96
    55b6:	40 ea       	ldi	r20, 0xA0	; 160
    55b8:	90 01       	movw	r18, r0
    55ba:	80 58       	subi	r24, 0x80	; 128
    55bc:	56 95       	lsr	r21
    55be:	97 95       	ror	r25
    55c0:	28 f4       	brcc	.+10     	; 0x55cc <sqrt+0x2c>
    55c2:	80 5c       	subi	r24, 0xC0	; 192
    55c4:	66 0f       	add	r22, r22
    55c6:	77 1f       	adc	r23, r23
    55c8:	88 1f       	adc	r24, r24
    55ca:	20 f0       	brcs	.+8      	; 0x55d4 <sqrt+0x34>
    55cc:	26 17       	cp	r18, r22
    55ce:	37 07       	cpc	r19, r23
    55d0:	48 07       	cpc	r20, r24
    55d2:	30 f4       	brcc	.+12     	; 0x55e0 <sqrt+0x40>
    55d4:	62 1b       	sub	r22, r18
    55d6:	73 0b       	sbc	r23, r19
    55d8:	84 0b       	sbc	r24, r20
    55da:	20 29       	or	r18, r0
    55dc:	31 29       	or	r19, r1
    55de:	4a 2b       	or	r20, r26
    55e0:	a6 95       	lsr	r26
    55e2:	17 94       	ror	r1
    55e4:	07 94       	ror	r0
    55e6:	20 25       	eor	r18, r0
    55e8:	31 25       	eor	r19, r1
    55ea:	4a 27       	eor	r20, r26
    55ec:	58 f7       	brcc	.-42     	; 0x55c4 <sqrt+0x24>
    55ee:	66 0f       	add	r22, r22
    55f0:	77 1f       	adc	r23, r23
    55f2:	88 1f       	adc	r24, r24
    55f4:	20 f0       	brcs	.+8      	; 0x55fe <sqrt+0x5e>
    55f6:	26 17       	cp	r18, r22
    55f8:	37 07       	cpc	r19, r23
    55fa:	48 07       	cpc	r20, r24
    55fc:	30 f4       	brcc	.+12     	; 0x560a <sqrt+0x6a>
    55fe:	62 0b       	sbc	r22, r18
    5600:	73 0b       	sbc	r23, r19
    5602:	84 0b       	sbc	r24, r20
    5604:	20 0d       	add	r18, r0
    5606:	31 1d       	adc	r19, r1
    5608:	41 1d       	adc	r20, r1
    560a:	a0 95       	com	r26
    560c:	81 f7       	brne	.-32     	; 0x55ee <sqrt+0x4e>
    560e:	b9 01       	movw	r22, r18
    5610:	84 2f       	mov	r24, r20
    5612:	91 58       	subi	r25, 0x81	; 129
    5614:	88 0f       	add	r24, r24
    5616:	96 95       	lsr	r25
    5618:	87 95       	ror	r24
    561a:	08 95       	ret

0000561c <square>:
    561c:	9b 01       	movw	r18, r22
    561e:	ac 01       	movw	r20, r24
    5620:	52 cf       	rjmp	.-348    	; 0x54c6 <__mulsf3>

00005622 <__unordsf2>:
    5622:	62 de       	rcall	.-828    	; 0x52e8 <__fp_cmp>
    5624:	88 0b       	sbc	r24, r24
    5626:	99 0b       	sbc	r25, r25
    5628:	08 95       	ret

0000562a <__fp_mpack>:
    562a:	9f 3f       	cpi	r25, 0xFF	; 255
    562c:	31 f0       	breq	.+12     	; 0x563a <__fp_mpack_finite+0xc>

0000562e <__fp_mpack_finite>:
    562e:	91 50       	subi	r25, 0x01	; 1
    5630:	20 f4       	brcc	.+8      	; 0x563a <__fp_mpack_finite+0xc>
    5632:	87 95       	ror	r24
    5634:	77 95       	ror	r23
    5636:	67 95       	ror	r22
    5638:	b7 95       	ror	r27
    563a:	88 0f       	add	r24, r24
    563c:	91 1d       	adc	r25, r1
    563e:	96 95       	lsr	r25
    5640:	87 95       	ror	r24
    5642:	97 f9       	bld	r25, 7
    5644:	08 95       	ret

00005646 <__fp_norm2>:
    5646:	91 50       	subi	r25, 0x01	; 1
    5648:	50 40       	sbci	r21, 0x00	; 0
    564a:	66 0f       	add	r22, r22
    564c:	77 1f       	adc	r23, r23
    564e:	88 1f       	adc	r24, r24
    5650:	d2 f7       	brpl	.-12     	; 0x5646 <__fp_norm2>
    5652:	08 95       	ret

00005654 <__divmodhi4>:
    5654:	97 fb       	bst	r25, 7
    5656:	09 2e       	mov	r0, r25
    5658:	07 26       	eor	r0, r23
    565a:	0a d0       	rcall	.+20     	; 0x5670 <__divmodhi4_neg1>
    565c:	77 fd       	sbrc	r23, 7
    565e:	04 d0       	rcall	.+8      	; 0x5668 <__divmodhi4_neg2>
    5660:	2e d0       	rcall	.+92     	; 0x56be <__udivmodhi4>
    5662:	06 d0       	rcall	.+12     	; 0x5670 <__divmodhi4_neg1>
    5664:	00 20       	and	r0, r0
    5666:	1a f4       	brpl	.+6      	; 0x566e <__divmodhi4_exit>

00005668 <__divmodhi4_neg2>:
    5668:	70 95       	com	r23
    566a:	61 95       	neg	r22
    566c:	7f 4f       	sbci	r23, 0xFF	; 255

0000566e <__divmodhi4_exit>:
    566e:	08 95       	ret

00005670 <__divmodhi4_neg1>:
    5670:	f6 f7       	brtc	.-4      	; 0x566e <__divmodhi4_exit>
    5672:	90 95       	com	r25
    5674:	81 95       	neg	r24
    5676:	9f 4f       	sbci	r25, 0xFF	; 255
    5678:	08 95       	ret

0000567a <__udivmodsi4>:
    567a:	a1 e2       	ldi	r26, 0x21	; 33
    567c:	1a 2e       	mov	r1, r26
    567e:	aa 1b       	sub	r26, r26
    5680:	bb 1b       	sub	r27, r27
    5682:	fd 01       	movw	r30, r26
    5684:	0d c0       	rjmp	.+26     	; 0x56a0 <__udivmodsi4_ep>

00005686 <__udivmodsi4_loop>:
    5686:	aa 1f       	adc	r26, r26
    5688:	bb 1f       	adc	r27, r27
    568a:	ee 1f       	adc	r30, r30
    568c:	ff 1f       	adc	r31, r31
    568e:	a2 17       	cp	r26, r18
    5690:	b3 07       	cpc	r27, r19
    5692:	e4 07       	cpc	r30, r20
    5694:	f5 07       	cpc	r31, r21
    5696:	20 f0       	brcs	.+8      	; 0x56a0 <__udivmodsi4_ep>
    5698:	a2 1b       	sub	r26, r18
    569a:	b3 0b       	sbc	r27, r19
    569c:	e4 0b       	sbc	r30, r20
    569e:	f5 0b       	sbc	r31, r21

000056a0 <__udivmodsi4_ep>:
    56a0:	66 1f       	adc	r22, r22
    56a2:	77 1f       	adc	r23, r23
    56a4:	88 1f       	adc	r24, r24
    56a6:	99 1f       	adc	r25, r25
    56a8:	1a 94       	dec	r1
    56aa:	69 f7       	brne	.-38     	; 0x5686 <__udivmodsi4_loop>
    56ac:	60 95       	com	r22
    56ae:	70 95       	com	r23
    56b0:	80 95       	com	r24
    56b2:	90 95       	com	r25
    56b4:	9b 01       	movw	r18, r22
    56b6:	ac 01       	movw	r20, r24
    56b8:	bd 01       	movw	r22, r26
    56ba:	cf 01       	movw	r24, r30
    56bc:	08 95       	ret

000056be <__udivmodhi4>:
    56be:	aa 1b       	sub	r26, r26
    56c0:	bb 1b       	sub	r27, r27
    56c2:	51 e1       	ldi	r21, 0x11	; 17
    56c4:	07 c0       	rjmp	.+14     	; 0x56d4 <__udivmodhi4_ep>

000056c6 <__udivmodhi4_loop>:
    56c6:	aa 1f       	adc	r26, r26
    56c8:	bb 1f       	adc	r27, r27
    56ca:	a6 17       	cp	r26, r22
    56cc:	b7 07       	cpc	r27, r23
    56ce:	10 f0       	brcs	.+4      	; 0x56d4 <__udivmodhi4_ep>
    56d0:	a6 1b       	sub	r26, r22
    56d2:	b7 0b       	sbc	r27, r23

000056d4 <__udivmodhi4_ep>:
    56d4:	88 1f       	adc	r24, r24
    56d6:	99 1f       	adc	r25, r25
    56d8:	5a 95       	dec	r21
    56da:	a9 f7       	brne	.-22     	; 0x56c6 <__udivmodhi4_loop>
    56dc:	80 95       	com	r24
    56de:	90 95       	com	r25
    56e0:	bc 01       	movw	r22, r24
    56e2:	cd 01       	movw	r24, r26
    56e4:	08 95       	ret

000056e6 <__tablejump2__>:
    56e6:	ee 0f       	add	r30, r30
    56e8:	ff 1f       	adc	r31, r31

000056ea <__tablejump__>:
    56ea:	05 90       	lpm	r0, Z+
    56ec:	f4 91       	lpm	r31, Z+
    56ee:	e0 2d       	mov	r30, r0
    56f0:	09 94       	ijmp

000056f2 <malloc>:
    56f2:	cf 93       	push	r28
    56f4:	df 93       	push	r29
    56f6:	82 30       	cpi	r24, 0x02	; 2
    56f8:	91 05       	cpc	r25, r1
    56fa:	10 f4       	brcc	.+4      	; 0x5700 <malloc+0xe>
    56fc:	82 e0       	ldi	r24, 0x02	; 2
    56fe:	90 e0       	ldi	r25, 0x00	; 0
    5700:	e0 91 93 04 	lds	r30, 0x0493
    5704:	f0 91 94 04 	lds	r31, 0x0494
    5708:	40 e0       	ldi	r20, 0x00	; 0
    570a:	50 e0       	ldi	r21, 0x00	; 0
    570c:	20 e0       	ldi	r18, 0x00	; 0
    570e:	30 e0       	ldi	r19, 0x00	; 0
    5710:	26 c0       	rjmp	.+76     	; 0x575e <malloc+0x6c>
    5712:	60 81       	ld	r22, Z
    5714:	71 81       	ldd	r23, Z+1	; 0x01
    5716:	68 17       	cp	r22, r24
    5718:	79 07       	cpc	r23, r25
    571a:	e0 f0       	brcs	.+56     	; 0x5754 <malloc+0x62>
    571c:	68 17       	cp	r22, r24
    571e:	79 07       	cpc	r23, r25
    5720:	81 f4       	brne	.+32     	; 0x5742 <malloc+0x50>
    5722:	82 81       	ldd	r24, Z+2	; 0x02
    5724:	93 81       	ldd	r25, Z+3	; 0x03
    5726:	21 15       	cp	r18, r1
    5728:	31 05       	cpc	r19, r1
    572a:	31 f0       	breq	.+12     	; 0x5738 <malloc+0x46>
    572c:	d9 01       	movw	r26, r18
    572e:	13 96       	adiw	r26, 0x03	; 3
    5730:	9c 93       	st	X, r25
    5732:	8e 93       	st	-X, r24
    5734:	12 97       	sbiw	r26, 0x02	; 2
    5736:	2b c0       	rjmp	.+86     	; 0x578e <malloc+0x9c>
    5738:	90 93 94 04 	sts	0x0494, r25
    573c:	80 93 93 04 	sts	0x0493, r24
    5740:	26 c0       	rjmp	.+76     	; 0x578e <malloc+0x9c>
    5742:	41 15       	cp	r20, r1
    5744:	51 05       	cpc	r21, r1
    5746:	19 f0       	breq	.+6      	; 0x574e <malloc+0x5c>
    5748:	64 17       	cp	r22, r20
    574a:	75 07       	cpc	r23, r21
    574c:	18 f4       	brcc	.+6      	; 0x5754 <malloc+0x62>
    574e:	ab 01       	movw	r20, r22
    5750:	e9 01       	movw	r28, r18
    5752:	df 01       	movw	r26, r30
    5754:	9f 01       	movw	r18, r30
    5756:	72 81       	ldd	r23, Z+2	; 0x02
    5758:	63 81       	ldd	r22, Z+3	; 0x03
    575a:	e7 2f       	mov	r30, r23
    575c:	f6 2f       	mov	r31, r22
    575e:	30 97       	sbiw	r30, 0x00	; 0
    5760:	c1 f6       	brne	.-80     	; 0x5712 <malloc+0x20>
    5762:	41 15       	cp	r20, r1
    5764:	51 05       	cpc	r21, r1
    5766:	01 f1       	breq	.+64     	; 0x57a8 <malloc+0xb6>
    5768:	48 1b       	sub	r20, r24
    576a:	59 0b       	sbc	r21, r25
    576c:	44 30       	cpi	r20, 0x04	; 4
    576e:	51 05       	cpc	r21, r1
    5770:	80 f4       	brcc	.+32     	; 0x5792 <malloc+0xa0>
    5772:	12 96       	adiw	r26, 0x02	; 2
    5774:	8d 91       	ld	r24, X+
    5776:	9c 91       	ld	r25, X
    5778:	13 97       	sbiw	r26, 0x03	; 3
    577a:	20 97       	sbiw	r28, 0x00	; 0
    577c:	19 f0       	breq	.+6      	; 0x5784 <malloc+0x92>
    577e:	9b 83       	std	Y+3, r25	; 0x03
    5780:	8a 83       	std	Y+2, r24	; 0x02
    5782:	04 c0       	rjmp	.+8      	; 0x578c <malloc+0x9a>
    5784:	90 93 94 04 	sts	0x0494, r25
    5788:	80 93 93 04 	sts	0x0493, r24
    578c:	fd 01       	movw	r30, r26
    578e:	32 96       	adiw	r30, 0x02	; 2
    5790:	46 c0       	rjmp	.+140    	; 0x581e <malloc+0x12c>
    5792:	fd 01       	movw	r30, r26
    5794:	e4 0f       	add	r30, r20
    5796:	f5 1f       	adc	r31, r21
    5798:	81 93       	st	Z+, r24
    579a:	91 93       	st	Z+, r25
    579c:	42 50       	subi	r20, 0x02	; 2
    579e:	50 40       	sbci	r21, 0x00	; 0
    57a0:	11 96       	adiw	r26, 0x01	; 1
    57a2:	5c 93       	st	X, r21
    57a4:	4e 93       	st	-X, r20
    57a6:	3b c0       	rjmp	.+118    	; 0x581e <malloc+0x12c>
    57a8:	20 91 91 04 	lds	r18, 0x0491
    57ac:	30 91 92 04 	lds	r19, 0x0492
    57b0:	21 15       	cp	r18, r1
    57b2:	31 05       	cpc	r19, r1
    57b4:	41 f4       	brne	.+16     	; 0x57c6 <malloc+0xd4>
    57b6:	20 91 39 01 	lds	r18, 0x0139
    57ba:	30 91 3a 01 	lds	r19, 0x013A
    57be:	30 93 92 04 	sts	0x0492, r19
    57c2:	20 93 91 04 	sts	0x0491, r18
    57c6:	20 91 3b 01 	lds	r18, 0x013B
    57ca:	30 91 3c 01 	lds	r19, 0x013C
    57ce:	21 15       	cp	r18, r1
    57d0:	31 05       	cpc	r19, r1
    57d2:	41 f4       	brne	.+16     	; 0x57e4 <malloc+0xf2>
    57d4:	2d b7       	in	r18, 0x3d	; 61
    57d6:	3e b7       	in	r19, 0x3e	; 62
    57d8:	40 91 37 01 	lds	r20, 0x0137
    57dc:	50 91 38 01 	lds	r21, 0x0138
    57e0:	24 1b       	sub	r18, r20
    57e2:	35 0b       	sbc	r19, r21
    57e4:	e0 91 91 04 	lds	r30, 0x0491
    57e8:	f0 91 92 04 	lds	r31, 0x0492
    57ec:	e2 17       	cp	r30, r18
    57ee:	f3 07       	cpc	r31, r19
    57f0:	a0 f4       	brcc	.+40     	; 0x581a <malloc+0x128>
    57f2:	2e 1b       	sub	r18, r30
    57f4:	3f 0b       	sbc	r19, r31
    57f6:	28 17       	cp	r18, r24
    57f8:	39 07       	cpc	r19, r25
    57fa:	78 f0       	brcs	.+30     	; 0x581a <malloc+0x128>
    57fc:	ac 01       	movw	r20, r24
    57fe:	4e 5f       	subi	r20, 0xFE	; 254
    5800:	5f 4f       	sbci	r21, 0xFF	; 255
    5802:	24 17       	cp	r18, r20
    5804:	35 07       	cpc	r19, r21
    5806:	48 f0       	brcs	.+18     	; 0x581a <malloc+0x128>
    5808:	4e 0f       	add	r20, r30
    580a:	5f 1f       	adc	r21, r31
    580c:	50 93 92 04 	sts	0x0492, r21
    5810:	40 93 91 04 	sts	0x0491, r20
    5814:	81 93       	st	Z+, r24
    5816:	91 93       	st	Z+, r25
    5818:	02 c0       	rjmp	.+4      	; 0x581e <malloc+0x12c>
    581a:	e0 e0       	ldi	r30, 0x00	; 0
    581c:	f0 e0       	ldi	r31, 0x00	; 0
    581e:	cf 01       	movw	r24, r30
    5820:	df 91       	pop	r29
    5822:	cf 91       	pop	r28
    5824:	08 95       	ret

00005826 <free>:
    5826:	cf 93       	push	r28
    5828:	df 93       	push	r29
    582a:	00 97       	sbiw	r24, 0x00	; 0
    582c:	09 f4       	brne	.+2      	; 0x5830 <free+0xa>
    582e:	91 c0       	rjmp	.+290    	; 0x5952 <free+0x12c>
    5830:	fc 01       	movw	r30, r24
    5832:	32 97       	sbiw	r30, 0x02	; 2
    5834:	13 82       	std	Z+3, r1	; 0x03
    5836:	12 82       	std	Z+2, r1	; 0x02
    5838:	60 91 93 04 	lds	r22, 0x0493
    583c:	70 91 94 04 	lds	r23, 0x0494
    5840:	61 15       	cp	r22, r1
    5842:	71 05       	cpc	r23, r1
    5844:	81 f4       	brne	.+32     	; 0x5866 <free+0x40>
    5846:	20 81       	ld	r18, Z
    5848:	31 81       	ldd	r19, Z+1	; 0x01
    584a:	28 0f       	add	r18, r24
    584c:	39 1f       	adc	r19, r25
    584e:	80 91 91 04 	lds	r24, 0x0491
    5852:	90 91 92 04 	lds	r25, 0x0492
    5856:	82 17       	cp	r24, r18
    5858:	93 07       	cpc	r25, r19
    585a:	99 f5       	brne	.+102    	; 0x58c2 <free+0x9c>
    585c:	f0 93 92 04 	sts	0x0492, r31
    5860:	e0 93 91 04 	sts	0x0491, r30
    5864:	76 c0       	rjmp	.+236    	; 0x5952 <free+0x12c>
    5866:	db 01       	movw	r26, r22
    5868:	80 e0       	ldi	r24, 0x00	; 0
    586a:	90 e0       	ldi	r25, 0x00	; 0
    586c:	02 c0       	rjmp	.+4      	; 0x5872 <free+0x4c>
    586e:	cd 01       	movw	r24, r26
    5870:	d9 01       	movw	r26, r18
    5872:	ae 17       	cp	r26, r30
    5874:	bf 07       	cpc	r27, r31
    5876:	48 f4       	brcc	.+18     	; 0x588a <free+0x64>
    5878:	12 96       	adiw	r26, 0x02	; 2
    587a:	2d 91       	ld	r18, X+
    587c:	3c 91       	ld	r19, X
    587e:	13 97       	sbiw	r26, 0x03	; 3
    5880:	21 15       	cp	r18, r1
    5882:	31 05       	cpc	r19, r1
    5884:	a1 f7       	brne	.-24     	; 0x586e <free+0x48>
    5886:	cd 01       	movw	r24, r26
    5888:	21 c0       	rjmp	.+66     	; 0x58cc <free+0xa6>
    588a:	b3 83       	std	Z+3, r27	; 0x03
    588c:	a2 83       	std	Z+2, r26	; 0x02
    588e:	ef 01       	movw	r28, r30
    5890:	49 91       	ld	r20, Y+
    5892:	59 91       	ld	r21, Y+
    5894:	9e 01       	movw	r18, r28
    5896:	24 0f       	add	r18, r20
    5898:	35 1f       	adc	r19, r21
    589a:	a2 17       	cp	r26, r18
    589c:	b3 07       	cpc	r27, r19
    589e:	79 f4       	brne	.+30     	; 0x58be <free+0x98>
    58a0:	2d 91       	ld	r18, X+
    58a2:	3c 91       	ld	r19, X
    58a4:	11 97       	sbiw	r26, 0x01	; 1
    58a6:	24 0f       	add	r18, r20
    58a8:	35 1f       	adc	r19, r21
    58aa:	2e 5f       	subi	r18, 0xFE	; 254
    58ac:	3f 4f       	sbci	r19, 0xFF	; 255
    58ae:	31 83       	std	Z+1, r19	; 0x01
    58b0:	20 83       	st	Z, r18
    58b2:	12 96       	adiw	r26, 0x02	; 2
    58b4:	2d 91       	ld	r18, X+
    58b6:	3c 91       	ld	r19, X
    58b8:	13 97       	sbiw	r26, 0x03	; 3
    58ba:	33 83       	std	Z+3, r19	; 0x03
    58bc:	22 83       	std	Z+2, r18	; 0x02
    58be:	00 97       	sbiw	r24, 0x00	; 0
    58c0:	29 f4       	brne	.+10     	; 0x58cc <free+0xa6>
    58c2:	f0 93 94 04 	sts	0x0494, r31
    58c6:	e0 93 93 04 	sts	0x0493, r30
    58ca:	43 c0       	rjmp	.+134    	; 0x5952 <free+0x12c>
    58cc:	dc 01       	movw	r26, r24
    58ce:	13 96       	adiw	r26, 0x03	; 3
    58d0:	fc 93       	st	X, r31
    58d2:	ee 93       	st	-X, r30
    58d4:	12 97       	sbiw	r26, 0x02	; 2
    58d6:	4d 91       	ld	r20, X+
    58d8:	5d 91       	ld	r21, X+
    58da:	a4 0f       	add	r26, r20
    58dc:	b5 1f       	adc	r27, r21
    58de:	ea 17       	cp	r30, r26
    58e0:	fb 07       	cpc	r31, r27
    58e2:	69 f4       	brne	.+26     	; 0x58fe <free+0xd8>
    58e4:	20 81       	ld	r18, Z
    58e6:	31 81       	ldd	r19, Z+1	; 0x01
    58e8:	24 0f       	add	r18, r20
    58ea:	35 1f       	adc	r19, r21
    58ec:	2e 5f       	subi	r18, 0xFE	; 254
    58ee:	3f 4f       	sbci	r19, 0xFF	; 255
    58f0:	ec 01       	movw	r28, r24
    58f2:	39 83       	std	Y+1, r19	; 0x01
    58f4:	28 83       	st	Y, r18
    58f6:	22 81       	ldd	r18, Z+2	; 0x02
    58f8:	33 81       	ldd	r19, Z+3	; 0x03
    58fa:	3b 83       	std	Y+3, r19	; 0x03
    58fc:	2a 83       	std	Y+2, r18	; 0x02
    58fe:	e0 e0       	ldi	r30, 0x00	; 0
    5900:	f0 e0       	ldi	r31, 0x00	; 0
    5902:	02 c0       	rjmp	.+4      	; 0x5908 <free+0xe2>
    5904:	fb 01       	movw	r30, r22
    5906:	bc 01       	movw	r22, r24
    5908:	db 01       	movw	r26, r22
    590a:	12 96       	adiw	r26, 0x02	; 2
    590c:	8d 91       	ld	r24, X+
    590e:	9c 91       	ld	r25, X
    5910:	13 97       	sbiw	r26, 0x03	; 3
    5912:	00 97       	sbiw	r24, 0x00	; 0
    5914:	b9 f7       	brne	.-18     	; 0x5904 <free+0xde>
    5916:	9b 01       	movw	r18, r22
    5918:	2e 5f       	subi	r18, 0xFE	; 254
    591a:	3f 4f       	sbci	r19, 0xFF	; 255
    591c:	8d 91       	ld	r24, X+
    591e:	9c 91       	ld	r25, X
    5920:	11 97       	sbiw	r26, 0x01	; 1
    5922:	82 0f       	add	r24, r18
    5924:	93 1f       	adc	r25, r19
    5926:	40 91 91 04 	lds	r20, 0x0491
    592a:	50 91 92 04 	lds	r21, 0x0492
    592e:	48 17       	cp	r20, r24
    5930:	59 07       	cpc	r21, r25
    5932:	79 f4       	brne	.+30     	; 0x5952 <free+0x12c>
    5934:	30 97       	sbiw	r30, 0x00	; 0
    5936:	29 f4       	brne	.+10     	; 0x5942 <free+0x11c>
    5938:	10 92 94 04 	sts	0x0494, r1
    593c:	10 92 93 04 	sts	0x0493, r1
    5940:	02 c0       	rjmp	.+4      	; 0x5946 <free+0x120>
    5942:	13 82       	std	Z+3, r1	; 0x03
    5944:	12 82       	std	Z+2, r1	; 0x02
    5946:	22 50       	subi	r18, 0x02	; 2
    5948:	30 40       	sbci	r19, 0x00	; 0
    594a:	30 93 92 04 	sts	0x0492, r19
    594e:	20 93 91 04 	sts	0x0491, r18
    5952:	df 91       	pop	r29
    5954:	cf 91       	pop	r28
    5956:	08 95       	ret

00005958 <realloc>:
    5958:	a0 e0       	ldi	r26, 0x00	; 0
    595a:	b0 e0       	ldi	r27, 0x00	; 0
    595c:	e2 eb       	ldi	r30, 0xB2	; 178
    595e:	fc e2       	ldi	r31, 0x2C	; 44
    5960:	0c 94 ec 2e 	jmp	0x5dd8	; 0x5dd8 <__prologue_saves__+0xc>
    5964:	8c 01       	movw	r16, r24
    5966:	cb 01       	movw	r24, r22
    5968:	01 15       	cp	r16, r1
    596a:	11 05       	cpc	r17, r1
    596c:	29 f4       	brne	.+10     	; 0x5978 <realloc+0x20>
    596e:	0e 94 79 2b 	call	0x56f2	; 0x56f2 <malloc>
    5972:	08 2f       	mov	r16, r24
    5974:	19 2f       	mov	r17, r25
    5976:	b5 c0       	rjmp	.+362    	; 0x5ae2 <realloc+0x18a>
    5978:	d8 01       	movw	r26, r16
    597a:	12 97       	sbiw	r26, 0x02	; 2
    597c:	98 01       	movw	r18, r16
    597e:	26 0f       	add	r18, r22
    5980:	37 1f       	adc	r19, r23
    5982:	2a 17       	cp	r18, r26
    5984:	3b 07       	cpc	r19, r27
    5986:	08 f4       	brcc	.+2      	; 0x598a <realloc+0x32>
    5988:	aa c0       	rjmp	.+340    	; 0x5ade <realloc+0x186>
    598a:	ed 90       	ld	r14, X+
    598c:	fc 90       	ld	r15, X
    598e:	11 97       	sbiw	r26, 0x01	; 1
    5990:	e6 16       	cp	r14, r22
    5992:	f7 06       	cpc	r15, r23
    5994:	d0 f0       	brcs	.+52     	; 0x59ca <realloc+0x72>
    5996:	45 e0       	ldi	r20, 0x05	; 5
    5998:	e4 16       	cp	r14, r20
    599a:	f1 04       	cpc	r15, r1
    599c:	08 f4       	brcc	.+2      	; 0x59a0 <realloc+0x48>
    599e:	a1 c0       	rjmp	.+322    	; 0x5ae2 <realloc+0x18a>
    59a0:	a7 01       	movw	r20, r14
    59a2:	44 50       	subi	r20, 0x04	; 4
    59a4:	50 40       	sbci	r21, 0x00	; 0
    59a6:	46 17       	cp	r20, r22
    59a8:	57 07       	cpc	r21, r23
    59aa:	08 f4       	brcc	.+2      	; 0x59ae <realloc+0x56>
    59ac:	9a c0       	rjmp	.+308    	; 0x5ae2 <realloc+0x18a>
    59ae:	a7 01       	movw	r20, r14
    59b0:	42 50       	subi	r20, 0x02	; 2
    59b2:	50 40       	sbci	r21, 0x00	; 0
    59b4:	46 1b       	sub	r20, r22
    59b6:	57 0b       	sbc	r21, r23
    59b8:	f9 01       	movw	r30, r18
    59ba:	41 93       	st	Z+, r20
    59bc:	51 93       	st	Z+, r21
    59be:	6d 93       	st	X+, r22
    59c0:	7c 93       	st	X, r23
    59c2:	cf 01       	movw	r24, r30
    59c4:	0e 94 13 2c 	call	0x5826	; 0x5826 <free>
    59c8:	8c c0       	rjmp	.+280    	; 0x5ae2 <realloc+0x18a>
    59ca:	5b 01       	movw	r10, r22
    59cc:	ae 18       	sub	r10, r14
    59ce:	bf 08       	sbc	r11, r15
    59d0:	48 01       	movw	r8, r16
    59d2:	8e 0c       	add	r8, r14
    59d4:	9f 1c       	adc	r9, r15
    59d6:	e0 91 93 04 	lds	r30, 0x0493
    59da:	f0 91 94 04 	lds	r31, 0x0494
    59de:	cc 24       	eor	r12, r12
    59e0:	dd 24       	eor	r13, r13
    59e2:	c0 e0       	ldi	r28, 0x00	; 0
    59e4:	d0 e0       	ldi	r29, 0x00	; 0
    59e6:	41 c0       	rjmp	.+130    	; 0x5a6a <realloc+0x112>
    59e8:	e8 15       	cp	r30, r8
    59ea:	f9 05       	cpc	r31, r9
    59ec:	99 f5       	brne	.+102    	; 0x5a54 <realloc+0xfc>
    59ee:	60 81       	ld	r22, Z
    59f0:	71 81       	ldd	r23, Z+1	; 0x01
    59f2:	ab 01       	movw	r20, r22
    59f4:	4e 5f       	subi	r20, 0xFE	; 254
    59f6:	5f 4f       	sbci	r21, 0xFF	; 255
    59f8:	4a 15       	cp	r20, r10
    59fa:	5b 05       	cpc	r21, r11
    59fc:	58 f1       	brcs	.+86     	; 0x5a54 <realloc+0xfc>
    59fe:	ab 01       	movw	r20, r22
    5a00:	4a 19       	sub	r20, r10
    5a02:	5b 09       	sbc	r21, r11
    5a04:	cc 24       	eor	r12, r12
    5a06:	dd 24       	eor	r13, r13
    5a08:	68 94       	set
    5a0a:	c1 f8       	bld	r12, 1
    5a0c:	c4 0e       	add	r12, r20
    5a0e:	d5 1e       	adc	r13, r21
    5a10:	82 80       	ldd	r8, Z+2	; 0x02
    5a12:	a3 80       	ldd	r10, Z+3	; 0x03
    5a14:	e5 e0       	ldi	r30, 0x05	; 5
    5a16:	ce 16       	cp	r12, r30
    5a18:	d1 04       	cpc	r13, r1
    5a1a:	48 f0       	brcs	.+18     	; 0x5a2e <realloc+0xd6>
    5a1c:	f9 01       	movw	r30, r18
    5a1e:	82 82       	std	Z+2, r8	; 0x02
    5a20:	a3 82       	std	Z+3, r10	; 0x03
    5a22:	51 83       	std	Z+1, r21	; 0x01
    5a24:	40 83       	st	Z, r20
    5a26:	11 96       	adiw	r26, 0x01	; 1
    5a28:	9c 93       	st	X, r25
    5a2a:	8e 93       	st	-X, r24
    5a2c:	09 c0       	rjmp	.+18     	; 0x5a40 <realloc+0xe8>
    5a2e:	c7 01       	movw	r24, r14
    5a30:	02 96       	adiw	r24, 0x02	; 2
    5a32:	86 0f       	add	r24, r22
    5a34:	97 1f       	adc	r25, r23
    5a36:	11 96       	adiw	r26, 0x01	; 1
    5a38:	9c 93       	st	X, r25
    5a3a:	8e 93       	st	-X, r24
    5a3c:	e8 2d       	mov	r30, r8
    5a3e:	fa 2d       	mov	r31, r10
    5a40:	20 97       	sbiw	r28, 0x00	; 0
    5a42:	19 f0       	breq	.+6      	; 0x5a4a <realloc+0xf2>
    5a44:	fb 83       	std	Y+3, r31	; 0x03
    5a46:	ea 83       	std	Y+2, r30	; 0x02
    5a48:	4c c0       	rjmp	.+152    	; 0x5ae2 <realloc+0x18a>
    5a4a:	f0 93 94 04 	sts	0x0494, r31
    5a4e:	e0 93 93 04 	sts	0x0493, r30
    5a52:	47 c0       	rjmp	.+142    	; 0x5ae2 <realloc+0x18a>
    5a54:	40 81       	ld	r20, Z
    5a56:	51 81       	ldd	r21, Z+1	; 0x01
    5a58:	c4 16       	cp	r12, r20
    5a5a:	d5 06       	cpc	r13, r21
    5a5c:	08 f4       	brcc	.+2      	; 0x5a60 <realloc+0x108>
    5a5e:	6a 01       	movw	r12, r20
    5a60:	ef 01       	movw	r28, r30
    5a62:	52 81       	ldd	r21, Z+2	; 0x02
    5a64:	43 81       	ldd	r20, Z+3	; 0x03
    5a66:	e5 2f       	mov	r30, r21
    5a68:	f4 2f       	mov	r31, r20
    5a6a:	30 97       	sbiw	r30, 0x00	; 0
    5a6c:	09 f0       	breq	.+2      	; 0x5a70 <realloc+0x118>
    5a6e:	bc cf       	rjmp	.-136    	; 0x59e8 <realloc+0x90>
    5a70:	40 91 91 04 	lds	r20, 0x0491
    5a74:	50 91 92 04 	lds	r21, 0x0492
    5a78:	48 15       	cp	r20, r8
    5a7a:	59 05       	cpc	r21, r9
    5a7c:	e9 f4       	brne	.+58     	; 0x5ab8 <realloc+0x160>
    5a7e:	c8 16       	cp	r12, r24
    5a80:	d9 06       	cpc	r13, r25
    5a82:	d0 f4       	brcc	.+52     	; 0x5ab8 <realloc+0x160>
    5a84:	40 91 3b 01 	lds	r20, 0x013B
    5a88:	50 91 3c 01 	lds	r21, 0x013C
    5a8c:	41 15       	cp	r20, r1
    5a8e:	51 05       	cpc	r21, r1
    5a90:	41 f4       	brne	.+16     	; 0x5aa2 <realloc+0x14a>
    5a92:	4d b7       	in	r20, 0x3d	; 61
    5a94:	5e b7       	in	r21, 0x3e	; 62
    5a96:	60 91 37 01 	lds	r22, 0x0137
    5a9a:	70 91 38 01 	lds	r23, 0x0138
    5a9e:	46 1b       	sub	r20, r22
    5aa0:	57 0b       	sbc	r21, r23
    5aa2:	24 17       	cp	r18, r20
    5aa4:	35 07       	cpc	r19, r21
    5aa6:	d8 f4       	brcc	.+54     	; 0x5ade <realloc+0x186>
    5aa8:	30 93 92 04 	sts	0x0492, r19
    5aac:	20 93 91 04 	sts	0x0491, r18
    5ab0:	11 96       	adiw	r26, 0x01	; 1
    5ab2:	9c 93       	st	X, r25
    5ab4:	8e 93       	st	-X, r24
    5ab6:	15 c0       	rjmp	.+42     	; 0x5ae2 <realloc+0x18a>
    5ab8:	0e 94 79 2b 	call	0x56f2	; 0x56f2 <malloc>
    5abc:	c8 2e       	mov	r12, r24
    5abe:	e6 01       	movw	r28, r12
    5ac0:	6e 01       	movw	r12, r28
    5ac2:	d9 2e       	mov	r13, r25
    5ac4:	e6 01       	movw	r28, r12
    5ac6:	20 97       	sbiw	r28, 0x00	; 0
    5ac8:	51 f0       	breq	.+20     	; 0x5ade <realloc+0x186>
    5aca:	8c 2d       	mov	r24, r12
    5acc:	b8 01       	movw	r22, r16
    5ace:	a7 01       	movw	r20, r14
    5ad0:	0e 94 b6 2d 	call	0x5b6c	; 0x5b6c <memcpy>
    5ad4:	c8 01       	movw	r24, r16
    5ad6:	0e 94 13 2c 	call	0x5826	; 0x5826 <free>
    5ada:	86 01       	movw	r16, r12
    5adc:	02 c0       	rjmp	.+4      	; 0x5ae2 <realloc+0x18a>
    5ade:	00 e0       	ldi	r16, 0x00	; 0
    5ae0:	10 e0       	ldi	r17, 0x00	; 0
    5ae2:	c8 01       	movw	r24, r16
    5ae4:	cd b7       	in	r28, 0x3d	; 61
    5ae6:	de b7       	in	r29, 0x3e	; 62
    5ae8:	ec e0       	ldi	r30, 0x0C	; 12
    5aea:	0c 94 08 2f 	jmp	0x5e10	; 0x5e10 <__epilogue_restores__+0xc>

00005aee <atol>:
    5aee:	1f 93       	push	r17
    5af0:	fc 01       	movw	r30, r24
    5af2:	99 27       	eor	r25, r25
    5af4:	88 27       	eor	r24, r24
    5af6:	bc 01       	movw	r22, r24
    5af8:	e8 94       	clt
    5afa:	11 91       	ld	r17, Z+
    5afc:	10 32       	cpi	r17, 0x20	; 32
    5afe:	e9 f3       	breq	.-6      	; 0x5afa <atol+0xc>
    5b00:	19 30       	cpi	r17, 0x09	; 9
    5b02:	10 f0       	brcs	.+4      	; 0x5b08 <atol+0x1a>
    5b04:	1e 30       	cpi	r17, 0x0E	; 14
    5b06:	c8 f3       	brcs	.-14     	; 0x5afa <atol+0xc>
    5b08:	1b 32       	cpi	r17, 0x2B	; 43
    5b0a:	51 f0       	breq	.+20     	; 0x5b20 <atol+0x32>
    5b0c:	1d 32       	cpi	r17, 0x2D	; 45
    5b0e:	49 f4       	brne	.+18     	; 0x5b22 <atol+0x34>
    5b10:	68 94       	set
    5b12:	06 c0       	rjmp	.+12     	; 0x5b20 <atol+0x32>
    5b14:	0e 94 83 2e 	call	0x5d06	; 0x5d06 <__mulsi_const_10>
    5b18:	61 0f       	add	r22, r17
    5b1a:	71 1d       	adc	r23, r1
    5b1c:	81 1d       	adc	r24, r1
    5b1e:	91 1d       	adc	r25, r1
    5b20:	11 91       	ld	r17, Z+
    5b22:	10 53       	subi	r17, 0x30	; 48
    5b24:	1a 30       	cpi	r17, 0x0A	; 10
    5b26:	b0 f3       	brcs	.-20     	; 0x5b14 <atol+0x26>
    5b28:	3e f4       	brtc	.+14     	; 0x5b38 <atol+0x4a>
    5b2a:	90 95       	com	r25
    5b2c:	80 95       	com	r24
    5b2e:	70 95       	com	r23
    5b30:	61 95       	neg	r22
    5b32:	7f 4f       	sbci	r23, 0xFF	; 255
    5b34:	8f 4f       	sbci	r24, 0xFF	; 255
    5b36:	9f 4f       	sbci	r25, 0xFF	; 255
    5b38:	1f 91       	pop	r17
    5b3a:	08 95       	ret

00005b3c <isspace>:
    5b3c:	91 11       	cpse	r25, r1
    5b3e:	33 c1       	rjmp	.+614    	; 0x5da6 <__ctype_isfalse>
    5b40:	80 32       	cpi	r24, 0x20	; 32
    5b42:	19 f0       	breq	.+6      	; 0x5b4a <isspace+0xe>
    5b44:	89 50       	subi	r24, 0x09	; 9
    5b46:	85 50       	subi	r24, 0x05	; 5
    5b48:	d0 f7       	brcc	.-12     	; 0x5b3e <isspace+0x2>
    5b4a:	08 95       	ret

00005b4c <tolower>:
    5b4c:	91 11       	cpse	r25, r1
    5b4e:	08 95       	ret
    5b50:	81 54       	subi	r24, 0x41	; 65
    5b52:	8a 51       	subi	r24, 0x1A	; 26
    5b54:	08 f4       	brcc	.+2      	; 0x5b58 <tolower+0xc>
    5b56:	80 5e       	subi	r24, 0xE0	; 224
    5b58:	85 5a       	subi	r24, 0xA5	; 165
    5b5a:	08 95       	ret

00005b5c <toupper>:
    5b5c:	91 11       	cpse	r25, r1
    5b5e:	08 95       	ret
    5b60:	81 56       	subi	r24, 0x61	; 97
    5b62:	8a 51       	subi	r24, 0x1A	; 26
    5b64:	08 f4       	brcc	.+2      	; 0x5b68 <toupper+0xc>
    5b66:	80 52       	subi	r24, 0x20	; 32
    5b68:	85 58       	subi	r24, 0x85	; 133
    5b6a:	08 95       	ret

00005b6c <memcpy>:
    5b6c:	fb 01       	movw	r30, r22
    5b6e:	dc 01       	movw	r26, r24
    5b70:	02 c0       	rjmp	.+4      	; 0x5b76 <memcpy+0xa>
    5b72:	01 90       	ld	r0, Z+
    5b74:	0d 92       	st	X+, r0
    5b76:	41 50       	subi	r20, 0x01	; 1
    5b78:	50 40       	sbci	r21, 0x00	; 0
    5b7a:	d8 f7       	brcc	.-10     	; 0x5b72 <memcpy+0x6>
    5b7c:	08 95       	ret

00005b7e <memmove>:
    5b7e:	68 17       	cp	r22, r24
    5b80:	79 07       	cpc	r23, r25
    5b82:	68 f4       	brcc	.+26     	; 0x5b9e <memmove+0x20>
    5b84:	fb 01       	movw	r30, r22
    5b86:	dc 01       	movw	r26, r24
    5b88:	e4 0f       	add	r30, r20
    5b8a:	f5 1f       	adc	r31, r21
    5b8c:	a4 0f       	add	r26, r20
    5b8e:	b5 1f       	adc	r27, r21
    5b90:	02 c0       	rjmp	.+4      	; 0x5b96 <memmove+0x18>
    5b92:	02 90       	ld	r0, -Z
    5b94:	0e 92       	st	-X, r0
    5b96:	41 50       	subi	r20, 0x01	; 1
    5b98:	50 40       	sbci	r21, 0x00	; 0
    5b9a:	d8 f7       	brcc	.-10     	; 0x5b92 <memmove+0x14>
    5b9c:	08 95       	ret
    5b9e:	0c 94 b6 2d 	jmp	0x5b6c	; 0x5b6c <memcpy>

00005ba2 <strchr>:
    5ba2:	fc 01       	movw	r30, r24
    5ba4:	81 91       	ld	r24, Z+
    5ba6:	86 17       	cp	r24, r22
    5ba8:	21 f0       	breq	.+8      	; 0x5bb2 <strchr+0x10>
    5baa:	88 23       	and	r24, r24
    5bac:	d9 f7       	brne	.-10     	; 0x5ba4 <strchr+0x2>
    5bae:	99 27       	eor	r25, r25
    5bb0:	08 95       	ret
    5bb2:	31 97       	sbiw	r30, 0x01	; 1
    5bb4:	cf 01       	movw	r24, r30
    5bb6:	08 95       	ret

00005bb8 <strcmp>:
    5bb8:	fb 01       	movw	r30, r22
    5bba:	dc 01       	movw	r26, r24
    5bbc:	8d 91       	ld	r24, X+
    5bbe:	01 90       	ld	r0, Z+
    5bc0:	80 19       	sub	r24, r0
    5bc2:	01 10       	cpse	r0, r1
    5bc4:	d9 f3       	breq	.-10     	; 0x5bbc <strcmp+0x4>
    5bc6:	99 0b       	sbc	r25, r25
    5bc8:	08 95       	ret

00005bca <strcpy>:
    5bca:	fb 01       	movw	r30, r22
    5bcc:	dc 01       	movw	r26, r24
    5bce:	01 90       	ld	r0, Z+
    5bd0:	0d 92       	st	X+, r0
    5bd2:	00 20       	and	r0, r0
    5bd4:	e1 f7       	brne	.-8      	; 0x5bce <strcpy+0x4>
    5bd6:	08 95       	ret

00005bd8 <strncmp>:
    5bd8:	fb 01       	movw	r30, r22
    5bda:	dc 01       	movw	r26, r24
    5bdc:	41 50       	subi	r20, 0x01	; 1
    5bde:	50 40       	sbci	r21, 0x00	; 0
    5be0:	30 f0       	brcs	.+12     	; 0x5bee <strncmp+0x16>
    5be2:	8d 91       	ld	r24, X+
    5be4:	01 90       	ld	r0, Z+
    5be6:	80 19       	sub	r24, r0
    5be8:	19 f4       	brne	.+6      	; 0x5bf0 <strncmp+0x18>
    5bea:	00 20       	and	r0, r0
    5bec:	b9 f7       	brne	.-18     	; 0x5bdc <strncmp+0x4>
    5bee:	88 1b       	sub	r24, r24
    5bf0:	99 0b       	sbc	r25, r25
    5bf2:	08 95       	ret

00005bf4 <strncpy>:
    5bf4:	fb 01       	movw	r30, r22
    5bf6:	dc 01       	movw	r26, r24
    5bf8:	41 50       	subi	r20, 0x01	; 1
    5bfa:	50 40       	sbci	r21, 0x00	; 0
    5bfc:	48 f0       	brcs	.+18     	; 0x5c10 <strncpy+0x1c>
    5bfe:	01 90       	ld	r0, Z+
    5c00:	0d 92       	st	X+, r0
    5c02:	00 20       	and	r0, r0
    5c04:	c9 f7       	brne	.-14     	; 0x5bf8 <strncpy+0x4>
    5c06:	01 c0       	rjmp	.+2      	; 0x5c0a <strncpy+0x16>
    5c08:	1d 92       	st	X+, r1
    5c0a:	41 50       	subi	r20, 0x01	; 1
    5c0c:	50 40       	sbci	r21, 0x00	; 0
    5c0e:	e0 f7       	brcc	.-8      	; 0x5c08 <strncpy+0x14>
    5c10:	08 95       	ret

00005c12 <strrchr>:
    5c12:	fc 01       	movw	r30, r24
    5c14:	81 e0       	ldi	r24, 0x01	; 1
    5c16:	90 e0       	ldi	r25, 0x00	; 0
    5c18:	01 90       	ld	r0, Z+
    5c1a:	06 16       	cp	r0, r22
    5c1c:	09 f4       	brne	.+2      	; 0x5c20 <strrchr+0xe>
    5c1e:	cf 01       	movw	r24, r30
    5c20:	00 20       	and	r0, r0
    5c22:	d1 f7       	brne	.-12     	; 0x5c18 <strrchr+0x6>
    5c24:	01 97       	sbiw	r24, 0x01	; 1
    5c26:	08 95       	ret

00005c28 <strstr>:
    5c28:	fb 01       	movw	r30, r22
    5c2a:	51 91       	ld	r21, Z+
    5c2c:	55 23       	and	r21, r21
    5c2e:	a9 f0       	breq	.+42     	; 0x5c5a <strstr+0x32>
    5c30:	bf 01       	movw	r22, r30
    5c32:	dc 01       	movw	r26, r24
    5c34:	4d 91       	ld	r20, X+
    5c36:	45 17       	cp	r20, r21
    5c38:	41 11       	cpse	r20, r1
    5c3a:	e1 f7       	brne	.-8      	; 0x5c34 <strstr+0xc>
    5c3c:	59 f4       	brne	.+22     	; 0x5c54 <strstr+0x2c>
    5c3e:	cd 01       	movw	r24, r26
    5c40:	01 90       	ld	r0, Z+
    5c42:	00 20       	and	r0, r0
    5c44:	49 f0       	breq	.+18     	; 0x5c58 <strstr+0x30>
    5c46:	4d 91       	ld	r20, X+
    5c48:	40 15       	cp	r20, r0
    5c4a:	41 11       	cpse	r20, r1
    5c4c:	c9 f3       	breq	.-14     	; 0x5c40 <strstr+0x18>
    5c4e:	fb 01       	movw	r30, r22
    5c50:	41 11       	cpse	r20, r1
    5c52:	ef cf       	rjmp	.-34     	; 0x5c32 <strstr+0xa>
    5c54:	81 e0       	ldi	r24, 0x01	; 1
    5c56:	90 e0       	ldi	r25, 0x00	; 0
    5c58:	01 97       	sbiw	r24, 0x01	; 1
    5c5a:	08 95       	ret

00005c5c <itoa>:
    5c5c:	fb 01       	movw	r30, r22
    5c5e:	9f 01       	movw	r18, r30
    5c60:	e8 94       	clt
    5c62:	42 30       	cpi	r20, 0x02	; 2
    5c64:	c4 f0       	brlt	.+48     	; 0x5c96 <itoa+0x3a>
    5c66:	45 32       	cpi	r20, 0x25	; 37
    5c68:	b4 f4       	brge	.+44     	; 0x5c96 <itoa+0x3a>
    5c6a:	4a 30       	cpi	r20, 0x0A	; 10
    5c6c:	29 f4       	brne	.+10     	; 0x5c78 <itoa+0x1c>
    5c6e:	97 fb       	bst	r25, 7
    5c70:	1e f4       	brtc	.+6      	; 0x5c78 <itoa+0x1c>
    5c72:	90 95       	com	r25
    5c74:	81 95       	neg	r24
    5c76:	9f 4f       	sbci	r25, 0xFF	; 255
    5c78:	64 2f       	mov	r22, r20
    5c7a:	77 27       	eor	r23, r23
    5c7c:	0e 94 5f 2b 	call	0x56be	; 0x56be <__udivmodhi4>
    5c80:	80 5d       	subi	r24, 0xD0	; 208
    5c82:	8a 33       	cpi	r24, 0x3A	; 58
    5c84:	0c f0       	brlt	.+2      	; 0x5c88 <itoa+0x2c>
    5c86:	89 5d       	subi	r24, 0xD9	; 217
    5c88:	81 93       	st	Z+, r24
    5c8a:	cb 01       	movw	r24, r22
    5c8c:	00 97       	sbiw	r24, 0x00	; 0
    5c8e:	a1 f7       	brne	.-24     	; 0x5c78 <itoa+0x1c>
    5c90:	16 f4       	brtc	.+4      	; 0x5c96 <itoa+0x3a>
    5c92:	5d e2       	ldi	r21, 0x2D	; 45
    5c94:	51 93       	st	Z+, r21
    5c96:	10 82       	st	Z, r1
    5c98:	c9 01       	movw	r24, r18
    5c9a:	0c 94 d6 2e 	jmp	0x5dac	; 0x5dac <strrev>

00005c9e <ltoa>:
    5c9e:	fa 01       	movw	r30, r20
    5ca0:	cf 93       	push	r28
    5ca2:	ff 93       	push	r31
    5ca4:	ef 93       	push	r30
    5ca6:	22 30       	cpi	r18, 0x02	; 2
    5ca8:	44 f1       	brlt	.+80     	; 0x5cfa <ltoa+0x5c>
    5caa:	25 32       	cpi	r18, 0x25	; 37
    5cac:	34 f5       	brge	.+76     	; 0x5cfa <ltoa+0x5c>
    5cae:	c2 2f       	mov	r28, r18
    5cb0:	e8 94       	clt
    5cb2:	ca 30       	cpi	r28, 0x0A	; 10
    5cb4:	49 f4       	brne	.+18     	; 0x5cc8 <ltoa+0x2a>
    5cb6:	97 fb       	bst	r25, 7
    5cb8:	3e f4       	brtc	.+14     	; 0x5cc8 <ltoa+0x2a>
    5cba:	90 95       	com	r25
    5cbc:	80 95       	com	r24
    5cbe:	70 95       	com	r23
    5cc0:	61 95       	neg	r22
    5cc2:	7f 4f       	sbci	r23, 0xFF	; 255
    5cc4:	8f 4f       	sbci	r24, 0xFF	; 255
    5cc6:	9f 4f       	sbci	r25, 0xFF	; 255
    5cc8:	2c 2f       	mov	r18, r28
    5cca:	33 27       	eor	r19, r19
    5ccc:	44 27       	eor	r20, r20
    5cce:	55 27       	eor	r21, r21
    5cd0:	ff 93       	push	r31
    5cd2:	ef 93       	push	r30
    5cd4:	0e 94 3d 2b 	call	0x567a	; 0x567a <__udivmodsi4>
    5cd8:	ef 91       	pop	r30
    5cda:	ff 91       	pop	r31
    5cdc:	60 5d       	subi	r22, 0xD0	; 208
    5cde:	6a 33       	cpi	r22, 0x3A	; 58
    5ce0:	0c f0       	brlt	.+2      	; 0x5ce4 <ltoa+0x46>
    5ce2:	69 5d       	subi	r22, 0xD9	; 217
    5ce4:	61 93       	st	Z+, r22
    5ce6:	b9 01       	movw	r22, r18
    5ce8:	ca 01       	movw	r24, r20
    5cea:	60 50       	subi	r22, 0x00	; 0
    5cec:	70 40       	sbci	r23, 0x00	; 0
    5cee:	80 40       	sbci	r24, 0x00	; 0
    5cf0:	90 40       	sbci	r25, 0x00	; 0
    5cf2:	51 f7       	brne	.-44     	; 0x5cc8 <ltoa+0x2a>
    5cf4:	16 f4       	brtc	.+4      	; 0x5cfa <ltoa+0x5c>
    5cf6:	cd e2       	ldi	r28, 0x2D	; 45
    5cf8:	c1 93       	st	Z+, r28
    5cfa:	10 82       	st	Z, r1
    5cfc:	8f 91       	pop	r24
    5cfe:	9f 91       	pop	r25
    5d00:	cf 91       	pop	r28
    5d02:	0c 94 d6 2e 	jmp	0x5dac	; 0x5dac <strrev>

00005d06 <__mulsi_const_10>:
    5d06:	59 2f       	mov	r21, r25
    5d08:	48 2f       	mov	r20, r24
    5d0a:	37 2f       	mov	r19, r23
    5d0c:	26 2f       	mov	r18, r22
    5d0e:	66 0f       	add	r22, r22
    5d10:	77 1f       	adc	r23, r23
    5d12:	88 1f       	adc	r24, r24
    5d14:	99 1f       	adc	r25, r25
    5d16:	66 0f       	add	r22, r22
    5d18:	77 1f       	adc	r23, r23
    5d1a:	88 1f       	adc	r24, r24
    5d1c:	99 1f       	adc	r25, r25
    5d1e:	62 0f       	add	r22, r18
    5d20:	73 1f       	adc	r23, r19
    5d22:	84 1f       	adc	r24, r20
    5d24:	95 1f       	adc	r25, r21
    5d26:	66 0f       	add	r22, r22
    5d28:	77 1f       	adc	r23, r23
    5d2a:	88 1f       	adc	r24, r24
    5d2c:	99 1f       	adc	r25, r25
    5d2e:	08 95       	ret

00005d30 <ultoa>:
    5d30:	fa 01       	movw	r30, r20
    5d32:	cf 93       	push	r28
    5d34:	ff 93       	push	r31
    5d36:	ef 93       	push	r30
    5d38:	22 30       	cpi	r18, 0x02	; 2
    5d3a:	cc f0       	brlt	.+50     	; 0x5d6e <ultoa+0x3e>
    5d3c:	25 32       	cpi	r18, 0x25	; 37
    5d3e:	bc f4       	brge	.+46     	; 0x5d6e <ultoa+0x3e>
    5d40:	c2 2f       	mov	r28, r18
    5d42:	2c 2f       	mov	r18, r28
    5d44:	33 27       	eor	r19, r19
    5d46:	44 27       	eor	r20, r20
    5d48:	55 27       	eor	r21, r21
    5d4a:	ff 93       	push	r31
    5d4c:	ef 93       	push	r30
    5d4e:	0e 94 3d 2b 	call	0x567a	; 0x567a <__udivmodsi4>
    5d52:	ef 91       	pop	r30
    5d54:	ff 91       	pop	r31
    5d56:	60 5d       	subi	r22, 0xD0	; 208
    5d58:	6a 33       	cpi	r22, 0x3A	; 58
    5d5a:	0c f0       	brlt	.+2      	; 0x5d5e <ultoa+0x2e>
    5d5c:	69 5d       	subi	r22, 0xD9	; 217
    5d5e:	61 93       	st	Z+, r22
    5d60:	b9 01       	movw	r22, r18
    5d62:	ca 01       	movw	r24, r20
    5d64:	60 50       	subi	r22, 0x00	; 0
    5d66:	70 40       	sbci	r23, 0x00	; 0
    5d68:	80 40       	sbci	r24, 0x00	; 0
    5d6a:	90 40       	sbci	r25, 0x00	; 0
    5d6c:	51 f7       	brne	.-44     	; 0x5d42 <ultoa+0x12>
    5d6e:	10 82       	st	Z, r1
    5d70:	8f 91       	pop	r24
    5d72:	9f 91       	pop	r25
    5d74:	cf 91       	pop	r28
    5d76:	0c 94 d6 2e 	jmp	0x5dac	; 0x5dac <strrev>

00005d7a <utoa>:
    5d7a:	fb 01       	movw	r30, r22
    5d7c:	9f 01       	movw	r18, r30
    5d7e:	42 30       	cpi	r20, 0x02	; 2
    5d80:	74 f0       	brlt	.+28     	; 0x5d9e <utoa+0x24>
    5d82:	45 32       	cpi	r20, 0x25	; 37
    5d84:	64 f4       	brge	.+24     	; 0x5d9e <utoa+0x24>
    5d86:	64 2f       	mov	r22, r20
    5d88:	77 27       	eor	r23, r23
    5d8a:	0e 94 5f 2b 	call	0x56be	; 0x56be <__udivmodhi4>
    5d8e:	80 5d       	subi	r24, 0xD0	; 208
    5d90:	8a 33       	cpi	r24, 0x3A	; 58
    5d92:	0c f0       	brlt	.+2      	; 0x5d96 <utoa+0x1c>
    5d94:	89 5d       	subi	r24, 0xD9	; 217
    5d96:	81 93       	st	Z+, r24
    5d98:	cb 01       	movw	r24, r22
    5d9a:	00 97       	sbiw	r24, 0x00	; 0
    5d9c:	a1 f7       	brne	.-24     	; 0x5d86 <utoa+0xc>
    5d9e:	10 82       	st	Z, r1
    5da0:	c9 01       	movw	r24, r18
    5da2:	0c 94 d6 2e 	jmp	0x5dac	; 0x5dac <strrev>

00005da6 <__ctype_isfalse>:
    5da6:	99 27       	eor	r25, r25
    5da8:	88 27       	eor	r24, r24

00005daa <__ctype_istrue>:
    5daa:	08 95       	ret

00005dac <strrev>:
    5dac:	dc 01       	movw	r26, r24
    5dae:	fc 01       	movw	r30, r24
    5db0:	67 2f       	mov	r22, r23
    5db2:	71 91       	ld	r23, Z+
    5db4:	77 23       	and	r23, r23
    5db6:	e1 f7       	brne	.-8      	; 0x5db0 <strrev+0x4>
    5db8:	32 97       	sbiw	r30, 0x02	; 2
    5dba:	04 c0       	rjmp	.+8      	; 0x5dc4 <strrev+0x18>
    5dbc:	7c 91       	ld	r23, X
    5dbe:	6d 93       	st	X+, r22
    5dc0:	70 83       	st	Z, r23
    5dc2:	62 91       	ld	r22, -Z
    5dc4:	ae 17       	cp	r26, r30
    5dc6:	bf 07       	cpc	r27, r31
    5dc8:	c8 f3       	brcs	.-14     	; 0x5dbc <strrev+0x10>
    5dca:	08 95       	ret

00005dcc <__prologue_saves__>:
    5dcc:	2f 92       	push	r2
    5dce:	3f 92       	push	r3
    5dd0:	4f 92       	push	r4
    5dd2:	5f 92       	push	r5
    5dd4:	6f 92       	push	r6
    5dd6:	7f 92       	push	r7
    5dd8:	8f 92       	push	r8
    5dda:	9f 92       	push	r9
    5ddc:	af 92       	push	r10
    5dde:	bf 92       	push	r11
    5de0:	cf 92       	push	r12
    5de2:	df 92       	push	r13
    5de4:	ef 92       	push	r14
    5de6:	ff 92       	push	r15
    5de8:	0f 93       	push	r16
    5dea:	1f 93       	push	r17
    5dec:	cf 93       	push	r28
    5dee:	df 93       	push	r29
    5df0:	cd b7       	in	r28, 0x3d	; 61
    5df2:	de b7       	in	r29, 0x3e	; 62
    5df4:	ca 1b       	sub	r28, r26
    5df6:	db 0b       	sbc	r29, r27
    5df8:	0f b6       	in	r0, 0x3f	; 63
    5dfa:	f8 94       	cli
    5dfc:	de bf       	out	0x3e, r29	; 62
    5dfe:	0f be       	out	0x3f, r0	; 63
    5e00:	cd bf       	out	0x3d, r28	; 61
    5e02:	09 94       	ijmp

00005e04 <__epilogue_restores__>:
    5e04:	2a 88       	ldd	r2, Y+18	; 0x12
    5e06:	39 88       	ldd	r3, Y+17	; 0x11
    5e08:	48 88       	ldd	r4, Y+16	; 0x10
    5e0a:	5f 84       	ldd	r5, Y+15	; 0x0f
    5e0c:	6e 84       	ldd	r6, Y+14	; 0x0e
    5e0e:	7d 84       	ldd	r7, Y+13	; 0x0d
    5e10:	8c 84       	ldd	r8, Y+12	; 0x0c
    5e12:	9b 84       	ldd	r9, Y+11	; 0x0b
    5e14:	aa 84       	ldd	r10, Y+10	; 0x0a
    5e16:	b9 84       	ldd	r11, Y+9	; 0x09
    5e18:	c8 84       	ldd	r12, Y+8	; 0x08
    5e1a:	df 80       	ldd	r13, Y+7	; 0x07
    5e1c:	ee 80       	ldd	r14, Y+6	; 0x06
    5e1e:	fd 80       	ldd	r15, Y+5	; 0x05
    5e20:	0c 81       	ldd	r16, Y+4	; 0x04
    5e22:	1b 81       	ldd	r17, Y+3	; 0x03
    5e24:	aa 81       	ldd	r26, Y+2	; 0x02
    5e26:	b9 81       	ldd	r27, Y+1	; 0x01
    5e28:	ce 0f       	add	r28, r30
    5e2a:	d1 1d       	adc	r29, r1
    5e2c:	0f b6       	in	r0, 0x3f	; 63
    5e2e:	f8 94       	cli
    5e30:	de bf       	out	0x3e, r29	; 62
    5e32:	0f be       	out	0x3f, r0	; 63
    5e34:	cd bf       	out	0x3d, r28	; 61
    5e36:	ed 01       	movw	r28, r26
    5e38:	08 95       	ret

00005e3a <_exit>:
    5e3a:	f8 94       	cli

00005e3c <__stop_program>:
    5e3c:	ff cf       	rjmp	.-2      	; 0x5e3c <__stop_program>
